ARM GAS  /tmp/ccoCXvoW.s 			page 1


   1              		.cpu cortex-m3
   2              		.arch armv7-m
   3              		.fpu softvfp
   4              		.eabi_attribute 20, 1
   5              		.eabi_attribute 21, 1
   6              		.eabi_attribute 23, 3
   7              		.eabi_attribute 24, 1
   8              		.eabi_attribute 25, 1
   9              		.eabi_attribute 26, 1
  10              		.eabi_attribute 30, 1
  11              		.eabi_attribute 34, 1
  12              		.eabi_attribute 18, 4
  13              		.file	"stm32l1xx_hal_rcc.c"
  14              		.text
  15              	.Ltext0:
  16              		.cfi_sections	.debug_frame
  17              		.section	.text.RCC_SetFlashLatencyFromMSIRange,"ax",%progbits
  18              		.align	1
  19              		.syntax unified
  20              		.thumb
  21              		.thumb_func
  23              	RCC_SetFlashLatencyFromMSIRange:
  24              	.LVL0:
  25              	.LFB86:
  26              		.file 1 "Drivers/STM32L1xx_HAL_Driver/Src/stm32l1xx_hal_rcc.c"
   1:Drivers/STM32L1xx_HAL_Driver/Src/stm32l1xx_hal_rcc.c **** /**
   2:Drivers/STM32L1xx_HAL_Driver/Src/stm32l1xx_hal_rcc.c ****   ******************************************************************************
   3:Drivers/STM32L1xx_HAL_Driver/Src/stm32l1xx_hal_rcc.c ****   * @file    stm32l1xx_hal_rcc.c
   4:Drivers/STM32L1xx_HAL_Driver/Src/stm32l1xx_hal_rcc.c ****   * @author  MCD Application Team
   5:Drivers/STM32L1xx_HAL_Driver/Src/stm32l1xx_hal_rcc.c ****   * @brief   RCC HAL module driver.
   6:Drivers/STM32L1xx_HAL_Driver/Src/stm32l1xx_hal_rcc.c ****   *          This file provides firmware functions to manage the following
   7:Drivers/STM32L1xx_HAL_Driver/Src/stm32l1xx_hal_rcc.c ****   *          functionalities of the Reset and Clock Control (RCC) peripheral:
   8:Drivers/STM32L1xx_HAL_Driver/Src/stm32l1xx_hal_rcc.c ****   *           + Initialization and de-initialization functions
   9:Drivers/STM32L1xx_HAL_Driver/Src/stm32l1xx_hal_rcc.c ****   *           + Peripheral Control functions
  10:Drivers/STM32L1xx_HAL_Driver/Src/stm32l1xx_hal_rcc.c ****   *
  11:Drivers/STM32L1xx_HAL_Driver/Src/stm32l1xx_hal_rcc.c ****   @verbatim
  12:Drivers/STM32L1xx_HAL_Driver/Src/stm32l1xx_hal_rcc.c ****   ==============================================================================
  13:Drivers/STM32L1xx_HAL_Driver/Src/stm32l1xx_hal_rcc.c ****                       ##### RCC specific features #####
  14:Drivers/STM32L1xx_HAL_Driver/Src/stm32l1xx_hal_rcc.c ****   ==============================================================================
  15:Drivers/STM32L1xx_HAL_Driver/Src/stm32l1xx_hal_rcc.c ****     [..]
  16:Drivers/STM32L1xx_HAL_Driver/Src/stm32l1xx_hal_rcc.c ****       After reset the device is running from multispeed internal oscillator clock
  17:Drivers/STM32L1xx_HAL_Driver/Src/stm32l1xx_hal_rcc.c ****       (MSI 2.097MHz) with Flash 0 wait state and Flash prefetch buffer is disabled,
  18:Drivers/STM32L1xx_HAL_Driver/Src/stm32l1xx_hal_rcc.c ****       and all peripherals are off except internal SRAM, Flash and JTAG.
  19:Drivers/STM32L1xx_HAL_Driver/Src/stm32l1xx_hal_rcc.c ****       (+) There is no prescaler on High speed (AHB) and Low speed (APB) buses;
  20:Drivers/STM32L1xx_HAL_Driver/Src/stm32l1xx_hal_rcc.c ****           all peripherals mapped on these buses are running at MSI speed.
  21:Drivers/STM32L1xx_HAL_Driver/Src/stm32l1xx_hal_rcc.c ****       (+) The clock for all peripherals is switched off, except the SRAM and FLASH.
  22:Drivers/STM32L1xx_HAL_Driver/Src/stm32l1xx_hal_rcc.c ****       (+) All GPIOs are in input floating state, except the JTAG pins which
  23:Drivers/STM32L1xx_HAL_Driver/Src/stm32l1xx_hal_rcc.c ****           are assigned to be used for debug purpose.
  24:Drivers/STM32L1xx_HAL_Driver/Src/stm32l1xx_hal_rcc.c ****     [..] Once the device started from reset, the user application has to:
  25:Drivers/STM32L1xx_HAL_Driver/Src/stm32l1xx_hal_rcc.c ****       (+) Configure the clock source to be used to drive the System clock
  26:Drivers/STM32L1xx_HAL_Driver/Src/stm32l1xx_hal_rcc.c ****           (if the application needs higher frequency/performance)
  27:Drivers/STM32L1xx_HAL_Driver/Src/stm32l1xx_hal_rcc.c ****       (+) Configure the System clock frequency and Flash settings
  28:Drivers/STM32L1xx_HAL_Driver/Src/stm32l1xx_hal_rcc.c ****       (+) Configure the AHB and APB buses prescalers
  29:Drivers/STM32L1xx_HAL_Driver/Src/stm32l1xx_hal_rcc.c ****       (+) Enable the clock for the peripheral(s) to be used
  30:Drivers/STM32L1xx_HAL_Driver/Src/stm32l1xx_hal_rcc.c ****       (+) Configure the clock source(s) for peripherals whose clocks are not
  31:Drivers/STM32L1xx_HAL_Driver/Src/stm32l1xx_hal_rcc.c ****           derived from the System clock (I2S, RTC, ADC, USB OTG FS/SDIO/RNG)
  32:Drivers/STM32L1xx_HAL_Driver/Src/stm32l1xx_hal_rcc.c ****           (*) SDIO only for STM32L1xxxD devices
ARM GAS  /tmp/ccoCXvoW.s 			page 2


  33:Drivers/STM32L1xx_HAL_Driver/Src/stm32l1xx_hal_rcc.c **** 
  34:Drivers/STM32L1xx_HAL_Driver/Src/stm32l1xx_hal_rcc.c ****                       ##### RCC Limitations #####
  35:Drivers/STM32L1xx_HAL_Driver/Src/stm32l1xx_hal_rcc.c ****   ==============================================================================
  36:Drivers/STM32L1xx_HAL_Driver/Src/stm32l1xx_hal_rcc.c ****     [..]
  37:Drivers/STM32L1xx_HAL_Driver/Src/stm32l1xx_hal_rcc.c ****       A delay between an RCC peripheral clock enable and the effective peripheral
  38:Drivers/STM32L1xx_HAL_Driver/Src/stm32l1xx_hal_rcc.c ****       enabling should be taken into account in order to manage the peripheral read/write
  39:Drivers/STM32L1xx_HAL_Driver/Src/stm32l1xx_hal_rcc.c ****       from/to registers.
  40:Drivers/STM32L1xx_HAL_Driver/Src/stm32l1xx_hal_rcc.c ****       (+) This delay depends on the peripheral mapping.
  41:Drivers/STM32L1xx_HAL_Driver/Src/stm32l1xx_hal_rcc.c ****         (++) AHB & APB peripherals, 1 dummy read is necessary
  42:Drivers/STM32L1xx_HAL_Driver/Src/stm32l1xx_hal_rcc.c **** 
  43:Drivers/STM32L1xx_HAL_Driver/Src/stm32l1xx_hal_rcc.c ****     [..]
  44:Drivers/STM32L1xx_HAL_Driver/Src/stm32l1xx_hal_rcc.c ****       Workarounds:
  45:Drivers/STM32L1xx_HAL_Driver/Src/stm32l1xx_hal_rcc.c ****       (#) For AHB & APB peripherals, a dummy read to the peripheral register has been
  46:Drivers/STM32L1xx_HAL_Driver/Src/stm32l1xx_hal_rcc.c ****           inserted in each __HAL_RCC_PPP_CLK_ENABLE() macro.
  47:Drivers/STM32L1xx_HAL_Driver/Src/stm32l1xx_hal_rcc.c **** 
  48:Drivers/STM32L1xx_HAL_Driver/Src/stm32l1xx_hal_rcc.c ****   @endverbatim
  49:Drivers/STM32L1xx_HAL_Driver/Src/stm32l1xx_hal_rcc.c ****   ******************************************************************************
  50:Drivers/STM32L1xx_HAL_Driver/Src/stm32l1xx_hal_rcc.c ****   * @attention
  51:Drivers/STM32L1xx_HAL_Driver/Src/stm32l1xx_hal_rcc.c ****   *
  52:Drivers/STM32L1xx_HAL_Driver/Src/stm32l1xx_hal_rcc.c ****   * Copyright (c) 2017 STMicroelectronics.
  53:Drivers/STM32L1xx_HAL_Driver/Src/stm32l1xx_hal_rcc.c ****   * All rights reserved.
  54:Drivers/STM32L1xx_HAL_Driver/Src/stm32l1xx_hal_rcc.c ****   *
  55:Drivers/STM32L1xx_HAL_Driver/Src/stm32l1xx_hal_rcc.c ****   * This software is licensed under terms that can be found in the LICENSE file in
  56:Drivers/STM32L1xx_HAL_Driver/Src/stm32l1xx_hal_rcc.c ****   * the root directory of this software component.
  57:Drivers/STM32L1xx_HAL_Driver/Src/stm32l1xx_hal_rcc.c ****   * If no LICENSE file comes with this software, it is provided AS-IS.
  58:Drivers/STM32L1xx_HAL_Driver/Src/stm32l1xx_hal_rcc.c ****   ******************************************************************************
  59:Drivers/STM32L1xx_HAL_Driver/Src/stm32l1xx_hal_rcc.c ****   */
  60:Drivers/STM32L1xx_HAL_Driver/Src/stm32l1xx_hal_rcc.c **** 
  61:Drivers/STM32L1xx_HAL_Driver/Src/stm32l1xx_hal_rcc.c **** /* Includes ------------------------------------------------------------------*/
  62:Drivers/STM32L1xx_HAL_Driver/Src/stm32l1xx_hal_rcc.c **** #include "stm32l1xx_hal.h"
  63:Drivers/STM32L1xx_HAL_Driver/Src/stm32l1xx_hal_rcc.c **** 
  64:Drivers/STM32L1xx_HAL_Driver/Src/stm32l1xx_hal_rcc.c **** /** @addtogroup STM32L1xx_HAL_Driver
  65:Drivers/STM32L1xx_HAL_Driver/Src/stm32l1xx_hal_rcc.c ****   * @{
  66:Drivers/STM32L1xx_HAL_Driver/Src/stm32l1xx_hal_rcc.c ****   */
  67:Drivers/STM32L1xx_HAL_Driver/Src/stm32l1xx_hal_rcc.c **** 
  68:Drivers/STM32L1xx_HAL_Driver/Src/stm32l1xx_hal_rcc.c **** /** @defgroup RCC RCC
  69:Drivers/STM32L1xx_HAL_Driver/Src/stm32l1xx_hal_rcc.c **** * @brief RCC HAL module driver
  70:Drivers/STM32L1xx_HAL_Driver/Src/stm32l1xx_hal_rcc.c ****   * @{
  71:Drivers/STM32L1xx_HAL_Driver/Src/stm32l1xx_hal_rcc.c ****   */
  72:Drivers/STM32L1xx_HAL_Driver/Src/stm32l1xx_hal_rcc.c **** 
  73:Drivers/STM32L1xx_HAL_Driver/Src/stm32l1xx_hal_rcc.c **** #ifdef HAL_RCC_MODULE_ENABLED
  74:Drivers/STM32L1xx_HAL_Driver/Src/stm32l1xx_hal_rcc.c **** 
  75:Drivers/STM32L1xx_HAL_Driver/Src/stm32l1xx_hal_rcc.c **** /* Private typedef -----------------------------------------------------------*/
  76:Drivers/STM32L1xx_HAL_Driver/Src/stm32l1xx_hal_rcc.c **** /* Private define ------------------------------------------------------------*/
  77:Drivers/STM32L1xx_HAL_Driver/Src/stm32l1xx_hal_rcc.c **** /* Private macro -------------------------------------------------------------*/
  78:Drivers/STM32L1xx_HAL_Driver/Src/stm32l1xx_hal_rcc.c **** /** @defgroup RCC_Private_Macros RCC Private Macros
  79:Drivers/STM32L1xx_HAL_Driver/Src/stm32l1xx_hal_rcc.c ****   * @{
  80:Drivers/STM32L1xx_HAL_Driver/Src/stm32l1xx_hal_rcc.c ****   */
  81:Drivers/STM32L1xx_HAL_Driver/Src/stm32l1xx_hal_rcc.c **** 
  82:Drivers/STM32L1xx_HAL_Driver/Src/stm32l1xx_hal_rcc.c **** #define MCO1_CLK_ENABLE()     __HAL_RCC_GPIOA_CLK_ENABLE()
  83:Drivers/STM32L1xx_HAL_Driver/Src/stm32l1xx_hal_rcc.c **** #define MCO1_GPIO_PORT        GPIOA
  84:Drivers/STM32L1xx_HAL_Driver/Src/stm32l1xx_hal_rcc.c **** #define MCO1_PIN              GPIO_PIN_8
  85:Drivers/STM32L1xx_HAL_Driver/Src/stm32l1xx_hal_rcc.c **** 
  86:Drivers/STM32L1xx_HAL_Driver/Src/stm32l1xx_hal_rcc.c **** /**
  87:Drivers/STM32L1xx_HAL_Driver/Src/stm32l1xx_hal_rcc.c ****   * @}
  88:Drivers/STM32L1xx_HAL_Driver/Src/stm32l1xx_hal_rcc.c ****   */
  89:Drivers/STM32L1xx_HAL_Driver/Src/stm32l1xx_hal_rcc.c **** 
ARM GAS  /tmp/ccoCXvoW.s 			page 3


  90:Drivers/STM32L1xx_HAL_Driver/Src/stm32l1xx_hal_rcc.c **** /* Private variables ---------------------------------------------------------*/
  91:Drivers/STM32L1xx_HAL_Driver/Src/stm32l1xx_hal_rcc.c **** /** @defgroup RCC_Private_Variables RCC Private Variables
  92:Drivers/STM32L1xx_HAL_Driver/Src/stm32l1xx_hal_rcc.c ****   * @{
  93:Drivers/STM32L1xx_HAL_Driver/Src/stm32l1xx_hal_rcc.c ****   */
  94:Drivers/STM32L1xx_HAL_Driver/Src/stm32l1xx_hal_rcc.c **** extern const uint8_t PLLMulTable[];          /* Defined in CMSIS (system_stm32l0xx.c)*/
  95:Drivers/STM32L1xx_HAL_Driver/Src/stm32l1xx_hal_rcc.c **** /**
  96:Drivers/STM32L1xx_HAL_Driver/Src/stm32l1xx_hal_rcc.c ****   * @}
  97:Drivers/STM32L1xx_HAL_Driver/Src/stm32l1xx_hal_rcc.c ****   */
  98:Drivers/STM32L1xx_HAL_Driver/Src/stm32l1xx_hal_rcc.c **** 
  99:Drivers/STM32L1xx_HAL_Driver/Src/stm32l1xx_hal_rcc.c **** /* Private function prototypes -----------------------------------------------*/
 100:Drivers/STM32L1xx_HAL_Driver/Src/stm32l1xx_hal_rcc.c **** /** @defgroup RCC_Private_Functions RCC Private Functions
 101:Drivers/STM32L1xx_HAL_Driver/Src/stm32l1xx_hal_rcc.c ****   * @{
 102:Drivers/STM32L1xx_HAL_Driver/Src/stm32l1xx_hal_rcc.c ****   */
 103:Drivers/STM32L1xx_HAL_Driver/Src/stm32l1xx_hal_rcc.c **** static HAL_StatusTypeDef RCC_SetFlashLatencyFromMSIRange(uint32_t MSIrange);
 104:Drivers/STM32L1xx_HAL_Driver/Src/stm32l1xx_hal_rcc.c **** /**
 105:Drivers/STM32L1xx_HAL_Driver/Src/stm32l1xx_hal_rcc.c ****   * @}
 106:Drivers/STM32L1xx_HAL_Driver/Src/stm32l1xx_hal_rcc.c ****   */
 107:Drivers/STM32L1xx_HAL_Driver/Src/stm32l1xx_hal_rcc.c **** 
 108:Drivers/STM32L1xx_HAL_Driver/Src/stm32l1xx_hal_rcc.c **** /* Exported functions ---------------------------------------------------------*/
 109:Drivers/STM32L1xx_HAL_Driver/Src/stm32l1xx_hal_rcc.c **** 
 110:Drivers/STM32L1xx_HAL_Driver/Src/stm32l1xx_hal_rcc.c **** /** @defgroup RCC_Exported_Functions RCC Exported Functions
 111:Drivers/STM32L1xx_HAL_Driver/Src/stm32l1xx_hal_rcc.c ****   * @{
 112:Drivers/STM32L1xx_HAL_Driver/Src/stm32l1xx_hal_rcc.c ****   */
 113:Drivers/STM32L1xx_HAL_Driver/Src/stm32l1xx_hal_rcc.c **** 
 114:Drivers/STM32L1xx_HAL_Driver/Src/stm32l1xx_hal_rcc.c **** /** @defgroup RCC_Exported_Functions_Group1 Initialization and de-initialization functions
 115:Drivers/STM32L1xx_HAL_Driver/Src/stm32l1xx_hal_rcc.c ****   *  @brief    Initialization and Configuration functions
 116:Drivers/STM32L1xx_HAL_Driver/Src/stm32l1xx_hal_rcc.c ****   *
 117:Drivers/STM32L1xx_HAL_Driver/Src/stm32l1xx_hal_rcc.c ****   @verbatim
 118:Drivers/STM32L1xx_HAL_Driver/Src/stm32l1xx_hal_rcc.c ****   ===============================================================================
 119:Drivers/STM32L1xx_HAL_Driver/Src/stm32l1xx_hal_rcc.c ****            ##### Initialization and de-initialization functions #####
 120:Drivers/STM32L1xx_HAL_Driver/Src/stm32l1xx_hal_rcc.c ****   ===============================================================================
 121:Drivers/STM32L1xx_HAL_Driver/Src/stm32l1xx_hal_rcc.c ****     [..]
 122:Drivers/STM32L1xx_HAL_Driver/Src/stm32l1xx_hal_rcc.c ****       This section provides functions allowing to configure the internal/external oscillators
 123:Drivers/STM32L1xx_HAL_Driver/Src/stm32l1xx_hal_rcc.c ****       (MSI, HSE, HSI, LSE, LSI, PLL, CSS and MCO) and the System buses clocks (SYSCLK, AHB, APB1
 124:Drivers/STM32L1xx_HAL_Driver/Src/stm32l1xx_hal_rcc.c ****       and APB2).
 125:Drivers/STM32L1xx_HAL_Driver/Src/stm32l1xx_hal_rcc.c **** 
 126:Drivers/STM32L1xx_HAL_Driver/Src/stm32l1xx_hal_rcc.c ****     [..] Internal/external clock and PLL configuration
 127:Drivers/STM32L1xx_HAL_Driver/Src/stm32l1xx_hal_rcc.c ****       (#) MSI (Multispeed internal), Seven frequency ranges are available: 65.536 kHz,
 128:Drivers/STM32L1xx_HAL_Driver/Src/stm32l1xx_hal_rcc.c ****           131.072 kHz, 262.144 kHz, 524.288 kHz, 1.048 MHz, 2.097 MHz (default value) and 4.194 MHz
 129:Drivers/STM32L1xx_HAL_Driver/Src/stm32l1xx_hal_rcc.c **** 
 130:Drivers/STM32L1xx_HAL_Driver/Src/stm32l1xx_hal_rcc.c ****       (#) HSI (high-speed internal), 16 MHz factory-trimmed RC used directly or through
 131:Drivers/STM32L1xx_HAL_Driver/Src/stm32l1xx_hal_rcc.c ****           the PLL as System clock source.
 132:Drivers/STM32L1xx_HAL_Driver/Src/stm32l1xx_hal_rcc.c ****       (#) LSI (low-speed internal), ~37 KHz low consumption RC used as IWDG and/or RTC
 133:Drivers/STM32L1xx_HAL_Driver/Src/stm32l1xx_hal_rcc.c ****           clock source.
 134:Drivers/STM32L1xx_HAL_Driver/Src/stm32l1xx_hal_rcc.c **** 
 135:Drivers/STM32L1xx_HAL_Driver/Src/stm32l1xx_hal_rcc.c ****       (#) HSE (high-speed external), 1 to 24 MHz crystal oscillator used directly or
 136:Drivers/STM32L1xx_HAL_Driver/Src/stm32l1xx_hal_rcc.c ****           through the PLL as System clock source. Can be used also as RTC clock source.
 137:Drivers/STM32L1xx_HAL_Driver/Src/stm32l1xx_hal_rcc.c **** 
 138:Drivers/STM32L1xx_HAL_Driver/Src/stm32l1xx_hal_rcc.c ****       (#) LSE (low-speed external), 32 KHz oscillator used as RTC clock source.
 139:Drivers/STM32L1xx_HAL_Driver/Src/stm32l1xx_hal_rcc.c **** 
 140:Drivers/STM32L1xx_HAL_Driver/Src/stm32l1xx_hal_rcc.c ****       (#) PLL (clocked by HSI or HSE), featuring different output clocks:
 141:Drivers/STM32L1xx_HAL_Driver/Src/stm32l1xx_hal_rcc.c ****         (++) The first output is used to generate the high speed system clock (up to 32 MHz)
 142:Drivers/STM32L1xx_HAL_Driver/Src/stm32l1xx_hal_rcc.c ****         (++) The second output is used to generate the clock for the USB OTG FS (48 MHz)
 143:Drivers/STM32L1xx_HAL_Driver/Src/stm32l1xx_hal_rcc.c **** 
 144:Drivers/STM32L1xx_HAL_Driver/Src/stm32l1xx_hal_rcc.c ****       (#) CSS (Clock security system), once enable using the macro __HAL_RCC_CSS_ENABLE()
 145:Drivers/STM32L1xx_HAL_Driver/Src/stm32l1xx_hal_rcc.c ****           and if a HSE clock failure occurs(HSE used directly or through PLL as System
 146:Drivers/STM32L1xx_HAL_Driver/Src/stm32l1xx_hal_rcc.c ****           clock source), the System clocks automatically switched to MSI and an interrupt
ARM GAS  /tmp/ccoCXvoW.s 			page 4


 147:Drivers/STM32L1xx_HAL_Driver/Src/stm32l1xx_hal_rcc.c ****           is generated if enabled. The interrupt is linked to the Cortex-M3 NMI
 148:Drivers/STM32L1xx_HAL_Driver/Src/stm32l1xx_hal_rcc.c ****           (Non-Maskable Interrupt) exception vector.
 149:Drivers/STM32L1xx_HAL_Driver/Src/stm32l1xx_hal_rcc.c **** 
 150:Drivers/STM32L1xx_HAL_Driver/Src/stm32l1xx_hal_rcc.c ****       (#) MCO1 (microcontroller clock output), used to output SYSCLK, HSI, LSI, MSI, LSE,
 151:Drivers/STM32L1xx_HAL_Driver/Src/stm32l1xx_hal_rcc.c ****           HSE or PLL clock (through a configurable prescaler) on PA8 pin.
 152:Drivers/STM32L1xx_HAL_Driver/Src/stm32l1xx_hal_rcc.c **** 
 153:Drivers/STM32L1xx_HAL_Driver/Src/stm32l1xx_hal_rcc.c ****     [..] System, AHB and APB buses clocks configuration
 154:Drivers/STM32L1xx_HAL_Driver/Src/stm32l1xx_hal_rcc.c ****       (#) Several clock sources can be used to drive the System clock (SYSCLK): MSI, HSI,
 155:Drivers/STM32L1xx_HAL_Driver/Src/stm32l1xx_hal_rcc.c ****           HSE and PLL.
 156:Drivers/STM32L1xx_HAL_Driver/Src/stm32l1xx_hal_rcc.c ****           The AHB clock (HCLK) is derived from System clock through configurable
 157:Drivers/STM32L1xx_HAL_Driver/Src/stm32l1xx_hal_rcc.c ****           prescaler and used to clock the CPU, memory and peripherals mapped
 158:Drivers/STM32L1xx_HAL_Driver/Src/stm32l1xx_hal_rcc.c ****           on AHB bus (DMA, GPIO...). APB1 (PCLK1) and APB2 (PCLK2) clocks are derived
 159:Drivers/STM32L1xx_HAL_Driver/Src/stm32l1xx_hal_rcc.c ****           from AHB clock through configurable prescalers and used to clock
 160:Drivers/STM32L1xx_HAL_Driver/Src/stm32l1xx_hal_rcc.c ****           the peripherals mapped on these buses. You can use
 161:Drivers/STM32L1xx_HAL_Driver/Src/stm32l1xx_hal_rcc.c ****           "HAL_RCC_GetSysClockFreq()" function to retrieve the frequencies of these clocks.
 162:Drivers/STM32L1xx_HAL_Driver/Src/stm32l1xx_hal_rcc.c **** 
 163:Drivers/STM32L1xx_HAL_Driver/Src/stm32l1xx_hal_rcc.c ****       -@- All the peripheral clocks are derived from the System clock (SYSCLK) except:
 164:Drivers/STM32L1xx_HAL_Driver/Src/stm32l1xx_hal_rcc.c ****           (+@) RTC: RTC clock can be derived either from the LSI, LSE or HSE clock
 165:Drivers/STM32L1xx_HAL_Driver/Src/stm32l1xx_hal_rcc.c ****               divided by 2 to 16. You have to use __HAL_RCC_RTC_CONFIG() and __HAL_RCC_RTC_ENABLE()
 166:Drivers/STM32L1xx_HAL_Driver/Src/stm32l1xx_hal_rcc.c ****               macros to configure this clock.
 167:Drivers/STM32L1xx_HAL_Driver/Src/stm32l1xx_hal_rcc.c ****           (+@) LCD: LCD clock can be derived either from the LSI, LSE or HSE clock
 168:Drivers/STM32L1xx_HAL_Driver/Src/stm32l1xx_hal_rcc.c ****               divided by 2 to 16. You have to use __HAL_RCC_LCD_CONFIG()
 169:Drivers/STM32L1xx_HAL_Driver/Src/stm32l1xx_hal_rcc.c ****               macros to configure this clock.
 170:Drivers/STM32L1xx_HAL_Driver/Src/stm32l1xx_hal_rcc.c ****           (+@) USB OTG FS: USB OTG FS require a frequency equal to 48 MHz
 171:Drivers/STM32L1xx_HAL_Driver/Src/stm32l1xx_hal_rcc.c ****               to work correctly. This clock is derived of the main PLL through PLL Multiplier.
 172:Drivers/STM32L1xx_HAL_Driver/Src/stm32l1xx_hal_rcc.c **** 
 173:Drivers/STM32L1xx_HAL_Driver/Src/stm32l1xx_hal_rcc.c ****           (+@) IWDG clock which is always the LSI clock.
 174:Drivers/STM32L1xx_HAL_Driver/Src/stm32l1xx_hal_rcc.c **** 
 175:Drivers/STM32L1xx_HAL_Driver/Src/stm32l1xx_hal_rcc.c ****       (#) The maximum frequency of the SYSCLK and HCLK is 32 MHz, PCLK2 32 MHz
 176:Drivers/STM32L1xx_HAL_Driver/Src/stm32l1xx_hal_rcc.c ****           and PCLK1 32 MHz. Depending on the device voltage range, the maximum
 177:Drivers/STM32L1xx_HAL_Driver/Src/stm32l1xx_hal_rcc.c ****           frequency should be adapted accordingly.
 178:Drivers/STM32L1xx_HAL_Driver/Src/stm32l1xx_hal_rcc.c ****   @endverbatim
 179:Drivers/STM32L1xx_HAL_Driver/Src/stm32l1xx_hal_rcc.c ****   * @{
 180:Drivers/STM32L1xx_HAL_Driver/Src/stm32l1xx_hal_rcc.c ****   */
 181:Drivers/STM32L1xx_HAL_Driver/Src/stm32l1xx_hal_rcc.c **** 
 182:Drivers/STM32L1xx_HAL_Driver/Src/stm32l1xx_hal_rcc.c **** /*
 183:Drivers/STM32L1xx_HAL_Driver/Src/stm32l1xx_hal_rcc.c ****   Additional consideration on the HCLK based on Latency settings:
 184:Drivers/STM32L1xx_HAL_Driver/Src/stm32l1xx_hal_rcc.c ****   +----------------------------------------------------------------------+
 185:Drivers/STM32L1xx_HAL_Driver/Src/stm32l1xx_hal_rcc.c ****   | Latency       |                HCLK clock frequency (MHz)            |
 186:Drivers/STM32L1xx_HAL_Driver/Src/stm32l1xx_hal_rcc.c ****   |               |------------------------------------------------------|
 187:Drivers/STM32L1xx_HAL_Driver/Src/stm32l1xx_hal_rcc.c ****   |               | voltage range 1  | voltage range 2 | voltage range 3 |
 188:Drivers/STM32L1xx_HAL_Driver/Src/stm32l1xx_hal_rcc.c ****   |               |      1.8 V       |     1.5 V       |      1.2 V      |
 189:Drivers/STM32L1xx_HAL_Driver/Src/stm32l1xx_hal_rcc.c ****   |---------------|------------------|-----------------|-----------------|
 190:Drivers/STM32L1xx_HAL_Driver/Src/stm32l1xx_hal_rcc.c ****   |0WS(1CPU cycle)| 0 < HCLK <= 16   | 0 < HCLK <= 8   | 0 < HCLK <= 2   |
 191:Drivers/STM32L1xx_HAL_Driver/Src/stm32l1xx_hal_rcc.c ****   |---------------|------------------|-----------------|-----------------|
 192:Drivers/STM32L1xx_HAL_Driver/Src/stm32l1xx_hal_rcc.c ****   |1WS(2CPU cycle)| 16 < HCLK <= 32  | 8 < HCLK <= 16  | 2 < HCLK <= 4   |
 193:Drivers/STM32L1xx_HAL_Driver/Src/stm32l1xx_hal_rcc.c ****   +----------------------------------------------------------------------+
 194:Drivers/STM32L1xx_HAL_Driver/Src/stm32l1xx_hal_rcc.c **** 
 195:Drivers/STM32L1xx_HAL_Driver/Src/stm32l1xx_hal_rcc.c ****   The following table gives the different clock source frequencies depending on the product
 196:Drivers/STM32L1xx_HAL_Driver/Src/stm32l1xx_hal_rcc.c ****   voltage range:
 197:Drivers/STM32L1xx_HAL_Driver/Src/stm32l1xx_hal_rcc.c ****   +------------------------------------------------------------------------------------------+
 198:Drivers/STM32L1xx_HAL_Driver/Src/stm32l1xx_hal_rcc.c ****   | Product voltage |                    Clock frequency                                     |
 199:Drivers/STM32L1xx_HAL_Driver/Src/stm32l1xx_hal_rcc.c ****   |                 |------------------|-----------------------------|-----------------------|
 200:Drivers/STM32L1xx_HAL_Driver/Src/stm32l1xx_hal_rcc.c ****   |      range      |   MSI   |   HSI  |              HSE            |          PLL          |
 201:Drivers/STM32L1xx_HAL_Driver/Src/stm32l1xx_hal_rcc.c ****   |-----------------|---------|--------|-----------------------------|-----------------------|
 202:Drivers/STM32L1xx_HAL_Driver/Src/stm32l1xx_hal_rcc.c ****   | Range 1 (1.8 V) | 4.2 MHz | 16 MHz | HSE 32 MHz (external clock) |         32 MHz        |
 203:Drivers/STM32L1xx_HAL_Driver/Src/stm32l1xx_hal_rcc.c ****   |                 |         |        |      or 24 MHz (crystal)    | (PLLVCO max = 96 MHz) |
ARM GAS  /tmp/ccoCXvoW.s 			page 5


 204:Drivers/STM32L1xx_HAL_Driver/Src/stm32l1xx_hal_rcc.c ****   |-----------------|---------|--------|-----------------------------|-----------------------|
 205:Drivers/STM32L1xx_HAL_Driver/Src/stm32l1xx_hal_rcc.c ****   | Range 2 (1.5 V) | 4.2 MHz | 16 MHz |         16 MHz              |         16 MHz        |
 206:Drivers/STM32L1xx_HAL_Driver/Src/stm32l1xx_hal_rcc.c ****   |                 |         |        |                             | (PLLVCO max = 48 MHz) |
 207:Drivers/STM32L1xx_HAL_Driver/Src/stm32l1xx_hal_rcc.c ****   |-----------------|---------|--------|-----------------------------|-----------------------|
 208:Drivers/STM32L1xx_HAL_Driver/Src/stm32l1xx_hal_rcc.c ****   | Range 3 (1.2 V) | 4.2 MHz |   NA   |         8 MHz               |           4 MHz       |
 209:Drivers/STM32L1xx_HAL_Driver/Src/stm32l1xx_hal_rcc.c ****   |                 |         |        |                             | (PLLVCO max = 24 MHz) |
 210:Drivers/STM32L1xx_HAL_Driver/Src/stm32l1xx_hal_rcc.c ****   +------------------------------------------------------------------------------------------+
 211:Drivers/STM32L1xx_HAL_Driver/Src/stm32l1xx_hal_rcc.c ****   */
 212:Drivers/STM32L1xx_HAL_Driver/Src/stm32l1xx_hal_rcc.c **** 
 213:Drivers/STM32L1xx_HAL_Driver/Src/stm32l1xx_hal_rcc.c **** /**
 214:Drivers/STM32L1xx_HAL_Driver/Src/stm32l1xx_hal_rcc.c ****   * @brief  Resets the RCC clock configuration to the default reset state.
 215:Drivers/STM32L1xx_HAL_Driver/Src/stm32l1xx_hal_rcc.c ****   * @note   The default reset state of the clock configuration is given below:
 216:Drivers/STM32L1xx_HAL_Driver/Src/stm32l1xx_hal_rcc.c ****   *            - MSI ON and used as system clock source
 217:Drivers/STM32L1xx_HAL_Driver/Src/stm32l1xx_hal_rcc.c ****   *            - HSI, HSE and PLL  OFF
 218:Drivers/STM32L1xx_HAL_Driver/Src/stm32l1xx_hal_rcc.c ****   *            - AHB, APB1 and APB2 prescaler set to 1.
 219:Drivers/STM32L1xx_HAL_Driver/Src/stm32l1xx_hal_rcc.c ****   *            - CSS and MCO1 OFF
 220:Drivers/STM32L1xx_HAL_Driver/Src/stm32l1xx_hal_rcc.c ****   *            - All interrupts disabled
 221:Drivers/STM32L1xx_HAL_Driver/Src/stm32l1xx_hal_rcc.c ****   * @note   This function does not modify the configuration of the
 222:Drivers/STM32L1xx_HAL_Driver/Src/stm32l1xx_hal_rcc.c ****   *            - Peripheral clocks
 223:Drivers/STM32L1xx_HAL_Driver/Src/stm32l1xx_hal_rcc.c ****   *            - LSI, LSE and RTC clocks
 224:Drivers/STM32L1xx_HAL_Driver/Src/stm32l1xx_hal_rcc.c ****   * @retval HAL status
 225:Drivers/STM32L1xx_HAL_Driver/Src/stm32l1xx_hal_rcc.c ****   */
 226:Drivers/STM32L1xx_HAL_Driver/Src/stm32l1xx_hal_rcc.c **** HAL_StatusTypeDef HAL_RCC_DeInit(void)
 227:Drivers/STM32L1xx_HAL_Driver/Src/stm32l1xx_hal_rcc.c **** {
 228:Drivers/STM32L1xx_HAL_Driver/Src/stm32l1xx_hal_rcc.c ****   uint32_t tickstart;
 229:Drivers/STM32L1xx_HAL_Driver/Src/stm32l1xx_hal_rcc.c ****   HAL_StatusTypeDef status;
 230:Drivers/STM32L1xx_HAL_Driver/Src/stm32l1xx_hal_rcc.c **** 
 231:Drivers/STM32L1xx_HAL_Driver/Src/stm32l1xx_hal_rcc.c ****   /* Set MSIClockRange, HSITRIM and MSITRIM bits to the reset values */
 232:Drivers/STM32L1xx_HAL_Driver/Src/stm32l1xx_hal_rcc.c ****   MODIFY_REG(RCC->ICSCR, (RCC_ICSCR_MSITRIM | RCC_ICSCR_HSITRIM | RCC_ICSCR_MSIRANGE), \
 233:Drivers/STM32L1xx_HAL_Driver/Src/stm32l1xx_hal_rcc.c ****             ((RCC_MSICALIBRATION_DEFAULT << RCC_ICSCR_MSITRIM_Pos) | (RCC_HSICALIBRATION_DEFAULT <<
 234:Drivers/STM32L1xx_HAL_Driver/Src/stm32l1xx_hal_rcc.c **** 
 235:Drivers/STM32L1xx_HAL_Driver/Src/stm32l1xx_hal_rcc.c ****   /* Set MSION bit */
 236:Drivers/STM32L1xx_HAL_Driver/Src/stm32l1xx_hal_rcc.c ****   SET_BIT(RCC->CR, RCC_CR_MSION);
 237:Drivers/STM32L1xx_HAL_Driver/Src/stm32l1xx_hal_rcc.c **** 
 238:Drivers/STM32L1xx_HAL_Driver/Src/stm32l1xx_hal_rcc.c ****   /* Get Start Tick*/
 239:Drivers/STM32L1xx_HAL_Driver/Src/stm32l1xx_hal_rcc.c ****   tickstart = HAL_GetTick();
 240:Drivers/STM32L1xx_HAL_Driver/Src/stm32l1xx_hal_rcc.c **** 
 241:Drivers/STM32L1xx_HAL_Driver/Src/stm32l1xx_hal_rcc.c ****   /* Wait till MSI is ready */
 242:Drivers/STM32L1xx_HAL_Driver/Src/stm32l1xx_hal_rcc.c ****   while (READ_BIT(RCC->CR, RCC_CR_MSIRDY) == 0U)
 243:Drivers/STM32L1xx_HAL_Driver/Src/stm32l1xx_hal_rcc.c ****   {
 244:Drivers/STM32L1xx_HAL_Driver/Src/stm32l1xx_hal_rcc.c ****     if ((HAL_GetTick() - tickstart) > MSI_TIMEOUT_VALUE)
 245:Drivers/STM32L1xx_HAL_Driver/Src/stm32l1xx_hal_rcc.c ****     {
 246:Drivers/STM32L1xx_HAL_Driver/Src/stm32l1xx_hal_rcc.c ****       return HAL_TIMEOUT;
 247:Drivers/STM32L1xx_HAL_Driver/Src/stm32l1xx_hal_rcc.c ****     }
 248:Drivers/STM32L1xx_HAL_Driver/Src/stm32l1xx_hal_rcc.c ****   }
 249:Drivers/STM32L1xx_HAL_Driver/Src/stm32l1xx_hal_rcc.c **** 
 250:Drivers/STM32L1xx_HAL_Driver/Src/stm32l1xx_hal_rcc.c ****   /* Switch SYSCLK to MSI*/
 251:Drivers/STM32L1xx_HAL_Driver/Src/stm32l1xx_hal_rcc.c ****   CLEAR_BIT(RCC->CFGR, RCC_CFGR_SW);
 252:Drivers/STM32L1xx_HAL_Driver/Src/stm32l1xx_hal_rcc.c **** 
 253:Drivers/STM32L1xx_HAL_Driver/Src/stm32l1xx_hal_rcc.c ****   /* Wait till MSI as SYSCLK status is ready */
 254:Drivers/STM32L1xx_HAL_Driver/Src/stm32l1xx_hal_rcc.c ****   while (READ_BIT(RCC->CFGR, RCC_CFGR_SWS) != 0U)
 255:Drivers/STM32L1xx_HAL_Driver/Src/stm32l1xx_hal_rcc.c ****   {
 256:Drivers/STM32L1xx_HAL_Driver/Src/stm32l1xx_hal_rcc.c ****     if ((HAL_GetTick() - tickstart) > CLOCKSWITCH_TIMEOUT_VALUE)
 257:Drivers/STM32L1xx_HAL_Driver/Src/stm32l1xx_hal_rcc.c ****     {
 258:Drivers/STM32L1xx_HAL_Driver/Src/stm32l1xx_hal_rcc.c ****       return HAL_TIMEOUT;
 259:Drivers/STM32L1xx_HAL_Driver/Src/stm32l1xx_hal_rcc.c ****     }
 260:Drivers/STM32L1xx_HAL_Driver/Src/stm32l1xx_hal_rcc.c ****   }
ARM GAS  /tmp/ccoCXvoW.s 			page 6


 261:Drivers/STM32L1xx_HAL_Driver/Src/stm32l1xx_hal_rcc.c **** 
 262:Drivers/STM32L1xx_HAL_Driver/Src/stm32l1xx_hal_rcc.c ****   /* Update the SystemCoreClock global variable */
 263:Drivers/STM32L1xx_HAL_Driver/Src/stm32l1xx_hal_rcc.c ****   SystemCoreClock = MSI_VALUE;
 264:Drivers/STM32L1xx_HAL_Driver/Src/stm32l1xx_hal_rcc.c **** 
 265:Drivers/STM32L1xx_HAL_Driver/Src/stm32l1xx_hal_rcc.c ****   /* Configure the source of time base considering new system clock settings  */
 266:Drivers/STM32L1xx_HAL_Driver/Src/stm32l1xx_hal_rcc.c ****   status = HAL_InitTick(uwTickPrio);
 267:Drivers/STM32L1xx_HAL_Driver/Src/stm32l1xx_hal_rcc.c ****   if(status != HAL_OK)
 268:Drivers/STM32L1xx_HAL_Driver/Src/stm32l1xx_hal_rcc.c ****   {
 269:Drivers/STM32L1xx_HAL_Driver/Src/stm32l1xx_hal_rcc.c ****     return status;
 270:Drivers/STM32L1xx_HAL_Driver/Src/stm32l1xx_hal_rcc.c ****   }
 271:Drivers/STM32L1xx_HAL_Driver/Src/stm32l1xx_hal_rcc.c **** 
 272:Drivers/STM32L1xx_HAL_Driver/Src/stm32l1xx_hal_rcc.c ****   /* Reset HSION, HSEON, CSSON & PLLON bits */
 273:Drivers/STM32L1xx_HAL_Driver/Src/stm32l1xx_hal_rcc.c ****   CLEAR_BIT(RCC->CR, RCC_CR_HSION | RCC_CR_HSEON | RCC_CR_CSSON | RCC_CR_PLLON);
 274:Drivers/STM32L1xx_HAL_Driver/Src/stm32l1xx_hal_rcc.c ****   /* Reset HSEBYP bit */
 275:Drivers/STM32L1xx_HAL_Driver/Src/stm32l1xx_hal_rcc.c ****   CLEAR_BIT(RCC->CR, RCC_CR_HSEBYP);
 276:Drivers/STM32L1xx_HAL_Driver/Src/stm32l1xx_hal_rcc.c **** 
 277:Drivers/STM32L1xx_HAL_Driver/Src/stm32l1xx_hal_rcc.c ****   /* Get Start Tick*/
 278:Drivers/STM32L1xx_HAL_Driver/Src/stm32l1xx_hal_rcc.c ****   tickstart = HAL_GetTick();
 279:Drivers/STM32L1xx_HAL_Driver/Src/stm32l1xx_hal_rcc.c **** 
 280:Drivers/STM32L1xx_HAL_Driver/Src/stm32l1xx_hal_rcc.c ****   /* Wait till PLL is not ready */
 281:Drivers/STM32L1xx_HAL_Driver/Src/stm32l1xx_hal_rcc.c ****   while (READ_BIT(RCC->CR, RCC_CR_PLLRDY) != 0U)
 282:Drivers/STM32L1xx_HAL_Driver/Src/stm32l1xx_hal_rcc.c ****   {
 283:Drivers/STM32L1xx_HAL_Driver/Src/stm32l1xx_hal_rcc.c ****     if ((HAL_GetTick() - tickstart) > PLL_TIMEOUT_VALUE)
 284:Drivers/STM32L1xx_HAL_Driver/Src/stm32l1xx_hal_rcc.c ****     {
 285:Drivers/STM32L1xx_HAL_Driver/Src/stm32l1xx_hal_rcc.c ****       return HAL_TIMEOUT;
 286:Drivers/STM32L1xx_HAL_Driver/Src/stm32l1xx_hal_rcc.c ****     }
 287:Drivers/STM32L1xx_HAL_Driver/Src/stm32l1xx_hal_rcc.c ****   }
 288:Drivers/STM32L1xx_HAL_Driver/Src/stm32l1xx_hal_rcc.c **** 
 289:Drivers/STM32L1xx_HAL_Driver/Src/stm32l1xx_hal_rcc.c ****   /* Reset CFGR register */
 290:Drivers/STM32L1xx_HAL_Driver/Src/stm32l1xx_hal_rcc.c ****   CLEAR_REG(RCC->CFGR);
 291:Drivers/STM32L1xx_HAL_Driver/Src/stm32l1xx_hal_rcc.c **** 
 292:Drivers/STM32L1xx_HAL_Driver/Src/stm32l1xx_hal_rcc.c ****   /* Disable all interrupts */
 293:Drivers/STM32L1xx_HAL_Driver/Src/stm32l1xx_hal_rcc.c ****   CLEAR_REG(RCC->CIR);
 294:Drivers/STM32L1xx_HAL_Driver/Src/stm32l1xx_hal_rcc.c **** 
 295:Drivers/STM32L1xx_HAL_Driver/Src/stm32l1xx_hal_rcc.c ****   /* Clear all flags */
 296:Drivers/STM32L1xx_HAL_Driver/Src/stm32l1xx_hal_rcc.c **** #if defined(RCC_LSECSS_SUPPORT)
 297:Drivers/STM32L1xx_HAL_Driver/Src/stm32l1xx_hal_rcc.c ****   WRITE_REG(RCC->CIR, RCC_CIR_LSIRDYC | RCC_CIR_LSERDYC | RCC_CIR_HSIRDYC | RCC_CIR_HSERDYC | RCC_C
 298:Drivers/STM32L1xx_HAL_Driver/Src/stm32l1xx_hal_rcc.c **** #else
 299:Drivers/STM32L1xx_HAL_Driver/Src/stm32l1xx_hal_rcc.c ****   WRITE_REG(RCC->CIR, RCC_CIR_LSIRDYC | RCC_CIR_LSERDYC | RCC_CIR_HSIRDYC | RCC_CIR_HSERDYC | RCC_C
 300:Drivers/STM32L1xx_HAL_Driver/Src/stm32l1xx_hal_rcc.c **** #endif
 301:Drivers/STM32L1xx_HAL_Driver/Src/stm32l1xx_hal_rcc.c **** 
 302:Drivers/STM32L1xx_HAL_Driver/Src/stm32l1xx_hal_rcc.c ****   /* Clear all reset flags */
 303:Drivers/STM32L1xx_HAL_Driver/Src/stm32l1xx_hal_rcc.c ****   SET_BIT(RCC->CSR, RCC_CSR_RMVF);
 304:Drivers/STM32L1xx_HAL_Driver/Src/stm32l1xx_hal_rcc.c **** 
 305:Drivers/STM32L1xx_HAL_Driver/Src/stm32l1xx_hal_rcc.c ****   return HAL_OK;
 306:Drivers/STM32L1xx_HAL_Driver/Src/stm32l1xx_hal_rcc.c **** }
 307:Drivers/STM32L1xx_HAL_Driver/Src/stm32l1xx_hal_rcc.c **** 
 308:Drivers/STM32L1xx_HAL_Driver/Src/stm32l1xx_hal_rcc.c **** /**
 309:Drivers/STM32L1xx_HAL_Driver/Src/stm32l1xx_hal_rcc.c ****   * @brief  Initializes the RCC Oscillators according to the specified parameters in the
 310:Drivers/STM32L1xx_HAL_Driver/Src/stm32l1xx_hal_rcc.c ****   *         RCC_OscInitTypeDef.
 311:Drivers/STM32L1xx_HAL_Driver/Src/stm32l1xx_hal_rcc.c ****   * @param  RCC_OscInitStruct pointer to an RCC_OscInitTypeDef structure that
 312:Drivers/STM32L1xx_HAL_Driver/Src/stm32l1xx_hal_rcc.c ****   *         contains the configuration information for the RCC Oscillators.
 313:Drivers/STM32L1xx_HAL_Driver/Src/stm32l1xx_hal_rcc.c ****   * @note   The PLL is not disabled when used as system clock.
 314:Drivers/STM32L1xx_HAL_Driver/Src/stm32l1xx_hal_rcc.c ****   * @note   Transitions LSE Bypass to LSE On and LSE On to LSE Bypass are not
 315:Drivers/STM32L1xx_HAL_Driver/Src/stm32l1xx_hal_rcc.c ****   *         supported by this macro. User should request a transition to LSE Off
 316:Drivers/STM32L1xx_HAL_Driver/Src/stm32l1xx_hal_rcc.c ****   *         first and then LSE On or LSE Bypass.
 317:Drivers/STM32L1xx_HAL_Driver/Src/stm32l1xx_hal_rcc.c ****   * @note   Transition HSE Bypass to HSE On and HSE On to HSE Bypass are not
ARM GAS  /tmp/ccoCXvoW.s 			page 7


 318:Drivers/STM32L1xx_HAL_Driver/Src/stm32l1xx_hal_rcc.c ****   *         supported by this macro. User should request a transition to HSE Off
 319:Drivers/STM32L1xx_HAL_Driver/Src/stm32l1xx_hal_rcc.c ****   *         first and then HSE On or HSE Bypass.
 320:Drivers/STM32L1xx_HAL_Driver/Src/stm32l1xx_hal_rcc.c ****   * @retval HAL status
 321:Drivers/STM32L1xx_HAL_Driver/Src/stm32l1xx_hal_rcc.c ****   */
 322:Drivers/STM32L1xx_HAL_Driver/Src/stm32l1xx_hal_rcc.c **** HAL_StatusTypeDef HAL_RCC_OscConfig(RCC_OscInitTypeDef  *RCC_OscInitStruct)
 323:Drivers/STM32L1xx_HAL_Driver/Src/stm32l1xx_hal_rcc.c **** {
 324:Drivers/STM32L1xx_HAL_Driver/Src/stm32l1xx_hal_rcc.c ****   uint32_t tickstart;
 325:Drivers/STM32L1xx_HAL_Driver/Src/stm32l1xx_hal_rcc.c ****   HAL_StatusTypeDef status;
 326:Drivers/STM32L1xx_HAL_Driver/Src/stm32l1xx_hal_rcc.c ****   uint32_t sysclk_source, pll_config;
 327:Drivers/STM32L1xx_HAL_Driver/Src/stm32l1xx_hal_rcc.c **** 
 328:Drivers/STM32L1xx_HAL_Driver/Src/stm32l1xx_hal_rcc.c ****   /* Check the parameters */
 329:Drivers/STM32L1xx_HAL_Driver/Src/stm32l1xx_hal_rcc.c ****   if(RCC_OscInitStruct == NULL)
 330:Drivers/STM32L1xx_HAL_Driver/Src/stm32l1xx_hal_rcc.c ****   {
 331:Drivers/STM32L1xx_HAL_Driver/Src/stm32l1xx_hal_rcc.c ****     return HAL_ERROR;
 332:Drivers/STM32L1xx_HAL_Driver/Src/stm32l1xx_hal_rcc.c ****   }
 333:Drivers/STM32L1xx_HAL_Driver/Src/stm32l1xx_hal_rcc.c **** 
 334:Drivers/STM32L1xx_HAL_Driver/Src/stm32l1xx_hal_rcc.c ****   assert_param(IS_RCC_OSCILLATORTYPE(RCC_OscInitStruct->OscillatorType));
 335:Drivers/STM32L1xx_HAL_Driver/Src/stm32l1xx_hal_rcc.c **** 
 336:Drivers/STM32L1xx_HAL_Driver/Src/stm32l1xx_hal_rcc.c ****   sysclk_source = __HAL_RCC_GET_SYSCLK_SOURCE();
 337:Drivers/STM32L1xx_HAL_Driver/Src/stm32l1xx_hal_rcc.c ****   pll_config = __HAL_RCC_GET_PLL_OSCSOURCE();
 338:Drivers/STM32L1xx_HAL_Driver/Src/stm32l1xx_hal_rcc.c **** 
 339:Drivers/STM32L1xx_HAL_Driver/Src/stm32l1xx_hal_rcc.c ****   /*------------------------------- HSE Configuration ------------------------*/
 340:Drivers/STM32L1xx_HAL_Driver/Src/stm32l1xx_hal_rcc.c ****   if(((RCC_OscInitStruct->OscillatorType) & RCC_OSCILLATORTYPE_HSE) == RCC_OSCILLATORTYPE_HSE)
 341:Drivers/STM32L1xx_HAL_Driver/Src/stm32l1xx_hal_rcc.c ****   {
 342:Drivers/STM32L1xx_HAL_Driver/Src/stm32l1xx_hal_rcc.c ****     /* Check the parameters */
 343:Drivers/STM32L1xx_HAL_Driver/Src/stm32l1xx_hal_rcc.c ****     assert_param(IS_RCC_HSE(RCC_OscInitStruct->HSEState));
 344:Drivers/STM32L1xx_HAL_Driver/Src/stm32l1xx_hal_rcc.c **** 
 345:Drivers/STM32L1xx_HAL_Driver/Src/stm32l1xx_hal_rcc.c ****     /* When the HSE is used as system clock or clock source for PLL in these cases it is not allowe
 346:Drivers/STM32L1xx_HAL_Driver/Src/stm32l1xx_hal_rcc.c ****     if((sysclk_source == RCC_SYSCLKSOURCE_STATUS_HSE)
 347:Drivers/STM32L1xx_HAL_Driver/Src/stm32l1xx_hal_rcc.c ****        || ((sysclk_source == RCC_SYSCLKSOURCE_STATUS_PLLCLK) && (pll_config == RCC_PLLSOURCE_HSE)))
 348:Drivers/STM32L1xx_HAL_Driver/Src/stm32l1xx_hal_rcc.c ****     {
 349:Drivers/STM32L1xx_HAL_Driver/Src/stm32l1xx_hal_rcc.c ****       if((__HAL_RCC_GET_FLAG(RCC_FLAG_HSERDY) != 0U) && (RCC_OscInitStruct->HSEState == RCC_HSE_OFF
 350:Drivers/STM32L1xx_HAL_Driver/Src/stm32l1xx_hal_rcc.c ****       {
 351:Drivers/STM32L1xx_HAL_Driver/Src/stm32l1xx_hal_rcc.c ****         return HAL_ERROR;
 352:Drivers/STM32L1xx_HAL_Driver/Src/stm32l1xx_hal_rcc.c ****       }
 353:Drivers/STM32L1xx_HAL_Driver/Src/stm32l1xx_hal_rcc.c ****     }
 354:Drivers/STM32L1xx_HAL_Driver/Src/stm32l1xx_hal_rcc.c ****     else
 355:Drivers/STM32L1xx_HAL_Driver/Src/stm32l1xx_hal_rcc.c ****     {
 356:Drivers/STM32L1xx_HAL_Driver/Src/stm32l1xx_hal_rcc.c ****       /* Set the new HSE configuration ---------------------------------------*/
 357:Drivers/STM32L1xx_HAL_Driver/Src/stm32l1xx_hal_rcc.c ****       __HAL_RCC_HSE_CONFIG(RCC_OscInitStruct->HSEState);
 358:Drivers/STM32L1xx_HAL_Driver/Src/stm32l1xx_hal_rcc.c **** 
 359:Drivers/STM32L1xx_HAL_Driver/Src/stm32l1xx_hal_rcc.c ****       /* Check the HSE State */
 360:Drivers/STM32L1xx_HAL_Driver/Src/stm32l1xx_hal_rcc.c ****       if(RCC_OscInitStruct->HSEState != RCC_HSE_OFF)
 361:Drivers/STM32L1xx_HAL_Driver/Src/stm32l1xx_hal_rcc.c ****       {
 362:Drivers/STM32L1xx_HAL_Driver/Src/stm32l1xx_hal_rcc.c ****         /* Get Start Tick */
 363:Drivers/STM32L1xx_HAL_Driver/Src/stm32l1xx_hal_rcc.c ****         tickstart = HAL_GetTick();
 364:Drivers/STM32L1xx_HAL_Driver/Src/stm32l1xx_hal_rcc.c **** 
 365:Drivers/STM32L1xx_HAL_Driver/Src/stm32l1xx_hal_rcc.c ****         /* Wait till HSE is ready */
 366:Drivers/STM32L1xx_HAL_Driver/Src/stm32l1xx_hal_rcc.c ****         while(__HAL_RCC_GET_FLAG(RCC_FLAG_HSERDY) == 0U)
 367:Drivers/STM32L1xx_HAL_Driver/Src/stm32l1xx_hal_rcc.c ****         {
 368:Drivers/STM32L1xx_HAL_Driver/Src/stm32l1xx_hal_rcc.c ****           if((HAL_GetTick() - tickstart ) > HSE_TIMEOUT_VALUE)
 369:Drivers/STM32L1xx_HAL_Driver/Src/stm32l1xx_hal_rcc.c ****           {
 370:Drivers/STM32L1xx_HAL_Driver/Src/stm32l1xx_hal_rcc.c ****             return HAL_TIMEOUT;
 371:Drivers/STM32L1xx_HAL_Driver/Src/stm32l1xx_hal_rcc.c ****           }
 372:Drivers/STM32L1xx_HAL_Driver/Src/stm32l1xx_hal_rcc.c ****         }
 373:Drivers/STM32L1xx_HAL_Driver/Src/stm32l1xx_hal_rcc.c ****       }
 374:Drivers/STM32L1xx_HAL_Driver/Src/stm32l1xx_hal_rcc.c ****       else
ARM GAS  /tmp/ccoCXvoW.s 			page 8


 375:Drivers/STM32L1xx_HAL_Driver/Src/stm32l1xx_hal_rcc.c ****       {
 376:Drivers/STM32L1xx_HAL_Driver/Src/stm32l1xx_hal_rcc.c ****         /* Get Start Tick */
 377:Drivers/STM32L1xx_HAL_Driver/Src/stm32l1xx_hal_rcc.c ****         tickstart = HAL_GetTick();
 378:Drivers/STM32L1xx_HAL_Driver/Src/stm32l1xx_hal_rcc.c **** 
 379:Drivers/STM32L1xx_HAL_Driver/Src/stm32l1xx_hal_rcc.c ****         /* Wait till HSE is disabled */
 380:Drivers/STM32L1xx_HAL_Driver/Src/stm32l1xx_hal_rcc.c ****         while(__HAL_RCC_GET_FLAG(RCC_FLAG_HSERDY) != 0U)
 381:Drivers/STM32L1xx_HAL_Driver/Src/stm32l1xx_hal_rcc.c ****         {
 382:Drivers/STM32L1xx_HAL_Driver/Src/stm32l1xx_hal_rcc.c ****            if((HAL_GetTick() - tickstart ) > HSE_TIMEOUT_VALUE)
 383:Drivers/STM32L1xx_HAL_Driver/Src/stm32l1xx_hal_rcc.c ****           {
 384:Drivers/STM32L1xx_HAL_Driver/Src/stm32l1xx_hal_rcc.c ****             return HAL_TIMEOUT;
 385:Drivers/STM32L1xx_HAL_Driver/Src/stm32l1xx_hal_rcc.c ****           }
 386:Drivers/STM32L1xx_HAL_Driver/Src/stm32l1xx_hal_rcc.c ****         }
 387:Drivers/STM32L1xx_HAL_Driver/Src/stm32l1xx_hal_rcc.c ****       }
 388:Drivers/STM32L1xx_HAL_Driver/Src/stm32l1xx_hal_rcc.c ****     }
 389:Drivers/STM32L1xx_HAL_Driver/Src/stm32l1xx_hal_rcc.c ****   }
 390:Drivers/STM32L1xx_HAL_Driver/Src/stm32l1xx_hal_rcc.c ****   /*----------------------------- HSI Configuration --------------------------*/
 391:Drivers/STM32L1xx_HAL_Driver/Src/stm32l1xx_hal_rcc.c ****   if(((RCC_OscInitStruct->OscillatorType) & RCC_OSCILLATORTYPE_HSI) == RCC_OSCILLATORTYPE_HSI)
 392:Drivers/STM32L1xx_HAL_Driver/Src/stm32l1xx_hal_rcc.c ****   {
 393:Drivers/STM32L1xx_HAL_Driver/Src/stm32l1xx_hal_rcc.c ****     /* Check the parameters */
 394:Drivers/STM32L1xx_HAL_Driver/Src/stm32l1xx_hal_rcc.c ****     assert_param(IS_RCC_HSI(RCC_OscInitStruct->HSIState));
 395:Drivers/STM32L1xx_HAL_Driver/Src/stm32l1xx_hal_rcc.c ****     assert_param(IS_RCC_CALIBRATION_VALUE(RCC_OscInitStruct->HSICalibrationValue));
 396:Drivers/STM32L1xx_HAL_Driver/Src/stm32l1xx_hal_rcc.c **** 
 397:Drivers/STM32L1xx_HAL_Driver/Src/stm32l1xx_hal_rcc.c ****     /* Check if HSI is used as system clock or as PLL source when PLL is selected as system clock *
 398:Drivers/STM32L1xx_HAL_Driver/Src/stm32l1xx_hal_rcc.c ****     if((sysclk_source == RCC_SYSCLKSOURCE_STATUS_HSI)
 399:Drivers/STM32L1xx_HAL_Driver/Src/stm32l1xx_hal_rcc.c ****        || ((sysclk_source == RCC_SYSCLKSOURCE_STATUS_PLLCLK) && (pll_config == RCC_PLLSOURCE_HSI)))
 400:Drivers/STM32L1xx_HAL_Driver/Src/stm32l1xx_hal_rcc.c ****     {
 401:Drivers/STM32L1xx_HAL_Driver/Src/stm32l1xx_hal_rcc.c ****       /* When HSI is used as system clock it will not disabled */
 402:Drivers/STM32L1xx_HAL_Driver/Src/stm32l1xx_hal_rcc.c ****       if((__HAL_RCC_GET_FLAG(RCC_FLAG_HSIRDY) != 0U) && (RCC_OscInitStruct->HSIState != RCC_HSI_ON)
 403:Drivers/STM32L1xx_HAL_Driver/Src/stm32l1xx_hal_rcc.c ****       {
 404:Drivers/STM32L1xx_HAL_Driver/Src/stm32l1xx_hal_rcc.c ****         return HAL_ERROR;
 405:Drivers/STM32L1xx_HAL_Driver/Src/stm32l1xx_hal_rcc.c ****       }
 406:Drivers/STM32L1xx_HAL_Driver/Src/stm32l1xx_hal_rcc.c ****       /* Otherwise, just the calibration is allowed */
 407:Drivers/STM32L1xx_HAL_Driver/Src/stm32l1xx_hal_rcc.c ****       else
 408:Drivers/STM32L1xx_HAL_Driver/Src/stm32l1xx_hal_rcc.c ****       {
 409:Drivers/STM32L1xx_HAL_Driver/Src/stm32l1xx_hal_rcc.c ****         /* Adjusts the Internal High Speed oscillator (HSI) calibration value.*/
 410:Drivers/STM32L1xx_HAL_Driver/Src/stm32l1xx_hal_rcc.c ****         __HAL_RCC_HSI_CALIBRATIONVALUE_ADJUST(RCC_OscInitStruct->HSICalibrationValue);
 411:Drivers/STM32L1xx_HAL_Driver/Src/stm32l1xx_hal_rcc.c ****       }
 412:Drivers/STM32L1xx_HAL_Driver/Src/stm32l1xx_hal_rcc.c ****     }
 413:Drivers/STM32L1xx_HAL_Driver/Src/stm32l1xx_hal_rcc.c ****     else
 414:Drivers/STM32L1xx_HAL_Driver/Src/stm32l1xx_hal_rcc.c ****     {
 415:Drivers/STM32L1xx_HAL_Driver/Src/stm32l1xx_hal_rcc.c ****       /* Check the HSI State */
 416:Drivers/STM32L1xx_HAL_Driver/Src/stm32l1xx_hal_rcc.c ****       if(RCC_OscInitStruct->HSIState != RCC_HSI_OFF)
 417:Drivers/STM32L1xx_HAL_Driver/Src/stm32l1xx_hal_rcc.c ****       {
 418:Drivers/STM32L1xx_HAL_Driver/Src/stm32l1xx_hal_rcc.c ****         /* Enable the Internal High Speed oscillator (HSI). */
 419:Drivers/STM32L1xx_HAL_Driver/Src/stm32l1xx_hal_rcc.c ****         __HAL_RCC_HSI_ENABLE();
 420:Drivers/STM32L1xx_HAL_Driver/Src/stm32l1xx_hal_rcc.c **** 
 421:Drivers/STM32L1xx_HAL_Driver/Src/stm32l1xx_hal_rcc.c ****         /* Get Start Tick */
 422:Drivers/STM32L1xx_HAL_Driver/Src/stm32l1xx_hal_rcc.c ****         tickstart = HAL_GetTick();
 423:Drivers/STM32L1xx_HAL_Driver/Src/stm32l1xx_hal_rcc.c **** 
 424:Drivers/STM32L1xx_HAL_Driver/Src/stm32l1xx_hal_rcc.c ****         /* Wait till HSI is ready */
 425:Drivers/STM32L1xx_HAL_Driver/Src/stm32l1xx_hal_rcc.c ****         while(__HAL_RCC_GET_FLAG(RCC_FLAG_HSIRDY) == 0U)
 426:Drivers/STM32L1xx_HAL_Driver/Src/stm32l1xx_hal_rcc.c ****         {
 427:Drivers/STM32L1xx_HAL_Driver/Src/stm32l1xx_hal_rcc.c ****           if((HAL_GetTick() - tickstart ) > HSI_TIMEOUT_VALUE)
 428:Drivers/STM32L1xx_HAL_Driver/Src/stm32l1xx_hal_rcc.c ****           {
 429:Drivers/STM32L1xx_HAL_Driver/Src/stm32l1xx_hal_rcc.c ****             return HAL_TIMEOUT;
 430:Drivers/STM32L1xx_HAL_Driver/Src/stm32l1xx_hal_rcc.c ****           }
 431:Drivers/STM32L1xx_HAL_Driver/Src/stm32l1xx_hal_rcc.c ****         }
ARM GAS  /tmp/ccoCXvoW.s 			page 9


 432:Drivers/STM32L1xx_HAL_Driver/Src/stm32l1xx_hal_rcc.c **** 
 433:Drivers/STM32L1xx_HAL_Driver/Src/stm32l1xx_hal_rcc.c ****         /* Adjusts the Internal High Speed oscillator (HSI) calibration value.*/
 434:Drivers/STM32L1xx_HAL_Driver/Src/stm32l1xx_hal_rcc.c ****         __HAL_RCC_HSI_CALIBRATIONVALUE_ADJUST(RCC_OscInitStruct->HSICalibrationValue);
 435:Drivers/STM32L1xx_HAL_Driver/Src/stm32l1xx_hal_rcc.c ****       }
 436:Drivers/STM32L1xx_HAL_Driver/Src/stm32l1xx_hal_rcc.c ****       else
 437:Drivers/STM32L1xx_HAL_Driver/Src/stm32l1xx_hal_rcc.c ****       {
 438:Drivers/STM32L1xx_HAL_Driver/Src/stm32l1xx_hal_rcc.c ****         /* Disable the Internal High Speed oscillator (HSI). */
 439:Drivers/STM32L1xx_HAL_Driver/Src/stm32l1xx_hal_rcc.c ****         __HAL_RCC_HSI_DISABLE();
 440:Drivers/STM32L1xx_HAL_Driver/Src/stm32l1xx_hal_rcc.c **** 
 441:Drivers/STM32L1xx_HAL_Driver/Src/stm32l1xx_hal_rcc.c ****         /* Get Start Tick */
 442:Drivers/STM32L1xx_HAL_Driver/Src/stm32l1xx_hal_rcc.c ****         tickstart = HAL_GetTick();
 443:Drivers/STM32L1xx_HAL_Driver/Src/stm32l1xx_hal_rcc.c **** 
 444:Drivers/STM32L1xx_HAL_Driver/Src/stm32l1xx_hal_rcc.c ****         /* Wait till HSI is disabled */
 445:Drivers/STM32L1xx_HAL_Driver/Src/stm32l1xx_hal_rcc.c ****         while(__HAL_RCC_GET_FLAG(RCC_FLAG_HSIRDY) != 0U)
 446:Drivers/STM32L1xx_HAL_Driver/Src/stm32l1xx_hal_rcc.c ****         {
 447:Drivers/STM32L1xx_HAL_Driver/Src/stm32l1xx_hal_rcc.c ****           if((HAL_GetTick() - tickstart ) > HSI_TIMEOUT_VALUE)
 448:Drivers/STM32L1xx_HAL_Driver/Src/stm32l1xx_hal_rcc.c ****           {
 449:Drivers/STM32L1xx_HAL_Driver/Src/stm32l1xx_hal_rcc.c ****             return HAL_TIMEOUT;
 450:Drivers/STM32L1xx_HAL_Driver/Src/stm32l1xx_hal_rcc.c ****           }
 451:Drivers/STM32L1xx_HAL_Driver/Src/stm32l1xx_hal_rcc.c ****         }
 452:Drivers/STM32L1xx_HAL_Driver/Src/stm32l1xx_hal_rcc.c ****       }
 453:Drivers/STM32L1xx_HAL_Driver/Src/stm32l1xx_hal_rcc.c ****     }
 454:Drivers/STM32L1xx_HAL_Driver/Src/stm32l1xx_hal_rcc.c ****   }
 455:Drivers/STM32L1xx_HAL_Driver/Src/stm32l1xx_hal_rcc.c ****   /*----------------------------- MSI Configuration --------------------------*/
 456:Drivers/STM32L1xx_HAL_Driver/Src/stm32l1xx_hal_rcc.c ****   if(((RCC_OscInitStruct->OscillatorType) & RCC_OSCILLATORTYPE_MSI) == RCC_OSCILLATORTYPE_MSI)
 457:Drivers/STM32L1xx_HAL_Driver/Src/stm32l1xx_hal_rcc.c ****   {
 458:Drivers/STM32L1xx_HAL_Driver/Src/stm32l1xx_hal_rcc.c ****     /* When the MSI is used as system clock it will not be disabled */
 459:Drivers/STM32L1xx_HAL_Driver/Src/stm32l1xx_hal_rcc.c ****     if(sysclk_source == RCC_CFGR_SWS_MSI)
 460:Drivers/STM32L1xx_HAL_Driver/Src/stm32l1xx_hal_rcc.c ****     {
 461:Drivers/STM32L1xx_HAL_Driver/Src/stm32l1xx_hal_rcc.c ****       if((__HAL_RCC_GET_FLAG(RCC_FLAG_MSIRDY) != 0U) && (RCC_OscInitStruct->MSIState == RCC_MSI_OFF
 462:Drivers/STM32L1xx_HAL_Driver/Src/stm32l1xx_hal_rcc.c ****       {
 463:Drivers/STM32L1xx_HAL_Driver/Src/stm32l1xx_hal_rcc.c ****         return HAL_ERROR;
 464:Drivers/STM32L1xx_HAL_Driver/Src/stm32l1xx_hal_rcc.c ****       }
 465:Drivers/STM32L1xx_HAL_Driver/Src/stm32l1xx_hal_rcc.c ****       /* Otherwise, just the calibration and MSI range change are allowed */
 466:Drivers/STM32L1xx_HAL_Driver/Src/stm32l1xx_hal_rcc.c ****       else
 467:Drivers/STM32L1xx_HAL_Driver/Src/stm32l1xx_hal_rcc.c ****       {
 468:Drivers/STM32L1xx_HAL_Driver/Src/stm32l1xx_hal_rcc.c ****        /* Check MSICalibrationValue and MSIClockRange input parameters */
 469:Drivers/STM32L1xx_HAL_Driver/Src/stm32l1xx_hal_rcc.c ****         assert_param(IS_RCC_MSICALIBRATION_VALUE(RCC_OscInitStruct->MSICalibrationValue));
 470:Drivers/STM32L1xx_HAL_Driver/Src/stm32l1xx_hal_rcc.c ****         assert_param(IS_RCC_MSI_CLOCK_RANGE(RCC_OscInitStruct->MSIClockRange));
 471:Drivers/STM32L1xx_HAL_Driver/Src/stm32l1xx_hal_rcc.c **** 
 472:Drivers/STM32L1xx_HAL_Driver/Src/stm32l1xx_hal_rcc.c ****         /* To correctly read data from FLASH memory, the number of wait states (LATENCY)
 473:Drivers/STM32L1xx_HAL_Driver/Src/stm32l1xx_hal_rcc.c ****            must be correctly programmed according to the frequency of the CPU clock
 474:Drivers/STM32L1xx_HAL_Driver/Src/stm32l1xx_hal_rcc.c ****            (HCLK) and the supply voltage of the device. */
 475:Drivers/STM32L1xx_HAL_Driver/Src/stm32l1xx_hal_rcc.c ****         if(RCC_OscInitStruct->MSIClockRange > __HAL_RCC_GET_MSI_RANGE())
 476:Drivers/STM32L1xx_HAL_Driver/Src/stm32l1xx_hal_rcc.c ****         {
 477:Drivers/STM32L1xx_HAL_Driver/Src/stm32l1xx_hal_rcc.c ****           /* First increase number of wait states update if necessary */
 478:Drivers/STM32L1xx_HAL_Driver/Src/stm32l1xx_hal_rcc.c ****           if(RCC_SetFlashLatencyFromMSIRange(RCC_OscInitStruct->MSIClockRange) != HAL_OK)
 479:Drivers/STM32L1xx_HAL_Driver/Src/stm32l1xx_hal_rcc.c ****           {
 480:Drivers/STM32L1xx_HAL_Driver/Src/stm32l1xx_hal_rcc.c ****             return HAL_ERROR;
 481:Drivers/STM32L1xx_HAL_Driver/Src/stm32l1xx_hal_rcc.c ****           }
 482:Drivers/STM32L1xx_HAL_Driver/Src/stm32l1xx_hal_rcc.c **** 
 483:Drivers/STM32L1xx_HAL_Driver/Src/stm32l1xx_hal_rcc.c ****           /* Selects the Multiple Speed oscillator (MSI) clock range .*/
 484:Drivers/STM32L1xx_HAL_Driver/Src/stm32l1xx_hal_rcc.c ****           __HAL_RCC_MSI_RANGE_CONFIG(RCC_OscInitStruct->MSIClockRange);
 485:Drivers/STM32L1xx_HAL_Driver/Src/stm32l1xx_hal_rcc.c ****           /* Adjusts the Multiple Speed oscillator (MSI) calibration value.*/
 486:Drivers/STM32L1xx_HAL_Driver/Src/stm32l1xx_hal_rcc.c ****           __HAL_RCC_MSI_CALIBRATIONVALUE_ADJUST(RCC_OscInitStruct->MSICalibrationValue);
 487:Drivers/STM32L1xx_HAL_Driver/Src/stm32l1xx_hal_rcc.c ****         }
 488:Drivers/STM32L1xx_HAL_Driver/Src/stm32l1xx_hal_rcc.c ****         else
ARM GAS  /tmp/ccoCXvoW.s 			page 10


 489:Drivers/STM32L1xx_HAL_Driver/Src/stm32l1xx_hal_rcc.c ****         {
 490:Drivers/STM32L1xx_HAL_Driver/Src/stm32l1xx_hal_rcc.c ****           /* Else, keep current flash latency while decreasing applies */
 491:Drivers/STM32L1xx_HAL_Driver/Src/stm32l1xx_hal_rcc.c ****           /* Selects the Multiple Speed oscillator (MSI) clock range .*/
 492:Drivers/STM32L1xx_HAL_Driver/Src/stm32l1xx_hal_rcc.c ****           __HAL_RCC_MSI_RANGE_CONFIG(RCC_OscInitStruct->MSIClockRange);
 493:Drivers/STM32L1xx_HAL_Driver/Src/stm32l1xx_hal_rcc.c ****           /* Adjusts the Multiple Speed oscillator (MSI) calibration value.*/
 494:Drivers/STM32L1xx_HAL_Driver/Src/stm32l1xx_hal_rcc.c ****           __HAL_RCC_MSI_CALIBRATIONVALUE_ADJUST(RCC_OscInitStruct->MSICalibrationValue);
 495:Drivers/STM32L1xx_HAL_Driver/Src/stm32l1xx_hal_rcc.c **** 
 496:Drivers/STM32L1xx_HAL_Driver/Src/stm32l1xx_hal_rcc.c ****           /* Decrease number of wait states update if necessary */
 497:Drivers/STM32L1xx_HAL_Driver/Src/stm32l1xx_hal_rcc.c ****           if(RCC_SetFlashLatencyFromMSIRange(RCC_OscInitStruct->MSIClockRange) != HAL_OK)
 498:Drivers/STM32L1xx_HAL_Driver/Src/stm32l1xx_hal_rcc.c ****           {
 499:Drivers/STM32L1xx_HAL_Driver/Src/stm32l1xx_hal_rcc.c ****             return HAL_ERROR;
 500:Drivers/STM32L1xx_HAL_Driver/Src/stm32l1xx_hal_rcc.c ****           }
 501:Drivers/STM32L1xx_HAL_Driver/Src/stm32l1xx_hal_rcc.c ****         }
 502:Drivers/STM32L1xx_HAL_Driver/Src/stm32l1xx_hal_rcc.c **** 
 503:Drivers/STM32L1xx_HAL_Driver/Src/stm32l1xx_hal_rcc.c ****         /* Update the SystemCoreClock global variable */
 504:Drivers/STM32L1xx_HAL_Driver/Src/stm32l1xx_hal_rcc.c ****         SystemCoreClock =  (32768U * (1UL << ((RCC_OscInitStruct->MSIClockRange >> RCC_ICSCR_MSIRAN
 505:Drivers/STM32L1xx_HAL_Driver/Src/stm32l1xx_hal_rcc.c ****                            >> AHBPrescTable[((RCC->CFGR & RCC_CFGR_HPRE) >> RCC_CFGR_HPRE_Pos)];
 506:Drivers/STM32L1xx_HAL_Driver/Src/stm32l1xx_hal_rcc.c **** 
 507:Drivers/STM32L1xx_HAL_Driver/Src/stm32l1xx_hal_rcc.c ****         /* Configure the source of time base considering new system clocks settings*/
 508:Drivers/STM32L1xx_HAL_Driver/Src/stm32l1xx_hal_rcc.c ****         status = HAL_InitTick(uwTickPrio);
 509:Drivers/STM32L1xx_HAL_Driver/Src/stm32l1xx_hal_rcc.c ****         if(status != HAL_OK)
 510:Drivers/STM32L1xx_HAL_Driver/Src/stm32l1xx_hal_rcc.c ****         {
 511:Drivers/STM32L1xx_HAL_Driver/Src/stm32l1xx_hal_rcc.c ****           return status;
 512:Drivers/STM32L1xx_HAL_Driver/Src/stm32l1xx_hal_rcc.c ****         }
 513:Drivers/STM32L1xx_HAL_Driver/Src/stm32l1xx_hal_rcc.c ****       }
 514:Drivers/STM32L1xx_HAL_Driver/Src/stm32l1xx_hal_rcc.c ****     }
 515:Drivers/STM32L1xx_HAL_Driver/Src/stm32l1xx_hal_rcc.c ****     else
 516:Drivers/STM32L1xx_HAL_Driver/Src/stm32l1xx_hal_rcc.c ****     {
 517:Drivers/STM32L1xx_HAL_Driver/Src/stm32l1xx_hal_rcc.c ****       /* Check MSI State */
 518:Drivers/STM32L1xx_HAL_Driver/Src/stm32l1xx_hal_rcc.c ****       assert_param(IS_RCC_MSI(RCC_OscInitStruct->MSIState));
 519:Drivers/STM32L1xx_HAL_Driver/Src/stm32l1xx_hal_rcc.c **** 
 520:Drivers/STM32L1xx_HAL_Driver/Src/stm32l1xx_hal_rcc.c ****       /* Check the MSI State */
 521:Drivers/STM32L1xx_HAL_Driver/Src/stm32l1xx_hal_rcc.c ****       if(RCC_OscInitStruct->MSIState != RCC_MSI_OFF)
 522:Drivers/STM32L1xx_HAL_Driver/Src/stm32l1xx_hal_rcc.c ****       {
 523:Drivers/STM32L1xx_HAL_Driver/Src/stm32l1xx_hal_rcc.c ****         /* Enable the Multi Speed oscillator (MSI). */
 524:Drivers/STM32L1xx_HAL_Driver/Src/stm32l1xx_hal_rcc.c ****         __HAL_RCC_MSI_ENABLE();
 525:Drivers/STM32L1xx_HAL_Driver/Src/stm32l1xx_hal_rcc.c **** 
 526:Drivers/STM32L1xx_HAL_Driver/Src/stm32l1xx_hal_rcc.c ****         /* Get Start Tick */
 527:Drivers/STM32L1xx_HAL_Driver/Src/stm32l1xx_hal_rcc.c ****         tickstart = HAL_GetTick();
 528:Drivers/STM32L1xx_HAL_Driver/Src/stm32l1xx_hal_rcc.c **** 
 529:Drivers/STM32L1xx_HAL_Driver/Src/stm32l1xx_hal_rcc.c ****         /* Wait till MSI is ready */
 530:Drivers/STM32L1xx_HAL_Driver/Src/stm32l1xx_hal_rcc.c ****         while(__HAL_RCC_GET_FLAG(RCC_FLAG_MSIRDY) == 0U)
 531:Drivers/STM32L1xx_HAL_Driver/Src/stm32l1xx_hal_rcc.c ****         {
 532:Drivers/STM32L1xx_HAL_Driver/Src/stm32l1xx_hal_rcc.c ****           if((HAL_GetTick() - tickstart) > MSI_TIMEOUT_VALUE)
 533:Drivers/STM32L1xx_HAL_Driver/Src/stm32l1xx_hal_rcc.c ****           {
 534:Drivers/STM32L1xx_HAL_Driver/Src/stm32l1xx_hal_rcc.c ****             return HAL_TIMEOUT;
 535:Drivers/STM32L1xx_HAL_Driver/Src/stm32l1xx_hal_rcc.c ****           }
 536:Drivers/STM32L1xx_HAL_Driver/Src/stm32l1xx_hal_rcc.c ****         }
 537:Drivers/STM32L1xx_HAL_Driver/Src/stm32l1xx_hal_rcc.c ****         /* Check MSICalibrationValue and MSIClockRange input parameters */
 538:Drivers/STM32L1xx_HAL_Driver/Src/stm32l1xx_hal_rcc.c ****         assert_param(IS_RCC_MSICALIBRATION_VALUE(RCC_OscInitStruct->MSICalibrationValue));
 539:Drivers/STM32L1xx_HAL_Driver/Src/stm32l1xx_hal_rcc.c ****         assert_param(IS_RCC_MSI_CLOCK_RANGE(RCC_OscInitStruct->MSIClockRange));
 540:Drivers/STM32L1xx_HAL_Driver/Src/stm32l1xx_hal_rcc.c **** 
 541:Drivers/STM32L1xx_HAL_Driver/Src/stm32l1xx_hal_rcc.c ****         /* Selects the Multiple Speed oscillator (MSI) clock range .*/
 542:Drivers/STM32L1xx_HAL_Driver/Src/stm32l1xx_hal_rcc.c ****         __HAL_RCC_MSI_RANGE_CONFIG(RCC_OscInitStruct->MSIClockRange);
 543:Drivers/STM32L1xx_HAL_Driver/Src/stm32l1xx_hal_rcc.c ****          /* Adjusts the Multiple Speed oscillator (MSI) calibration value.*/
 544:Drivers/STM32L1xx_HAL_Driver/Src/stm32l1xx_hal_rcc.c ****         __HAL_RCC_MSI_CALIBRATIONVALUE_ADJUST(RCC_OscInitStruct->MSICalibrationValue);
 545:Drivers/STM32L1xx_HAL_Driver/Src/stm32l1xx_hal_rcc.c **** 
ARM GAS  /tmp/ccoCXvoW.s 			page 11


 546:Drivers/STM32L1xx_HAL_Driver/Src/stm32l1xx_hal_rcc.c ****       }
 547:Drivers/STM32L1xx_HAL_Driver/Src/stm32l1xx_hal_rcc.c ****       else
 548:Drivers/STM32L1xx_HAL_Driver/Src/stm32l1xx_hal_rcc.c ****       {
 549:Drivers/STM32L1xx_HAL_Driver/Src/stm32l1xx_hal_rcc.c ****         /* Disable the Multi Speed oscillator (MSI). */
 550:Drivers/STM32L1xx_HAL_Driver/Src/stm32l1xx_hal_rcc.c ****         __HAL_RCC_MSI_DISABLE();
 551:Drivers/STM32L1xx_HAL_Driver/Src/stm32l1xx_hal_rcc.c **** 
 552:Drivers/STM32L1xx_HAL_Driver/Src/stm32l1xx_hal_rcc.c ****         /* Get Start Tick */
 553:Drivers/STM32L1xx_HAL_Driver/Src/stm32l1xx_hal_rcc.c ****         tickstart = HAL_GetTick();
 554:Drivers/STM32L1xx_HAL_Driver/Src/stm32l1xx_hal_rcc.c **** 
 555:Drivers/STM32L1xx_HAL_Driver/Src/stm32l1xx_hal_rcc.c ****         /* Wait till MSI is ready */
 556:Drivers/STM32L1xx_HAL_Driver/Src/stm32l1xx_hal_rcc.c ****         while(__HAL_RCC_GET_FLAG(RCC_FLAG_MSIRDY) != 0U)
 557:Drivers/STM32L1xx_HAL_Driver/Src/stm32l1xx_hal_rcc.c ****         {
 558:Drivers/STM32L1xx_HAL_Driver/Src/stm32l1xx_hal_rcc.c ****           if((HAL_GetTick() - tickstart) > MSI_TIMEOUT_VALUE)
 559:Drivers/STM32L1xx_HAL_Driver/Src/stm32l1xx_hal_rcc.c ****           {
 560:Drivers/STM32L1xx_HAL_Driver/Src/stm32l1xx_hal_rcc.c ****             return HAL_TIMEOUT;
 561:Drivers/STM32L1xx_HAL_Driver/Src/stm32l1xx_hal_rcc.c ****           }
 562:Drivers/STM32L1xx_HAL_Driver/Src/stm32l1xx_hal_rcc.c ****         }
 563:Drivers/STM32L1xx_HAL_Driver/Src/stm32l1xx_hal_rcc.c ****       }
 564:Drivers/STM32L1xx_HAL_Driver/Src/stm32l1xx_hal_rcc.c ****     }
 565:Drivers/STM32L1xx_HAL_Driver/Src/stm32l1xx_hal_rcc.c ****   }
 566:Drivers/STM32L1xx_HAL_Driver/Src/stm32l1xx_hal_rcc.c ****   /*------------------------------ LSI Configuration -------------------------*/
 567:Drivers/STM32L1xx_HAL_Driver/Src/stm32l1xx_hal_rcc.c ****   if(((RCC_OscInitStruct->OscillatorType) & RCC_OSCILLATORTYPE_LSI) == RCC_OSCILLATORTYPE_LSI)
 568:Drivers/STM32L1xx_HAL_Driver/Src/stm32l1xx_hal_rcc.c ****   {
 569:Drivers/STM32L1xx_HAL_Driver/Src/stm32l1xx_hal_rcc.c ****     /* Check the parameters */
 570:Drivers/STM32L1xx_HAL_Driver/Src/stm32l1xx_hal_rcc.c ****     assert_param(IS_RCC_LSI(RCC_OscInitStruct->LSIState));
 571:Drivers/STM32L1xx_HAL_Driver/Src/stm32l1xx_hal_rcc.c **** 
 572:Drivers/STM32L1xx_HAL_Driver/Src/stm32l1xx_hal_rcc.c ****     /* Check the LSI State */
 573:Drivers/STM32L1xx_HAL_Driver/Src/stm32l1xx_hal_rcc.c ****     if(RCC_OscInitStruct->LSIState != RCC_LSI_OFF)
 574:Drivers/STM32L1xx_HAL_Driver/Src/stm32l1xx_hal_rcc.c ****     {
 575:Drivers/STM32L1xx_HAL_Driver/Src/stm32l1xx_hal_rcc.c ****       /* Enable the Internal Low Speed oscillator (LSI). */
 576:Drivers/STM32L1xx_HAL_Driver/Src/stm32l1xx_hal_rcc.c ****       __HAL_RCC_LSI_ENABLE();
 577:Drivers/STM32L1xx_HAL_Driver/Src/stm32l1xx_hal_rcc.c **** 
 578:Drivers/STM32L1xx_HAL_Driver/Src/stm32l1xx_hal_rcc.c ****       /* Get Start Tick */
 579:Drivers/STM32L1xx_HAL_Driver/Src/stm32l1xx_hal_rcc.c ****       tickstart = HAL_GetTick();
 580:Drivers/STM32L1xx_HAL_Driver/Src/stm32l1xx_hal_rcc.c **** 
 581:Drivers/STM32L1xx_HAL_Driver/Src/stm32l1xx_hal_rcc.c ****       /* Wait till LSI is ready */
 582:Drivers/STM32L1xx_HAL_Driver/Src/stm32l1xx_hal_rcc.c ****       while(__HAL_RCC_GET_FLAG(RCC_FLAG_LSIRDY) == 0U)
 583:Drivers/STM32L1xx_HAL_Driver/Src/stm32l1xx_hal_rcc.c ****       {
 584:Drivers/STM32L1xx_HAL_Driver/Src/stm32l1xx_hal_rcc.c ****         if((HAL_GetTick() - tickstart ) > LSI_TIMEOUT_VALUE)
 585:Drivers/STM32L1xx_HAL_Driver/Src/stm32l1xx_hal_rcc.c ****         {
 586:Drivers/STM32L1xx_HAL_Driver/Src/stm32l1xx_hal_rcc.c ****           return HAL_TIMEOUT;
 587:Drivers/STM32L1xx_HAL_Driver/Src/stm32l1xx_hal_rcc.c ****         }
 588:Drivers/STM32L1xx_HAL_Driver/Src/stm32l1xx_hal_rcc.c ****       }
 589:Drivers/STM32L1xx_HAL_Driver/Src/stm32l1xx_hal_rcc.c ****     }
 590:Drivers/STM32L1xx_HAL_Driver/Src/stm32l1xx_hal_rcc.c ****     else
 591:Drivers/STM32L1xx_HAL_Driver/Src/stm32l1xx_hal_rcc.c ****     {
 592:Drivers/STM32L1xx_HAL_Driver/Src/stm32l1xx_hal_rcc.c ****       /* Disable the Internal Low Speed oscillator (LSI). */
 593:Drivers/STM32L1xx_HAL_Driver/Src/stm32l1xx_hal_rcc.c ****       __HAL_RCC_LSI_DISABLE();
 594:Drivers/STM32L1xx_HAL_Driver/Src/stm32l1xx_hal_rcc.c **** 
 595:Drivers/STM32L1xx_HAL_Driver/Src/stm32l1xx_hal_rcc.c ****       /* Get Start Tick */
 596:Drivers/STM32L1xx_HAL_Driver/Src/stm32l1xx_hal_rcc.c ****       tickstart = HAL_GetTick();
 597:Drivers/STM32L1xx_HAL_Driver/Src/stm32l1xx_hal_rcc.c **** 
 598:Drivers/STM32L1xx_HAL_Driver/Src/stm32l1xx_hal_rcc.c ****       /* Wait till LSI is disabled */
 599:Drivers/STM32L1xx_HAL_Driver/Src/stm32l1xx_hal_rcc.c ****       while(__HAL_RCC_GET_FLAG(RCC_FLAG_LSIRDY) != 0U)
 600:Drivers/STM32L1xx_HAL_Driver/Src/stm32l1xx_hal_rcc.c ****       {
 601:Drivers/STM32L1xx_HAL_Driver/Src/stm32l1xx_hal_rcc.c ****         if((HAL_GetTick() - tickstart ) > LSI_TIMEOUT_VALUE)
 602:Drivers/STM32L1xx_HAL_Driver/Src/stm32l1xx_hal_rcc.c ****         {
ARM GAS  /tmp/ccoCXvoW.s 			page 12


 603:Drivers/STM32L1xx_HAL_Driver/Src/stm32l1xx_hal_rcc.c ****           return HAL_TIMEOUT;
 604:Drivers/STM32L1xx_HAL_Driver/Src/stm32l1xx_hal_rcc.c ****         }
 605:Drivers/STM32L1xx_HAL_Driver/Src/stm32l1xx_hal_rcc.c ****       }
 606:Drivers/STM32L1xx_HAL_Driver/Src/stm32l1xx_hal_rcc.c ****     }
 607:Drivers/STM32L1xx_HAL_Driver/Src/stm32l1xx_hal_rcc.c ****   }
 608:Drivers/STM32L1xx_HAL_Driver/Src/stm32l1xx_hal_rcc.c ****   /*------------------------------ LSE Configuration -------------------------*/
 609:Drivers/STM32L1xx_HAL_Driver/Src/stm32l1xx_hal_rcc.c ****   if(((RCC_OscInitStruct->OscillatorType) & RCC_OSCILLATORTYPE_LSE) == RCC_OSCILLATORTYPE_LSE)
 610:Drivers/STM32L1xx_HAL_Driver/Src/stm32l1xx_hal_rcc.c ****   {
 611:Drivers/STM32L1xx_HAL_Driver/Src/stm32l1xx_hal_rcc.c ****     FlagStatus       pwrclkchanged = RESET;
 612:Drivers/STM32L1xx_HAL_Driver/Src/stm32l1xx_hal_rcc.c **** 
 613:Drivers/STM32L1xx_HAL_Driver/Src/stm32l1xx_hal_rcc.c ****     /* Check the parameters */
 614:Drivers/STM32L1xx_HAL_Driver/Src/stm32l1xx_hal_rcc.c ****     assert_param(IS_RCC_LSE(RCC_OscInitStruct->LSEState));
 615:Drivers/STM32L1xx_HAL_Driver/Src/stm32l1xx_hal_rcc.c **** 
 616:Drivers/STM32L1xx_HAL_Driver/Src/stm32l1xx_hal_rcc.c ****     /* Update LSE configuration in Backup Domain control register    */
 617:Drivers/STM32L1xx_HAL_Driver/Src/stm32l1xx_hal_rcc.c ****     /* Requires to enable write access to Backup Domain of necessary */
 618:Drivers/STM32L1xx_HAL_Driver/Src/stm32l1xx_hal_rcc.c ****     if(__HAL_RCC_PWR_IS_CLK_DISABLED())
 619:Drivers/STM32L1xx_HAL_Driver/Src/stm32l1xx_hal_rcc.c ****     {
 620:Drivers/STM32L1xx_HAL_Driver/Src/stm32l1xx_hal_rcc.c ****       __HAL_RCC_PWR_CLK_ENABLE();
 621:Drivers/STM32L1xx_HAL_Driver/Src/stm32l1xx_hal_rcc.c ****       pwrclkchanged = SET;
 622:Drivers/STM32L1xx_HAL_Driver/Src/stm32l1xx_hal_rcc.c ****     }
 623:Drivers/STM32L1xx_HAL_Driver/Src/stm32l1xx_hal_rcc.c **** 
 624:Drivers/STM32L1xx_HAL_Driver/Src/stm32l1xx_hal_rcc.c ****     if(HAL_IS_BIT_CLR(PWR->CR, PWR_CR_DBP))
 625:Drivers/STM32L1xx_HAL_Driver/Src/stm32l1xx_hal_rcc.c ****     {
 626:Drivers/STM32L1xx_HAL_Driver/Src/stm32l1xx_hal_rcc.c ****       /* Enable write access to Backup domain */
 627:Drivers/STM32L1xx_HAL_Driver/Src/stm32l1xx_hal_rcc.c ****       SET_BIT(PWR->CR, PWR_CR_DBP);
 628:Drivers/STM32L1xx_HAL_Driver/Src/stm32l1xx_hal_rcc.c **** 
 629:Drivers/STM32L1xx_HAL_Driver/Src/stm32l1xx_hal_rcc.c ****       /* Wait for Backup domain Write protection disable */
 630:Drivers/STM32L1xx_HAL_Driver/Src/stm32l1xx_hal_rcc.c ****       tickstart = HAL_GetTick();
 631:Drivers/STM32L1xx_HAL_Driver/Src/stm32l1xx_hal_rcc.c **** 
 632:Drivers/STM32L1xx_HAL_Driver/Src/stm32l1xx_hal_rcc.c ****       while(HAL_IS_BIT_CLR(PWR->CR, PWR_CR_DBP))
 633:Drivers/STM32L1xx_HAL_Driver/Src/stm32l1xx_hal_rcc.c ****       {
 634:Drivers/STM32L1xx_HAL_Driver/Src/stm32l1xx_hal_rcc.c ****         if((HAL_GetTick() - tickstart) > RCC_DBP_TIMEOUT_VALUE)
 635:Drivers/STM32L1xx_HAL_Driver/Src/stm32l1xx_hal_rcc.c ****         {
 636:Drivers/STM32L1xx_HAL_Driver/Src/stm32l1xx_hal_rcc.c ****           return HAL_TIMEOUT;
 637:Drivers/STM32L1xx_HAL_Driver/Src/stm32l1xx_hal_rcc.c ****         }
 638:Drivers/STM32L1xx_HAL_Driver/Src/stm32l1xx_hal_rcc.c ****       }
 639:Drivers/STM32L1xx_HAL_Driver/Src/stm32l1xx_hal_rcc.c ****     }
 640:Drivers/STM32L1xx_HAL_Driver/Src/stm32l1xx_hal_rcc.c **** 
 641:Drivers/STM32L1xx_HAL_Driver/Src/stm32l1xx_hal_rcc.c ****     /* Set the new LSE configuration -----------------------------------------*/
 642:Drivers/STM32L1xx_HAL_Driver/Src/stm32l1xx_hal_rcc.c ****     __HAL_RCC_LSE_CONFIG(RCC_OscInitStruct->LSEState);
 643:Drivers/STM32L1xx_HAL_Driver/Src/stm32l1xx_hal_rcc.c ****     /* Check the LSE State */
 644:Drivers/STM32L1xx_HAL_Driver/Src/stm32l1xx_hal_rcc.c ****     if(RCC_OscInitStruct->LSEState != RCC_LSE_OFF)
 645:Drivers/STM32L1xx_HAL_Driver/Src/stm32l1xx_hal_rcc.c ****     {
 646:Drivers/STM32L1xx_HAL_Driver/Src/stm32l1xx_hal_rcc.c ****       /* Get Start Tick */
 647:Drivers/STM32L1xx_HAL_Driver/Src/stm32l1xx_hal_rcc.c ****       tickstart = HAL_GetTick();
 648:Drivers/STM32L1xx_HAL_Driver/Src/stm32l1xx_hal_rcc.c **** 
 649:Drivers/STM32L1xx_HAL_Driver/Src/stm32l1xx_hal_rcc.c ****       /* Wait till LSE is ready */
 650:Drivers/STM32L1xx_HAL_Driver/Src/stm32l1xx_hal_rcc.c ****       while(__HAL_RCC_GET_FLAG(RCC_FLAG_LSERDY) == 0U)
 651:Drivers/STM32L1xx_HAL_Driver/Src/stm32l1xx_hal_rcc.c ****       {
 652:Drivers/STM32L1xx_HAL_Driver/Src/stm32l1xx_hal_rcc.c ****         if((HAL_GetTick() - tickstart ) > RCC_LSE_TIMEOUT_VALUE)
 653:Drivers/STM32L1xx_HAL_Driver/Src/stm32l1xx_hal_rcc.c ****         {
 654:Drivers/STM32L1xx_HAL_Driver/Src/stm32l1xx_hal_rcc.c ****           return HAL_TIMEOUT;
 655:Drivers/STM32L1xx_HAL_Driver/Src/stm32l1xx_hal_rcc.c ****         }
 656:Drivers/STM32L1xx_HAL_Driver/Src/stm32l1xx_hal_rcc.c ****       }
 657:Drivers/STM32L1xx_HAL_Driver/Src/stm32l1xx_hal_rcc.c ****     }
 658:Drivers/STM32L1xx_HAL_Driver/Src/stm32l1xx_hal_rcc.c ****     else
 659:Drivers/STM32L1xx_HAL_Driver/Src/stm32l1xx_hal_rcc.c ****     {
ARM GAS  /tmp/ccoCXvoW.s 			page 13


 660:Drivers/STM32L1xx_HAL_Driver/Src/stm32l1xx_hal_rcc.c ****       /* Get Start Tick */
 661:Drivers/STM32L1xx_HAL_Driver/Src/stm32l1xx_hal_rcc.c ****       tickstart = HAL_GetTick();
 662:Drivers/STM32L1xx_HAL_Driver/Src/stm32l1xx_hal_rcc.c **** 
 663:Drivers/STM32L1xx_HAL_Driver/Src/stm32l1xx_hal_rcc.c ****       /* Wait till LSE is disabled */
 664:Drivers/STM32L1xx_HAL_Driver/Src/stm32l1xx_hal_rcc.c ****       while(__HAL_RCC_GET_FLAG(RCC_FLAG_LSERDY) != 0U)
 665:Drivers/STM32L1xx_HAL_Driver/Src/stm32l1xx_hal_rcc.c ****       {
 666:Drivers/STM32L1xx_HAL_Driver/Src/stm32l1xx_hal_rcc.c ****         if((HAL_GetTick() - tickstart ) > RCC_LSE_TIMEOUT_VALUE)
 667:Drivers/STM32L1xx_HAL_Driver/Src/stm32l1xx_hal_rcc.c ****         {
 668:Drivers/STM32L1xx_HAL_Driver/Src/stm32l1xx_hal_rcc.c ****           return HAL_TIMEOUT;
 669:Drivers/STM32L1xx_HAL_Driver/Src/stm32l1xx_hal_rcc.c ****         }
 670:Drivers/STM32L1xx_HAL_Driver/Src/stm32l1xx_hal_rcc.c ****       }
 671:Drivers/STM32L1xx_HAL_Driver/Src/stm32l1xx_hal_rcc.c ****     }
 672:Drivers/STM32L1xx_HAL_Driver/Src/stm32l1xx_hal_rcc.c **** 
 673:Drivers/STM32L1xx_HAL_Driver/Src/stm32l1xx_hal_rcc.c ****     /* Require to disable power clock if necessary */
 674:Drivers/STM32L1xx_HAL_Driver/Src/stm32l1xx_hal_rcc.c ****     if(pwrclkchanged == SET)
 675:Drivers/STM32L1xx_HAL_Driver/Src/stm32l1xx_hal_rcc.c ****     {
 676:Drivers/STM32L1xx_HAL_Driver/Src/stm32l1xx_hal_rcc.c ****       __HAL_RCC_PWR_CLK_DISABLE();
 677:Drivers/STM32L1xx_HAL_Driver/Src/stm32l1xx_hal_rcc.c ****     }
 678:Drivers/STM32L1xx_HAL_Driver/Src/stm32l1xx_hal_rcc.c ****   }
 679:Drivers/STM32L1xx_HAL_Driver/Src/stm32l1xx_hal_rcc.c **** 
 680:Drivers/STM32L1xx_HAL_Driver/Src/stm32l1xx_hal_rcc.c ****   /*-------------------------------- PLL Configuration -----------------------*/
 681:Drivers/STM32L1xx_HAL_Driver/Src/stm32l1xx_hal_rcc.c ****   /* Check the parameters */
 682:Drivers/STM32L1xx_HAL_Driver/Src/stm32l1xx_hal_rcc.c ****   assert_param(IS_RCC_PLL(RCC_OscInitStruct->PLL.PLLState));
 683:Drivers/STM32L1xx_HAL_Driver/Src/stm32l1xx_hal_rcc.c ****   if ((RCC_OscInitStruct->PLL.PLLState) != RCC_PLL_NONE)
 684:Drivers/STM32L1xx_HAL_Driver/Src/stm32l1xx_hal_rcc.c ****   {
 685:Drivers/STM32L1xx_HAL_Driver/Src/stm32l1xx_hal_rcc.c ****     /* Check if the PLL is used as system clock or not */
 686:Drivers/STM32L1xx_HAL_Driver/Src/stm32l1xx_hal_rcc.c ****     if(sysclk_source != RCC_SYSCLKSOURCE_STATUS_PLLCLK)
 687:Drivers/STM32L1xx_HAL_Driver/Src/stm32l1xx_hal_rcc.c ****     {
 688:Drivers/STM32L1xx_HAL_Driver/Src/stm32l1xx_hal_rcc.c ****       if((RCC_OscInitStruct->PLL.PLLState) == RCC_PLL_ON)
 689:Drivers/STM32L1xx_HAL_Driver/Src/stm32l1xx_hal_rcc.c ****       {
 690:Drivers/STM32L1xx_HAL_Driver/Src/stm32l1xx_hal_rcc.c ****         /* Check the parameters */
 691:Drivers/STM32L1xx_HAL_Driver/Src/stm32l1xx_hal_rcc.c ****         assert_param(IS_RCC_PLLSOURCE(RCC_OscInitStruct->PLL.PLLSource));
 692:Drivers/STM32L1xx_HAL_Driver/Src/stm32l1xx_hal_rcc.c ****         assert_param(IS_RCC_PLL_MUL(RCC_OscInitStruct->PLL.PLLMUL));
 693:Drivers/STM32L1xx_HAL_Driver/Src/stm32l1xx_hal_rcc.c ****         assert_param(IS_RCC_PLL_DIV(RCC_OscInitStruct->PLL.PLLDIV));
 694:Drivers/STM32L1xx_HAL_Driver/Src/stm32l1xx_hal_rcc.c **** 
 695:Drivers/STM32L1xx_HAL_Driver/Src/stm32l1xx_hal_rcc.c ****         /* Disable the main PLL. */
 696:Drivers/STM32L1xx_HAL_Driver/Src/stm32l1xx_hal_rcc.c ****         __HAL_RCC_PLL_DISABLE();
 697:Drivers/STM32L1xx_HAL_Driver/Src/stm32l1xx_hal_rcc.c **** 
 698:Drivers/STM32L1xx_HAL_Driver/Src/stm32l1xx_hal_rcc.c ****         /* Get Start Tick */
 699:Drivers/STM32L1xx_HAL_Driver/Src/stm32l1xx_hal_rcc.c ****         tickstart = HAL_GetTick();
 700:Drivers/STM32L1xx_HAL_Driver/Src/stm32l1xx_hal_rcc.c **** 
 701:Drivers/STM32L1xx_HAL_Driver/Src/stm32l1xx_hal_rcc.c ****         /* Wait till PLL is disabled */
 702:Drivers/STM32L1xx_HAL_Driver/Src/stm32l1xx_hal_rcc.c ****         while(__HAL_RCC_GET_FLAG(RCC_FLAG_PLLRDY) != 0U)
 703:Drivers/STM32L1xx_HAL_Driver/Src/stm32l1xx_hal_rcc.c ****         {
 704:Drivers/STM32L1xx_HAL_Driver/Src/stm32l1xx_hal_rcc.c ****           if((HAL_GetTick() - tickstart ) > PLL_TIMEOUT_VALUE)
 705:Drivers/STM32L1xx_HAL_Driver/Src/stm32l1xx_hal_rcc.c ****           {
 706:Drivers/STM32L1xx_HAL_Driver/Src/stm32l1xx_hal_rcc.c ****             return HAL_TIMEOUT;
 707:Drivers/STM32L1xx_HAL_Driver/Src/stm32l1xx_hal_rcc.c ****           }
 708:Drivers/STM32L1xx_HAL_Driver/Src/stm32l1xx_hal_rcc.c ****         }
 709:Drivers/STM32L1xx_HAL_Driver/Src/stm32l1xx_hal_rcc.c **** 
 710:Drivers/STM32L1xx_HAL_Driver/Src/stm32l1xx_hal_rcc.c ****         /* Configure the main PLL clock source, multiplication and division factors. */
 711:Drivers/STM32L1xx_HAL_Driver/Src/stm32l1xx_hal_rcc.c ****         __HAL_RCC_PLL_CONFIG(RCC_OscInitStruct->PLL.PLLSource,
 712:Drivers/STM32L1xx_HAL_Driver/Src/stm32l1xx_hal_rcc.c ****                              RCC_OscInitStruct->PLL.PLLMUL,
 713:Drivers/STM32L1xx_HAL_Driver/Src/stm32l1xx_hal_rcc.c ****                              RCC_OscInitStruct->PLL.PLLDIV);
 714:Drivers/STM32L1xx_HAL_Driver/Src/stm32l1xx_hal_rcc.c ****         /* Enable the main PLL. */
 715:Drivers/STM32L1xx_HAL_Driver/Src/stm32l1xx_hal_rcc.c ****         __HAL_RCC_PLL_ENABLE();
 716:Drivers/STM32L1xx_HAL_Driver/Src/stm32l1xx_hal_rcc.c **** 
ARM GAS  /tmp/ccoCXvoW.s 			page 14


 717:Drivers/STM32L1xx_HAL_Driver/Src/stm32l1xx_hal_rcc.c ****         /* Get Start Tick */
 718:Drivers/STM32L1xx_HAL_Driver/Src/stm32l1xx_hal_rcc.c ****         tickstart = HAL_GetTick();
 719:Drivers/STM32L1xx_HAL_Driver/Src/stm32l1xx_hal_rcc.c **** 
 720:Drivers/STM32L1xx_HAL_Driver/Src/stm32l1xx_hal_rcc.c ****         /* Wait till PLL is ready */
 721:Drivers/STM32L1xx_HAL_Driver/Src/stm32l1xx_hal_rcc.c ****         while(__HAL_RCC_GET_FLAG(RCC_FLAG_PLLRDY) == 0U)
 722:Drivers/STM32L1xx_HAL_Driver/Src/stm32l1xx_hal_rcc.c ****         {
 723:Drivers/STM32L1xx_HAL_Driver/Src/stm32l1xx_hal_rcc.c ****           if((HAL_GetTick() - tickstart ) > PLL_TIMEOUT_VALUE)
 724:Drivers/STM32L1xx_HAL_Driver/Src/stm32l1xx_hal_rcc.c ****           {
 725:Drivers/STM32L1xx_HAL_Driver/Src/stm32l1xx_hal_rcc.c ****             return HAL_TIMEOUT;
 726:Drivers/STM32L1xx_HAL_Driver/Src/stm32l1xx_hal_rcc.c ****           }
 727:Drivers/STM32L1xx_HAL_Driver/Src/stm32l1xx_hal_rcc.c ****         }
 728:Drivers/STM32L1xx_HAL_Driver/Src/stm32l1xx_hal_rcc.c ****       }
 729:Drivers/STM32L1xx_HAL_Driver/Src/stm32l1xx_hal_rcc.c ****       else
 730:Drivers/STM32L1xx_HAL_Driver/Src/stm32l1xx_hal_rcc.c ****       {
 731:Drivers/STM32L1xx_HAL_Driver/Src/stm32l1xx_hal_rcc.c ****         /* Disable the main PLL. */
 732:Drivers/STM32L1xx_HAL_Driver/Src/stm32l1xx_hal_rcc.c ****         __HAL_RCC_PLL_DISABLE();
 733:Drivers/STM32L1xx_HAL_Driver/Src/stm32l1xx_hal_rcc.c **** 
 734:Drivers/STM32L1xx_HAL_Driver/Src/stm32l1xx_hal_rcc.c ****         /* Get Start Tick */
 735:Drivers/STM32L1xx_HAL_Driver/Src/stm32l1xx_hal_rcc.c ****         tickstart = HAL_GetTick();
 736:Drivers/STM32L1xx_HAL_Driver/Src/stm32l1xx_hal_rcc.c **** 
 737:Drivers/STM32L1xx_HAL_Driver/Src/stm32l1xx_hal_rcc.c ****         /* Wait till PLL is disabled */
 738:Drivers/STM32L1xx_HAL_Driver/Src/stm32l1xx_hal_rcc.c ****         while(__HAL_RCC_GET_FLAG(RCC_FLAG_PLLRDY) != 0U)
 739:Drivers/STM32L1xx_HAL_Driver/Src/stm32l1xx_hal_rcc.c ****         {
 740:Drivers/STM32L1xx_HAL_Driver/Src/stm32l1xx_hal_rcc.c ****           if((HAL_GetTick() - tickstart ) > PLL_TIMEOUT_VALUE)
 741:Drivers/STM32L1xx_HAL_Driver/Src/stm32l1xx_hal_rcc.c ****           {
 742:Drivers/STM32L1xx_HAL_Driver/Src/stm32l1xx_hal_rcc.c ****             return HAL_TIMEOUT;
 743:Drivers/STM32L1xx_HAL_Driver/Src/stm32l1xx_hal_rcc.c ****           }
 744:Drivers/STM32L1xx_HAL_Driver/Src/stm32l1xx_hal_rcc.c ****         }
 745:Drivers/STM32L1xx_HAL_Driver/Src/stm32l1xx_hal_rcc.c ****       }
 746:Drivers/STM32L1xx_HAL_Driver/Src/stm32l1xx_hal_rcc.c ****     }
 747:Drivers/STM32L1xx_HAL_Driver/Src/stm32l1xx_hal_rcc.c ****     else
 748:Drivers/STM32L1xx_HAL_Driver/Src/stm32l1xx_hal_rcc.c ****     {
 749:Drivers/STM32L1xx_HAL_Driver/Src/stm32l1xx_hal_rcc.c ****       /* Check if there is a request to disable the PLL used as System clock source */
 750:Drivers/STM32L1xx_HAL_Driver/Src/stm32l1xx_hal_rcc.c ****       if((RCC_OscInitStruct->PLL.PLLState) == RCC_PLL_OFF)
 751:Drivers/STM32L1xx_HAL_Driver/Src/stm32l1xx_hal_rcc.c ****       {
 752:Drivers/STM32L1xx_HAL_Driver/Src/stm32l1xx_hal_rcc.c ****         return HAL_ERROR;
 753:Drivers/STM32L1xx_HAL_Driver/Src/stm32l1xx_hal_rcc.c ****       }
 754:Drivers/STM32L1xx_HAL_Driver/Src/stm32l1xx_hal_rcc.c ****       else
 755:Drivers/STM32L1xx_HAL_Driver/Src/stm32l1xx_hal_rcc.c ****       {
 756:Drivers/STM32L1xx_HAL_Driver/Src/stm32l1xx_hal_rcc.c ****         /* Do not return HAL_ERROR if request repeats the current configuration */
 757:Drivers/STM32L1xx_HAL_Driver/Src/stm32l1xx_hal_rcc.c ****         pll_config = RCC->CFGR;
 758:Drivers/STM32L1xx_HAL_Driver/Src/stm32l1xx_hal_rcc.c ****         if((READ_BIT(pll_config, RCC_CFGR_PLLSRC) != RCC_OscInitStruct->PLL.PLLSource) ||
 759:Drivers/STM32L1xx_HAL_Driver/Src/stm32l1xx_hal_rcc.c ****            (READ_BIT(pll_config, RCC_CFGR_PLLMUL) != RCC_OscInitStruct->PLL.PLLMUL) ||
 760:Drivers/STM32L1xx_HAL_Driver/Src/stm32l1xx_hal_rcc.c ****            (READ_BIT(pll_config, RCC_CFGR_PLLDIV) != RCC_OscInitStruct->PLL.PLLDIV))
 761:Drivers/STM32L1xx_HAL_Driver/Src/stm32l1xx_hal_rcc.c ****         {
 762:Drivers/STM32L1xx_HAL_Driver/Src/stm32l1xx_hal_rcc.c ****           return HAL_ERROR;
 763:Drivers/STM32L1xx_HAL_Driver/Src/stm32l1xx_hal_rcc.c ****         }
 764:Drivers/STM32L1xx_HAL_Driver/Src/stm32l1xx_hal_rcc.c ****       }
 765:Drivers/STM32L1xx_HAL_Driver/Src/stm32l1xx_hal_rcc.c ****     }
 766:Drivers/STM32L1xx_HAL_Driver/Src/stm32l1xx_hal_rcc.c ****   }
 767:Drivers/STM32L1xx_HAL_Driver/Src/stm32l1xx_hal_rcc.c **** 
 768:Drivers/STM32L1xx_HAL_Driver/Src/stm32l1xx_hal_rcc.c ****   return HAL_OK;
 769:Drivers/STM32L1xx_HAL_Driver/Src/stm32l1xx_hal_rcc.c **** }
 770:Drivers/STM32L1xx_HAL_Driver/Src/stm32l1xx_hal_rcc.c **** 
 771:Drivers/STM32L1xx_HAL_Driver/Src/stm32l1xx_hal_rcc.c **** /**
 772:Drivers/STM32L1xx_HAL_Driver/Src/stm32l1xx_hal_rcc.c ****   * @brief  Initializes the CPU, AHB and APB buses clocks according to the specified
 773:Drivers/STM32L1xx_HAL_Driver/Src/stm32l1xx_hal_rcc.c ****   *         parameters in the RCC_ClkInitStruct.
ARM GAS  /tmp/ccoCXvoW.s 			page 15


 774:Drivers/STM32L1xx_HAL_Driver/Src/stm32l1xx_hal_rcc.c ****   * @param  RCC_ClkInitStruct pointer to an RCC_OscInitTypeDef structure that
 775:Drivers/STM32L1xx_HAL_Driver/Src/stm32l1xx_hal_rcc.c ****   *         contains the configuration information for the RCC peripheral.
 776:Drivers/STM32L1xx_HAL_Driver/Src/stm32l1xx_hal_rcc.c ****   * @param  FLatency FLASH Latency
 777:Drivers/STM32L1xx_HAL_Driver/Src/stm32l1xx_hal_rcc.c ****   *          The value of this parameter depend on device used within the same series
 778:Drivers/STM32L1xx_HAL_Driver/Src/stm32l1xx_hal_rcc.c ****   * @note   The SystemCoreClock CMSIS variable is used to store System Clock Frequency
 779:Drivers/STM32L1xx_HAL_Driver/Src/stm32l1xx_hal_rcc.c ****   *         and updated by @ref HAL_RCC_GetHCLKFreq() function called within this function
 780:Drivers/STM32L1xx_HAL_Driver/Src/stm32l1xx_hal_rcc.c ****   *
 781:Drivers/STM32L1xx_HAL_Driver/Src/stm32l1xx_hal_rcc.c ****   * @note   The MSI is used (enabled by hardware) as system clock source after
 782:Drivers/STM32L1xx_HAL_Driver/Src/stm32l1xx_hal_rcc.c ****   *         start-up from Reset, wake-up from STOP and STANDBY mode, or in case
 783:Drivers/STM32L1xx_HAL_Driver/Src/stm32l1xx_hal_rcc.c ****   *         of failure of the HSE used directly or indirectly as system clock
 784:Drivers/STM32L1xx_HAL_Driver/Src/stm32l1xx_hal_rcc.c ****   *         (if the Clock Security System CSS is enabled).
 785:Drivers/STM32L1xx_HAL_Driver/Src/stm32l1xx_hal_rcc.c ****   *
 786:Drivers/STM32L1xx_HAL_Driver/Src/stm32l1xx_hal_rcc.c ****   * @note   A switch from one clock source to another occurs only if the target
 787:Drivers/STM32L1xx_HAL_Driver/Src/stm32l1xx_hal_rcc.c ****   *         clock source is ready (clock stable after start-up delay or PLL locked).
 788:Drivers/STM32L1xx_HAL_Driver/Src/stm32l1xx_hal_rcc.c ****   *         If a clock source which is not yet ready is selected, the switch will
 789:Drivers/STM32L1xx_HAL_Driver/Src/stm32l1xx_hal_rcc.c ****   *         occur when the clock source will be ready.
 790:Drivers/STM32L1xx_HAL_Driver/Src/stm32l1xx_hal_rcc.c ****   *         You can use @ref HAL_RCC_GetClockConfig() function to know which clock is
 791:Drivers/STM32L1xx_HAL_Driver/Src/stm32l1xx_hal_rcc.c ****   *         currently used as system clock source.
 792:Drivers/STM32L1xx_HAL_Driver/Src/stm32l1xx_hal_rcc.c ****   * @note   Depending on the device voltage range, the software has to set correctly
 793:Drivers/STM32L1xx_HAL_Driver/Src/stm32l1xx_hal_rcc.c ****   *         HPRE[3:0] bits to ensure that HCLK not exceed the maximum allowed frequency
 794:Drivers/STM32L1xx_HAL_Driver/Src/stm32l1xx_hal_rcc.c ****   *         (for more details refer to section above "Initialization/de-initialization functions")
 795:Drivers/STM32L1xx_HAL_Driver/Src/stm32l1xx_hal_rcc.c ****   * @retval HAL status
 796:Drivers/STM32L1xx_HAL_Driver/Src/stm32l1xx_hal_rcc.c ****   */
 797:Drivers/STM32L1xx_HAL_Driver/Src/stm32l1xx_hal_rcc.c **** HAL_StatusTypeDef HAL_RCC_ClockConfig(RCC_ClkInitTypeDef  *RCC_ClkInitStruct, uint32_t FLatency)
 798:Drivers/STM32L1xx_HAL_Driver/Src/stm32l1xx_hal_rcc.c **** {
 799:Drivers/STM32L1xx_HAL_Driver/Src/stm32l1xx_hal_rcc.c ****   uint32_t tickstart;
 800:Drivers/STM32L1xx_HAL_Driver/Src/stm32l1xx_hal_rcc.c ****   HAL_StatusTypeDef status;
 801:Drivers/STM32L1xx_HAL_Driver/Src/stm32l1xx_hal_rcc.c **** 
 802:Drivers/STM32L1xx_HAL_Driver/Src/stm32l1xx_hal_rcc.c ****   /* Check the parameters */
 803:Drivers/STM32L1xx_HAL_Driver/Src/stm32l1xx_hal_rcc.c ****   if(RCC_ClkInitStruct == NULL)
 804:Drivers/STM32L1xx_HAL_Driver/Src/stm32l1xx_hal_rcc.c ****   {
 805:Drivers/STM32L1xx_HAL_Driver/Src/stm32l1xx_hal_rcc.c ****     return HAL_ERROR;
 806:Drivers/STM32L1xx_HAL_Driver/Src/stm32l1xx_hal_rcc.c ****   }
 807:Drivers/STM32L1xx_HAL_Driver/Src/stm32l1xx_hal_rcc.c **** 
 808:Drivers/STM32L1xx_HAL_Driver/Src/stm32l1xx_hal_rcc.c ****   assert_param(IS_FLASH_LATENCY(FLatency));
 809:Drivers/STM32L1xx_HAL_Driver/Src/stm32l1xx_hal_rcc.c **** 
 810:Drivers/STM32L1xx_HAL_Driver/Src/stm32l1xx_hal_rcc.c ****   /* To correctly read data from FLASH memory, the number of wait states (LATENCY)
 811:Drivers/STM32L1xx_HAL_Driver/Src/stm32l1xx_hal_rcc.c ****   must be correctly programmed according to the frequency of the CPU clock
 812:Drivers/STM32L1xx_HAL_Driver/Src/stm32l1xx_hal_rcc.c ****   (HCLK) and the supply voltage of the device. */
 813:Drivers/STM32L1xx_HAL_Driver/Src/stm32l1xx_hal_rcc.c **** 
 814:Drivers/STM32L1xx_HAL_Driver/Src/stm32l1xx_hal_rcc.c ****   /* Increasing the number of wait states because of higher CPU frequency */
 815:Drivers/STM32L1xx_HAL_Driver/Src/stm32l1xx_hal_rcc.c ****   if(FLatency > __HAL_FLASH_GET_LATENCY())
 816:Drivers/STM32L1xx_HAL_Driver/Src/stm32l1xx_hal_rcc.c ****   {
 817:Drivers/STM32L1xx_HAL_Driver/Src/stm32l1xx_hal_rcc.c ****     /* Program the new number of wait states to the LATENCY bits in the FLASH_ACR register */
 818:Drivers/STM32L1xx_HAL_Driver/Src/stm32l1xx_hal_rcc.c ****     __HAL_FLASH_SET_LATENCY(FLatency);
 819:Drivers/STM32L1xx_HAL_Driver/Src/stm32l1xx_hal_rcc.c **** 
 820:Drivers/STM32L1xx_HAL_Driver/Src/stm32l1xx_hal_rcc.c ****     /* Check that the new number of wait states is taken into account to access the Flash
 821:Drivers/STM32L1xx_HAL_Driver/Src/stm32l1xx_hal_rcc.c ****     memory by reading the FLASH_ACR register */
 822:Drivers/STM32L1xx_HAL_Driver/Src/stm32l1xx_hal_rcc.c ****     if(__HAL_FLASH_GET_LATENCY() != FLatency)
 823:Drivers/STM32L1xx_HAL_Driver/Src/stm32l1xx_hal_rcc.c ****     {
 824:Drivers/STM32L1xx_HAL_Driver/Src/stm32l1xx_hal_rcc.c ****       return HAL_ERROR;
 825:Drivers/STM32L1xx_HAL_Driver/Src/stm32l1xx_hal_rcc.c ****     }
 826:Drivers/STM32L1xx_HAL_Driver/Src/stm32l1xx_hal_rcc.c ****   }
 827:Drivers/STM32L1xx_HAL_Driver/Src/stm32l1xx_hal_rcc.c **** 
 828:Drivers/STM32L1xx_HAL_Driver/Src/stm32l1xx_hal_rcc.c ****   /*-------------------------- HCLK Configuration --------------------------*/
 829:Drivers/STM32L1xx_HAL_Driver/Src/stm32l1xx_hal_rcc.c ****   if(((RCC_ClkInitStruct->ClockType) & RCC_CLOCKTYPE_HCLK) == RCC_CLOCKTYPE_HCLK)
 830:Drivers/STM32L1xx_HAL_Driver/Src/stm32l1xx_hal_rcc.c ****   {
ARM GAS  /tmp/ccoCXvoW.s 			page 16


 831:Drivers/STM32L1xx_HAL_Driver/Src/stm32l1xx_hal_rcc.c ****     assert_param(IS_RCC_HCLK(RCC_ClkInitStruct->AHBCLKDivider));
 832:Drivers/STM32L1xx_HAL_Driver/Src/stm32l1xx_hal_rcc.c ****     MODIFY_REG(RCC->CFGR, RCC_CFGR_HPRE, RCC_ClkInitStruct->AHBCLKDivider);
 833:Drivers/STM32L1xx_HAL_Driver/Src/stm32l1xx_hal_rcc.c ****   }
 834:Drivers/STM32L1xx_HAL_Driver/Src/stm32l1xx_hal_rcc.c **** 
 835:Drivers/STM32L1xx_HAL_Driver/Src/stm32l1xx_hal_rcc.c ****   /*------------------------- SYSCLK Configuration ---------------------------*/
 836:Drivers/STM32L1xx_HAL_Driver/Src/stm32l1xx_hal_rcc.c ****   if(((RCC_ClkInitStruct->ClockType) & RCC_CLOCKTYPE_SYSCLK) == RCC_CLOCKTYPE_SYSCLK)
 837:Drivers/STM32L1xx_HAL_Driver/Src/stm32l1xx_hal_rcc.c ****   {
 838:Drivers/STM32L1xx_HAL_Driver/Src/stm32l1xx_hal_rcc.c ****     assert_param(IS_RCC_SYSCLKSOURCE(RCC_ClkInitStruct->SYSCLKSource));
 839:Drivers/STM32L1xx_HAL_Driver/Src/stm32l1xx_hal_rcc.c **** 
 840:Drivers/STM32L1xx_HAL_Driver/Src/stm32l1xx_hal_rcc.c ****     /* HSE is selected as System Clock Source */
 841:Drivers/STM32L1xx_HAL_Driver/Src/stm32l1xx_hal_rcc.c ****     if(RCC_ClkInitStruct->SYSCLKSource == RCC_SYSCLKSOURCE_HSE)
 842:Drivers/STM32L1xx_HAL_Driver/Src/stm32l1xx_hal_rcc.c ****     {
 843:Drivers/STM32L1xx_HAL_Driver/Src/stm32l1xx_hal_rcc.c ****       /* Check the HSE ready flag */
 844:Drivers/STM32L1xx_HAL_Driver/Src/stm32l1xx_hal_rcc.c ****       if(__HAL_RCC_GET_FLAG(RCC_FLAG_HSERDY) == 0U)
 845:Drivers/STM32L1xx_HAL_Driver/Src/stm32l1xx_hal_rcc.c ****       {
 846:Drivers/STM32L1xx_HAL_Driver/Src/stm32l1xx_hal_rcc.c ****         return HAL_ERROR;
 847:Drivers/STM32L1xx_HAL_Driver/Src/stm32l1xx_hal_rcc.c ****       }
 848:Drivers/STM32L1xx_HAL_Driver/Src/stm32l1xx_hal_rcc.c ****     }
 849:Drivers/STM32L1xx_HAL_Driver/Src/stm32l1xx_hal_rcc.c ****     /* PLL is selected as System Clock Source */
 850:Drivers/STM32L1xx_HAL_Driver/Src/stm32l1xx_hal_rcc.c ****     else if(RCC_ClkInitStruct->SYSCLKSource == RCC_SYSCLKSOURCE_PLLCLK)
 851:Drivers/STM32L1xx_HAL_Driver/Src/stm32l1xx_hal_rcc.c ****     {
 852:Drivers/STM32L1xx_HAL_Driver/Src/stm32l1xx_hal_rcc.c ****       /* Check the PLL ready flag */
 853:Drivers/STM32L1xx_HAL_Driver/Src/stm32l1xx_hal_rcc.c ****       if(__HAL_RCC_GET_FLAG(RCC_FLAG_PLLRDY) == 0U)
 854:Drivers/STM32L1xx_HAL_Driver/Src/stm32l1xx_hal_rcc.c ****       {
 855:Drivers/STM32L1xx_HAL_Driver/Src/stm32l1xx_hal_rcc.c ****         return HAL_ERROR;
 856:Drivers/STM32L1xx_HAL_Driver/Src/stm32l1xx_hal_rcc.c ****       }
 857:Drivers/STM32L1xx_HAL_Driver/Src/stm32l1xx_hal_rcc.c ****     }
 858:Drivers/STM32L1xx_HAL_Driver/Src/stm32l1xx_hal_rcc.c ****     /* HSI is selected as System Clock Source */
 859:Drivers/STM32L1xx_HAL_Driver/Src/stm32l1xx_hal_rcc.c ****     else if(RCC_ClkInitStruct->SYSCLKSource == RCC_SYSCLKSOURCE_HSI)
 860:Drivers/STM32L1xx_HAL_Driver/Src/stm32l1xx_hal_rcc.c ****     {
 861:Drivers/STM32L1xx_HAL_Driver/Src/stm32l1xx_hal_rcc.c ****       /* Check the HSI ready flag */
 862:Drivers/STM32L1xx_HAL_Driver/Src/stm32l1xx_hal_rcc.c ****       if(__HAL_RCC_GET_FLAG(RCC_FLAG_HSIRDY) == 0U)
 863:Drivers/STM32L1xx_HAL_Driver/Src/stm32l1xx_hal_rcc.c ****       {
 864:Drivers/STM32L1xx_HAL_Driver/Src/stm32l1xx_hal_rcc.c ****         return HAL_ERROR;
 865:Drivers/STM32L1xx_HAL_Driver/Src/stm32l1xx_hal_rcc.c ****       }
 866:Drivers/STM32L1xx_HAL_Driver/Src/stm32l1xx_hal_rcc.c ****     }
 867:Drivers/STM32L1xx_HAL_Driver/Src/stm32l1xx_hal_rcc.c ****     /* MSI is selected as System Clock Source */
 868:Drivers/STM32L1xx_HAL_Driver/Src/stm32l1xx_hal_rcc.c ****     else
 869:Drivers/STM32L1xx_HAL_Driver/Src/stm32l1xx_hal_rcc.c ****     {
 870:Drivers/STM32L1xx_HAL_Driver/Src/stm32l1xx_hal_rcc.c ****       /* Check the MSI ready flag */
 871:Drivers/STM32L1xx_HAL_Driver/Src/stm32l1xx_hal_rcc.c ****       if(__HAL_RCC_GET_FLAG(RCC_FLAG_MSIRDY) == 0U)
 872:Drivers/STM32L1xx_HAL_Driver/Src/stm32l1xx_hal_rcc.c ****       {
 873:Drivers/STM32L1xx_HAL_Driver/Src/stm32l1xx_hal_rcc.c ****         return HAL_ERROR;
 874:Drivers/STM32L1xx_HAL_Driver/Src/stm32l1xx_hal_rcc.c ****       }
 875:Drivers/STM32L1xx_HAL_Driver/Src/stm32l1xx_hal_rcc.c ****     }
 876:Drivers/STM32L1xx_HAL_Driver/Src/stm32l1xx_hal_rcc.c ****     __HAL_RCC_SYSCLK_CONFIG(RCC_ClkInitStruct->SYSCLKSource);
 877:Drivers/STM32L1xx_HAL_Driver/Src/stm32l1xx_hal_rcc.c **** 
 878:Drivers/STM32L1xx_HAL_Driver/Src/stm32l1xx_hal_rcc.c ****     /* Get Start Tick */
 879:Drivers/STM32L1xx_HAL_Driver/Src/stm32l1xx_hal_rcc.c ****     tickstart = HAL_GetTick();
 880:Drivers/STM32L1xx_HAL_Driver/Src/stm32l1xx_hal_rcc.c **** 
 881:Drivers/STM32L1xx_HAL_Driver/Src/stm32l1xx_hal_rcc.c ****     if(RCC_ClkInitStruct->SYSCLKSource == RCC_SYSCLKSOURCE_HSE)
 882:Drivers/STM32L1xx_HAL_Driver/Src/stm32l1xx_hal_rcc.c ****     {
 883:Drivers/STM32L1xx_HAL_Driver/Src/stm32l1xx_hal_rcc.c ****       while (__HAL_RCC_GET_SYSCLK_SOURCE() != RCC_SYSCLKSOURCE_STATUS_HSE)
 884:Drivers/STM32L1xx_HAL_Driver/Src/stm32l1xx_hal_rcc.c ****       {
 885:Drivers/STM32L1xx_HAL_Driver/Src/stm32l1xx_hal_rcc.c ****         if((HAL_GetTick() - tickstart ) > CLOCKSWITCH_TIMEOUT_VALUE)
 886:Drivers/STM32L1xx_HAL_Driver/Src/stm32l1xx_hal_rcc.c ****         {
 887:Drivers/STM32L1xx_HAL_Driver/Src/stm32l1xx_hal_rcc.c ****           return HAL_TIMEOUT;
ARM GAS  /tmp/ccoCXvoW.s 			page 17


 888:Drivers/STM32L1xx_HAL_Driver/Src/stm32l1xx_hal_rcc.c ****         }
 889:Drivers/STM32L1xx_HAL_Driver/Src/stm32l1xx_hal_rcc.c ****       }
 890:Drivers/STM32L1xx_HAL_Driver/Src/stm32l1xx_hal_rcc.c ****     }
 891:Drivers/STM32L1xx_HAL_Driver/Src/stm32l1xx_hal_rcc.c ****     else if(RCC_ClkInitStruct->SYSCLKSource == RCC_SYSCLKSOURCE_PLLCLK)
 892:Drivers/STM32L1xx_HAL_Driver/Src/stm32l1xx_hal_rcc.c ****     {
 893:Drivers/STM32L1xx_HAL_Driver/Src/stm32l1xx_hal_rcc.c ****       while (__HAL_RCC_GET_SYSCLK_SOURCE() != RCC_SYSCLKSOURCE_STATUS_PLLCLK)
 894:Drivers/STM32L1xx_HAL_Driver/Src/stm32l1xx_hal_rcc.c ****       {
 895:Drivers/STM32L1xx_HAL_Driver/Src/stm32l1xx_hal_rcc.c ****         if((HAL_GetTick() - tickstart ) > CLOCKSWITCH_TIMEOUT_VALUE)
 896:Drivers/STM32L1xx_HAL_Driver/Src/stm32l1xx_hal_rcc.c ****         {
 897:Drivers/STM32L1xx_HAL_Driver/Src/stm32l1xx_hal_rcc.c ****           return HAL_TIMEOUT;
 898:Drivers/STM32L1xx_HAL_Driver/Src/stm32l1xx_hal_rcc.c ****         }
 899:Drivers/STM32L1xx_HAL_Driver/Src/stm32l1xx_hal_rcc.c ****       }
 900:Drivers/STM32L1xx_HAL_Driver/Src/stm32l1xx_hal_rcc.c ****     }
 901:Drivers/STM32L1xx_HAL_Driver/Src/stm32l1xx_hal_rcc.c ****     else if(RCC_ClkInitStruct->SYSCLKSource == RCC_SYSCLKSOURCE_HSI)
 902:Drivers/STM32L1xx_HAL_Driver/Src/stm32l1xx_hal_rcc.c ****     {
 903:Drivers/STM32L1xx_HAL_Driver/Src/stm32l1xx_hal_rcc.c ****       while (__HAL_RCC_GET_SYSCLK_SOURCE() != RCC_SYSCLKSOURCE_STATUS_HSI)
 904:Drivers/STM32L1xx_HAL_Driver/Src/stm32l1xx_hal_rcc.c ****       {
 905:Drivers/STM32L1xx_HAL_Driver/Src/stm32l1xx_hal_rcc.c ****         if((HAL_GetTick() - tickstart ) > CLOCKSWITCH_TIMEOUT_VALUE)
 906:Drivers/STM32L1xx_HAL_Driver/Src/stm32l1xx_hal_rcc.c ****         {
 907:Drivers/STM32L1xx_HAL_Driver/Src/stm32l1xx_hal_rcc.c ****           return HAL_TIMEOUT;
 908:Drivers/STM32L1xx_HAL_Driver/Src/stm32l1xx_hal_rcc.c ****         }
 909:Drivers/STM32L1xx_HAL_Driver/Src/stm32l1xx_hal_rcc.c ****       }
 910:Drivers/STM32L1xx_HAL_Driver/Src/stm32l1xx_hal_rcc.c ****     }
 911:Drivers/STM32L1xx_HAL_Driver/Src/stm32l1xx_hal_rcc.c ****     else
 912:Drivers/STM32L1xx_HAL_Driver/Src/stm32l1xx_hal_rcc.c ****     {
 913:Drivers/STM32L1xx_HAL_Driver/Src/stm32l1xx_hal_rcc.c ****       while(__HAL_RCC_GET_SYSCLK_SOURCE() != RCC_SYSCLKSOURCE_STATUS_MSI)
 914:Drivers/STM32L1xx_HAL_Driver/Src/stm32l1xx_hal_rcc.c ****       {
 915:Drivers/STM32L1xx_HAL_Driver/Src/stm32l1xx_hal_rcc.c ****         if((HAL_GetTick() - tickstart ) > CLOCKSWITCH_TIMEOUT_VALUE)
 916:Drivers/STM32L1xx_HAL_Driver/Src/stm32l1xx_hal_rcc.c ****         {
 917:Drivers/STM32L1xx_HAL_Driver/Src/stm32l1xx_hal_rcc.c ****           return HAL_TIMEOUT;
 918:Drivers/STM32L1xx_HAL_Driver/Src/stm32l1xx_hal_rcc.c ****         }
 919:Drivers/STM32L1xx_HAL_Driver/Src/stm32l1xx_hal_rcc.c ****       }
 920:Drivers/STM32L1xx_HAL_Driver/Src/stm32l1xx_hal_rcc.c ****     }
 921:Drivers/STM32L1xx_HAL_Driver/Src/stm32l1xx_hal_rcc.c ****   }
 922:Drivers/STM32L1xx_HAL_Driver/Src/stm32l1xx_hal_rcc.c ****   /* Decreasing the number of wait states because of lower CPU frequency */
 923:Drivers/STM32L1xx_HAL_Driver/Src/stm32l1xx_hal_rcc.c ****   if(FLatency < __HAL_FLASH_GET_LATENCY())
 924:Drivers/STM32L1xx_HAL_Driver/Src/stm32l1xx_hal_rcc.c ****   {
 925:Drivers/STM32L1xx_HAL_Driver/Src/stm32l1xx_hal_rcc.c ****     /* Program the new number of wait states to the LATENCY bits in the FLASH_ACR register */
 926:Drivers/STM32L1xx_HAL_Driver/Src/stm32l1xx_hal_rcc.c ****     __HAL_FLASH_SET_LATENCY(FLatency);
 927:Drivers/STM32L1xx_HAL_Driver/Src/stm32l1xx_hal_rcc.c **** 
 928:Drivers/STM32L1xx_HAL_Driver/Src/stm32l1xx_hal_rcc.c ****     /* Check that the new number of wait states is taken into account to access the Flash
 929:Drivers/STM32L1xx_HAL_Driver/Src/stm32l1xx_hal_rcc.c ****     memory by reading the FLASH_ACR register */
 930:Drivers/STM32L1xx_HAL_Driver/Src/stm32l1xx_hal_rcc.c ****     if(__HAL_FLASH_GET_LATENCY() != FLatency)
 931:Drivers/STM32L1xx_HAL_Driver/Src/stm32l1xx_hal_rcc.c ****     {
 932:Drivers/STM32L1xx_HAL_Driver/Src/stm32l1xx_hal_rcc.c ****       return HAL_ERROR;
 933:Drivers/STM32L1xx_HAL_Driver/Src/stm32l1xx_hal_rcc.c ****     }
 934:Drivers/STM32L1xx_HAL_Driver/Src/stm32l1xx_hal_rcc.c ****   }
 935:Drivers/STM32L1xx_HAL_Driver/Src/stm32l1xx_hal_rcc.c **** 
 936:Drivers/STM32L1xx_HAL_Driver/Src/stm32l1xx_hal_rcc.c ****   /*-------------------------- PCLK1 Configuration ---------------------------*/
 937:Drivers/STM32L1xx_HAL_Driver/Src/stm32l1xx_hal_rcc.c ****   if(((RCC_ClkInitStruct->ClockType) & RCC_CLOCKTYPE_PCLK1) == RCC_CLOCKTYPE_PCLK1)
 938:Drivers/STM32L1xx_HAL_Driver/Src/stm32l1xx_hal_rcc.c ****   {
 939:Drivers/STM32L1xx_HAL_Driver/Src/stm32l1xx_hal_rcc.c ****     assert_param(IS_RCC_PCLK(RCC_ClkInitStruct->APB1CLKDivider));
 940:Drivers/STM32L1xx_HAL_Driver/Src/stm32l1xx_hal_rcc.c ****     MODIFY_REG(RCC->CFGR, RCC_CFGR_PPRE1, RCC_ClkInitStruct->APB1CLKDivider);
 941:Drivers/STM32L1xx_HAL_Driver/Src/stm32l1xx_hal_rcc.c ****   }
 942:Drivers/STM32L1xx_HAL_Driver/Src/stm32l1xx_hal_rcc.c **** 
 943:Drivers/STM32L1xx_HAL_Driver/Src/stm32l1xx_hal_rcc.c ****   /*-------------------------- PCLK2 Configuration ---------------------------*/
 944:Drivers/STM32L1xx_HAL_Driver/Src/stm32l1xx_hal_rcc.c ****   if(((RCC_ClkInitStruct->ClockType) & RCC_CLOCKTYPE_PCLK2) == RCC_CLOCKTYPE_PCLK2)
ARM GAS  /tmp/ccoCXvoW.s 			page 18


 945:Drivers/STM32L1xx_HAL_Driver/Src/stm32l1xx_hal_rcc.c ****   {
 946:Drivers/STM32L1xx_HAL_Driver/Src/stm32l1xx_hal_rcc.c ****     assert_param(IS_RCC_PCLK(RCC_ClkInitStruct->APB2CLKDivider));
 947:Drivers/STM32L1xx_HAL_Driver/Src/stm32l1xx_hal_rcc.c ****     MODIFY_REG(RCC->CFGR, RCC_CFGR_PPRE2, ((RCC_ClkInitStruct->APB2CLKDivider) << 3U));
 948:Drivers/STM32L1xx_HAL_Driver/Src/stm32l1xx_hal_rcc.c ****   }
 949:Drivers/STM32L1xx_HAL_Driver/Src/stm32l1xx_hal_rcc.c **** 
 950:Drivers/STM32L1xx_HAL_Driver/Src/stm32l1xx_hal_rcc.c ****   /* Update the SystemCoreClock global variable */
 951:Drivers/STM32L1xx_HAL_Driver/Src/stm32l1xx_hal_rcc.c ****   SystemCoreClock = HAL_RCC_GetSysClockFreq() >> AHBPrescTable[(RCC->CFGR & RCC_CFGR_HPRE)>> RCC_CF
 952:Drivers/STM32L1xx_HAL_Driver/Src/stm32l1xx_hal_rcc.c **** 
 953:Drivers/STM32L1xx_HAL_Driver/Src/stm32l1xx_hal_rcc.c ****   /* Configure the source of time base considering new system clocks settings*/
 954:Drivers/STM32L1xx_HAL_Driver/Src/stm32l1xx_hal_rcc.c ****   status = HAL_InitTick(uwTickPrio);
 955:Drivers/STM32L1xx_HAL_Driver/Src/stm32l1xx_hal_rcc.c **** 
 956:Drivers/STM32L1xx_HAL_Driver/Src/stm32l1xx_hal_rcc.c ****   return status;
 957:Drivers/STM32L1xx_HAL_Driver/Src/stm32l1xx_hal_rcc.c **** }
 958:Drivers/STM32L1xx_HAL_Driver/Src/stm32l1xx_hal_rcc.c **** 
 959:Drivers/STM32L1xx_HAL_Driver/Src/stm32l1xx_hal_rcc.c **** /**
 960:Drivers/STM32L1xx_HAL_Driver/Src/stm32l1xx_hal_rcc.c ****   * @}
 961:Drivers/STM32L1xx_HAL_Driver/Src/stm32l1xx_hal_rcc.c ****   */
 962:Drivers/STM32L1xx_HAL_Driver/Src/stm32l1xx_hal_rcc.c **** 
 963:Drivers/STM32L1xx_HAL_Driver/Src/stm32l1xx_hal_rcc.c **** /** @defgroup RCC_Exported_Functions_Group2 Peripheral Control functions
 964:Drivers/STM32L1xx_HAL_Driver/Src/stm32l1xx_hal_rcc.c ****   *  @brief   RCC clocks control functions
 965:Drivers/STM32L1xx_HAL_Driver/Src/stm32l1xx_hal_rcc.c ****   *
 966:Drivers/STM32L1xx_HAL_Driver/Src/stm32l1xx_hal_rcc.c ****   @verbatim
 967:Drivers/STM32L1xx_HAL_Driver/Src/stm32l1xx_hal_rcc.c ****   ===============================================================================
 968:Drivers/STM32L1xx_HAL_Driver/Src/stm32l1xx_hal_rcc.c ****                   ##### Peripheral Control functions #####
 969:Drivers/STM32L1xx_HAL_Driver/Src/stm32l1xx_hal_rcc.c ****   ===============================================================================
 970:Drivers/STM32L1xx_HAL_Driver/Src/stm32l1xx_hal_rcc.c ****     [..]
 971:Drivers/STM32L1xx_HAL_Driver/Src/stm32l1xx_hal_rcc.c ****     This subsection provides a set of functions allowing to control the RCC Clocks
 972:Drivers/STM32L1xx_HAL_Driver/Src/stm32l1xx_hal_rcc.c ****     frequencies.
 973:Drivers/STM32L1xx_HAL_Driver/Src/stm32l1xx_hal_rcc.c **** 
 974:Drivers/STM32L1xx_HAL_Driver/Src/stm32l1xx_hal_rcc.c ****   @endverbatim
 975:Drivers/STM32L1xx_HAL_Driver/Src/stm32l1xx_hal_rcc.c ****   * @{
 976:Drivers/STM32L1xx_HAL_Driver/Src/stm32l1xx_hal_rcc.c ****   */
 977:Drivers/STM32L1xx_HAL_Driver/Src/stm32l1xx_hal_rcc.c **** 
 978:Drivers/STM32L1xx_HAL_Driver/Src/stm32l1xx_hal_rcc.c **** /**
 979:Drivers/STM32L1xx_HAL_Driver/Src/stm32l1xx_hal_rcc.c ****   * @brief  Selects the clock source to output on MCO pin.
 980:Drivers/STM32L1xx_HAL_Driver/Src/stm32l1xx_hal_rcc.c ****   * @note   MCO pin should be configured in alternate function mode.
 981:Drivers/STM32L1xx_HAL_Driver/Src/stm32l1xx_hal_rcc.c ****   * @param  RCC_MCOx specifies the output direction for the clock source.
 982:Drivers/STM32L1xx_HAL_Driver/Src/stm32l1xx_hal_rcc.c ****   *          This parameter can be one of the following values:
 983:Drivers/STM32L1xx_HAL_Driver/Src/stm32l1xx_hal_rcc.c ****   *            @arg @ref RCC_MCO1 Clock source to output on MCO1 pin(PA8).
 984:Drivers/STM32L1xx_HAL_Driver/Src/stm32l1xx_hal_rcc.c ****   * @param  RCC_MCOSource specifies the clock source to output.
 985:Drivers/STM32L1xx_HAL_Driver/Src/stm32l1xx_hal_rcc.c ****   *          This parameter can be one of the following values:
 986:Drivers/STM32L1xx_HAL_Driver/Src/stm32l1xx_hal_rcc.c ****   *            @arg @ref RCC_MCO1SOURCE_NOCLOCK     No clock selected as MCO clock
 987:Drivers/STM32L1xx_HAL_Driver/Src/stm32l1xx_hal_rcc.c ****   *            @arg @ref RCC_MCO1SOURCE_SYSCLK      System clock selected as MCO clock
 988:Drivers/STM32L1xx_HAL_Driver/Src/stm32l1xx_hal_rcc.c ****   *            @arg @ref RCC_MCO1SOURCE_HSI         HSI selected as MCO clock
 989:Drivers/STM32L1xx_HAL_Driver/Src/stm32l1xx_hal_rcc.c ****   *            @arg @ref RCC_MCO1SOURCE_HSE         HSE selected as MCO clock
 990:Drivers/STM32L1xx_HAL_Driver/Src/stm32l1xx_hal_rcc.c ****   *            @arg @ref RCC_MCO1SOURCE_MSI         MSI oscillator clock selected as MCO clock
 991:Drivers/STM32L1xx_HAL_Driver/Src/stm32l1xx_hal_rcc.c ****   *            @arg @ref RCC_MCO1SOURCE_PLLCLK      PLL clock selected as MCO clock
 992:Drivers/STM32L1xx_HAL_Driver/Src/stm32l1xx_hal_rcc.c ****   *            @arg @ref RCC_MCO1SOURCE_LSI         LSI clock selected as MCO clock
 993:Drivers/STM32L1xx_HAL_Driver/Src/stm32l1xx_hal_rcc.c ****   *            @arg @ref RCC_MCO1SOURCE_LSE         LSE clock selected as MCO clock
 994:Drivers/STM32L1xx_HAL_Driver/Src/stm32l1xx_hal_rcc.c ****   * @param  RCC_MCODiv specifies the MCO DIV.
 995:Drivers/STM32L1xx_HAL_Driver/Src/stm32l1xx_hal_rcc.c ****   *          This parameter can be one of the following values:
 996:Drivers/STM32L1xx_HAL_Driver/Src/stm32l1xx_hal_rcc.c ****   *            @arg @ref RCC_MCODIV_1 no division applied to MCO clock
 997:Drivers/STM32L1xx_HAL_Driver/Src/stm32l1xx_hal_rcc.c ****   *            @arg @ref RCC_MCODIV_2  division by 2 applied to MCO clock
 998:Drivers/STM32L1xx_HAL_Driver/Src/stm32l1xx_hal_rcc.c ****   *            @arg @ref RCC_MCODIV_4  division by 4 applied to MCO clock
 999:Drivers/STM32L1xx_HAL_Driver/Src/stm32l1xx_hal_rcc.c ****   *            @arg @ref RCC_MCODIV_8  division by 8 applied to MCO clock
1000:Drivers/STM32L1xx_HAL_Driver/Src/stm32l1xx_hal_rcc.c ****   *            @arg @ref RCC_MCODIV_16 division by 16 applied to MCO clock
1001:Drivers/STM32L1xx_HAL_Driver/Src/stm32l1xx_hal_rcc.c ****   * @retval None
ARM GAS  /tmp/ccoCXvoW.s 			page 19


1002:Drivers/STM32L1xx_HAL_Driver/Src/stm32l1xx_hal_rcc.c ****   */
1003:Drivers/STM32L1xx_HAL_Driver/Src/stm32l1xx_hal_rcc.c **** void HAL_RCC_MCOConfig(uint32_t RCC_MCOx, uint32_t RCC_MCOSource, uint32_t RCC_MCODiv)
1004:Drivers/STM32L1xx_HAL_Driver/Src/stm32l1xx_hal_rcc.c **** {
1005:Drivers/STM32L1xx_HAL_Driver/Src/stm32l1xx_hal_rcc.c ****   GPIO_InitTypeDef gpio;
1006:Drivers/STM32L1xx_HAL_Driver/Src/stm32l1xx_hal_rcc.c **** 
1007:Drivers/STM32L1xx_HAL_Driver/Src/stm32l1xx_hal_rcc.c ****   /* Check the parameters */
1008:Drivers/STM32L1xx_HAL_Driver/Src/stm32l1xx_hal_rcc.c ****   assert_param(IS_RCC_MCO(RCC_MCOx));
1009:Drivers/STM32L1xx_HAL_Driver/Src/stm32l1xx_hal_rcc.c ****   assert_param(IS_RCC_MCODIV(RCC_MCODiv));
1010:Drivers/STM32L1xx_HAL_Driver/Src/stm32l1xx_hal_rcc.c ****   assert_param(IS_RCC_MCO1SOURCE(RCC_MCOSource));
1011:Drivers/STM32L1xx_HAL_Driver/Src/stm32l1xx_hal_rcc.c **** 
1012:Drivers/STM32L1xx_HAL_Driver/Src/stm32l1xx_hal_rcc.c ****   /* Configure the MCO1 pin in alternate function mode */
1013:Drivers/STM32L1xx_HAL_Driver/Src/stm32l1xx_hal_rcc.c ****   gpio.Mode      = GPIO_MODE_AF_PP;
1014:Drivers/STM32L1xx_HAL_Driver/Src/stm32l1xx_hal_rcc.c ****   gpio.Speed     = GPIO_SPEED_FREQ_HIGH;
1015:Drivers/STM32L1xx_HAL_Driver/Src/stm32l1xx_hal_rcc.c ****   gpio.Pull      = GPIO_NOPULL;
1016:Drivers/STM32L1xx_HAL_Driver/Src/stm32l1xx_hal_rcc.c ****   gpio.Pin       = MCO1_PIN;
1017:Drivers/STM32L1xx_HAL_Driver/Src/stm32l1xx_hal_rcc.c ****   gpio.Alternate = GPIO_AF0_MCO;
1018:Drivers/STM32L1xx_HAL_Driver/Src/stm32l1xx_hal_rcc.c **** 
1019:Drivers/STM32L1xx_HAL_Driver/Src/stm32l1xx_hal_rcc.c ****   /* MCO1 Clock Enable */
1020:Drivers/STM32L1xx_HAL_Driver/Src/stm32l1xx_hal_rcc.c ****   MCO1_CLK_ENABLE();
1021:Drivers/STM32L1xx_HAL_Driver/Src/stm32l1xx_hal_rcc.c **** 
1022:Drivers/STM32L1xx_HAL_Driver/Src/stm32l1xx_hal_rcc.c ****   HAL_GPIO_Init(MCO1_GPIO_PORT, &gpio);
1023:Drivers/STM32L1xx_HAL_Driver/Src/stm32l1xx_hal_rcc.c **** 
1024:Drivers/STM32L1xx_HAL_Driver/Src/stm32l1xx_hal_rcc.c ****   /* Configure the MCO clock source */
1025:Drivers/STM32L1xx_HAL_Driver/Src/stm32l1xx_hal_rcc.c ****   __HAL_RCC_MCO1_CONFIG(RCC_MCOSource, RCC_MCODiv);
1026:Drivers/STM32L1xx_HAL_Driver/Src/stm32l1xx_hal_rcc.c **** }
1027:Drivers/STM32L1xx_HAL_Driver/Src/stm32l1xx_hal_rcc.c **** 
1028:Drivers/STM32L1xx_HAL_Driver/Src/stm32l1xx_hal_rcc.c **** /**
1029:Drivers/STM32L1xx_HAL_Driver/Src/stm32l1xx_hal_rcc.c ****   * @brief  Enables the Clock Security System.
1030:Drivers/STM32L1xx_HAL_Driver/Src/stm32l1xx_hal_rcc.c ****   * @note   If a failure is detected on the HSE oscillator clock, this oscillator
1031:Drivers/STM32L1xx_HAL_Driver/Src/stm32l1xx_hal_rcc.c ****   *         is automatically disabled and an interrupt is generated to inform the
1032:Drivers/STM32L1xx_HAL_Driver/Src/stm32l1xx_hal_rcc.c ****   *         software about the failure (Clock Security System Interrupt, CSSI),
1033:Drivers/STM32L1xx_HAL_Driver/Src/stm32l1xx_hal_rcc.c ****   *         allowing the MCU to perform rescue operations. The CSSI is linked to
1034:Drivers/STM32L1xx_HAL_Driver/Src/stm32l1xx_hal_rcc.c ****   *         the Cortex-M3 NMI (Non-Maskable Interrupt) exception vector.
1035:Drivers/STM32L1xx_HAL_Driver/Src/stm32l1xx_hal_rcc.c ****   * @retval None
1036:Drivers/STM32L1xx_HAL_Driver/Src/stm32l1xx_hal_rcc.c ****   */
1037:Drivers/STM32L1xx_HAL_Driver/Src/stm32l1xx_hal_rcc.c **** void HAL_RCC_EnableCSS(void)
1038:Drivers/STM32L1xx_HAL_Driver/Src/stm32l1xx_hal_rcc.c **** {
1039:Drivers/STM32L1xx_HAL_Driver/Src/stm32l1xx_hal_rcc.c ****   *(__IO uint32_t *) RCC_CR_CSSON_BB = (uint32_t)ENABLE;
1040:Drivers/STM32L1xx_HAL_Driver/Src/stm32l1xx_hal_rcc.c **** }
1041:Drivers/STM32L1xx_HAL_Driver/Src/stm32l1xx_hal_rcc.c **** 
1042:Drivers/STM32L1xx_HAL_Driver/Src/stm32l1xx_hal_rcc.c **** /**
1043:Drivers/STM32L1xx_HAL_Driver/Src/stm32l1xx_hal_rcc.c ****   * @brief  Disables the Clock Security System.
1044:Drivers/STM32L1xx_HAL_Driver/Src/stm32l1xx_hal_rcc.c ****   * @retval None
1045:Drivers/STM32L1xx_HAL_Driver/Src/stm32l1xx_hal_rcc.c ****   */
1046:Drivers/STM32L1xx_HAL_Driver/Src/stm32l1xx_hal_rcc.c **** void HAL_RCC_DisableCSS(void)
1047:Drivers/STM32L1xx_HAL_Driver/Src/stm32l1xx_hal_rcc.c **** {
1048:Drivers/STM32L1xx_HAL_Driver/Src/stm32l1xx_hal_rcc.c ****   *(__IO uint32_t *) RCC_CR_CSSON_BB = (uint32_t)DISABLE;
1049:Drivers/STM32L1xx_HAL_Driver/Src/stm32l1xx_hal_rcc.c **** }
1050:Drivers/STM32L1xx_HAL_Driver/Src/stm32l1xx_hal_rcc.c **** 
1051:Drivers/STM32L1xx_HAL_Driver/Src/stm32l1xx_hal_rcc.c **** /**
1052:Drivers/STM32L1xx_HAL_Driver/Src/stm32l1xx_hal_rcc.c ****   * @brief  Returns the SYSCLK frequency
1053:Drivers/STM32L1xx_HAL_Driver/Src/stm32l1xx_hal_rcc.c ****   * @note   The system frequency computed by this function is not the real
1054:Drivers/STM32L1xx_HAL_Driver/Src/stm32l1xx_hal_rcc.c ****   *         frequency in the chip. It is calculated based on the predefined
1055:Drivers/STM32L1xx_HAL_Driver/Src/stm32l1xx_hal_rcc.c ****   *         constant and the selected clock source:
1056:Drivers/STM32L1xx_HAL_Driver/Src/stm32l1xx_hal_rcc.c ****   * @note     If SYSCLK source is MSI, function returns a value based on MSI
1057:Drivers/STM32L1xx_HAL_Driver/Src/stm32l1xx_hal_rcc.c ****   *             Value as defined by the MSI range.
1058:Drivers/STM32L1xx_HAL_Driver/Src/stm32l1xx_hal_rcc.c ****   * @note     If SYSCLK source is HSI, function returns values based on HSI_VALUE(*)
ARM GAS  /tmp/ccoCXvoW.s 			page 20


1059:Drivers/STM32L1xx_HAL_Driver/Src/stm32l1xx_hal_rcc.c ****   * @note     If SYSCLK source is HSE, function returns a value based on HSE_VALUE(**)
1060:Drivers/STM32L1xx_HAL_Driver/Src/stm32l1xx_hal_rcc.c ****   * @note     If SYSCLK source is PLL, function returns a value based on HSE_VALUE(**)
1061:Drivers/STM32L1xx_HAL_Driver/Src/stm32l1xx_hal_rcc.c ****   *           or HSI_VALUE(*) multiplied/divided by the PLL factors.
1062:Drivers/STM32L1xx_HAL_Driver/Src/stm32l1xx_hal_rcc.c ****   * @note     (*) HSI_VALUE is a constant defined in stm32l1xx_hal_conf.h file (default value
1063:Drivers/STM32L1xx_HAL_Driver/Src/stm32l1xx_hal_rcc.c ****   *               16 MHz) but the real value may vary depending on the variations
1064:Drivers/STM32L1xx_HAL_Driver/Src/stm32l1xx_hal_rcc.c ****   *               in voltage and temperature.
1065:Drivers/STM32L1xx_HAL_Driver/Src/stm32l1xx_hal_rcc.c ****   * @note     (**) HSE_VALUE is a constant defined in stm32l1xx_hal_conf.h file (default value
1066:Drivers/STM32L1xx_HAL_Driver/Src/stm32l1xx_hal_rcc.c ****   *                8 MHz), user has to ensure that HSE_VALUE is same as the real
1067:Drivers/STM32L1xx_HAL_Driver/Src/stm32l1xx_hal_rcc.c ****   *                frequency of the crystal used. Otherwise, this function may
1068:Drivers/STM32L1xx_HAL_Driver/Src/stm32l1xx_hal_rcc.c ****   *                have wrong result.
1069:Drivers/STM32L1xx_HAL_Driver/Src/stm32l1xx_hal_rcc.c ****   *
1070:Drivers/STM32L1xx_HAL_Driver/Src/stm32l1xx_hal_rcc.c ****   * @note   The result of this function could be not correct when using fractional
1071:Drivers/STM32L1xx_HAL_Driver/Src/stm32l1xx_hal_rcc.c ****   *         value for HSE crystal.
1072:Drivers/STM32L1xx_HAL_Driver/Src/stm32l1xx_hal_rcc.c ****   *
1073:Drivers/STM32L1xx_HAL_Driver/Src/stm32l1xx_hal_rcc.c ****   * @note   This function can be used by the user application to compute the
1074:Drivers/STM32L1xx_HAL_Driver/Src/stm32l1xx_hal_rcc.c ****   *         baud-rate for the communication peripherals or configure other parameters.
1075:Drivers/STM32L1xx_HAL_Driver/Src/stm32l1xx_hal_rcc.c ****   *
1076:Drivers/STM32L1xx_HAL_Driver/Src/stm32l1xx_hal_rcc.c ****   * @note   Each time SYSCLK changes, this function must be called to update the
1077:Drivers/STM32L1xx_HAL_Driver/Src/stm32l1xx_hal_rcc.c ****   *         right SYSCLK value. Otherwise, any configuration based on this function will be incorre
1078:Drivers/STM32L1xx_HAL_Driver/Src/stm32l1xx_hal_rcc.c ****   *
1079:Drivers/STM32L1xx_HAL_Driver/Src/stm32l1xx_hal_rcc.c ****   * @retval SYSCLK frequency
1080:Drivers/STM32L1xx_HAL_Driver/Src/stm32l1xx_hal_rcc.c ****   */
1081:Drivers/STM32L1xx_HAL_Driver/Src/stm32l1xx_hal_rcc.c **** uint32_t HAL_RCC_GetSysClockFreq(void)
1082:Drivers/STM32L1xx_HAL_Driver/Src/stm32l1xx_hal_rcc.c **** {
1083:Drivers/STM32L1xx_HAL_Driver/Src/stm32l1xx_hal_rcc.c ****   uint32_t tmpreg, pllm, plld, pllvco, msiclkrange, sysclockfreq;
1084:Drivers/STM32L1xx_HAL_Driver/Src/stm32l1xx_hal_rcc.c **** 
1085:Drivers/STM32L1xx_HAL_Driver/Src/stm32l1xx_hal_rcc.c ****   tmpreg = RCC->CFGR;
1086:Drivers/STM32L1xx_HAL_Driver/Src/stm32l1xx_hal_rcc.c **** 
1087:Drivers/STM32L1xx_HAL_Driver/Src/stm32l1xx_hal_rcc.c ****   /* Get SYSCLK source -------------------------------------------------------*/
1088:Drivers/STM32L1xx_HAL_Driver/Src/stm32l1xx_hal_rcc.c ****   switch (tmpreg & RCC_CFGR_SWS)
1089:Drivers/STM32L1xx_HAL_Driver/Src/stm32l1xx_hal_rcc.c ****   {
1090:Drivers/STM32L1xx_HAL_Driver/Src/stm32l1xx_hal_rcc.c ****     case RCC_SYSCLKSOURCE_STATUS_HSI:  /* HSI used as system clock source */
1091:Drivers/STM32L1xx_HAL_Driver/Src/stm32l1xx_hal_rcc.c ****     {
1092:Drivers/STM32L1xx_HAL_Driver/Src/stm32l1xx_hal_rcc.c ****       sysclockfreq = HSI_VALUE;
1093:Drivers/STM32L1xx_HAL_Driver/Src/stm32l1xx_hal_rcc.c ****       break;
1094:Drivers/STM32L1xx_HAL_Driver/Src/stm32l1xx_hal_rcc.c ****     }
1095:Drivers/STM32L1xx_HAL_Driver/Src/stm32l1xx_hal_rcc.c ****     case RCC_SYSCLKSOURCE_STATUS_HSE:  /* HSE used as system clock */
1096:Drivers/STM32L1xx_HAL_Driver/Src/stm32l1xx_hal_rcc.c ****     {
1097:Drivers/STM32L1xx_HAL_Driver/Src/stm32l1xx_hal_rcc.c ****       sysclockfreq = HSE_VALUE;
1098:Drivers/STM32L1xx_HAL_Driver/Src/stm32l1xx_hal_rcc.c ****       break;
1099:Drivers/STM32L1xx_HAL_Driver/Src/stm32l1xx_hal_rcc.c ****     }
1100:Drivers/STM32L1xx_HAL_Driver/Src/stm32l1xx_hal_rcc.c ****     case RCC_SYSCLKSOURCE_STATUS_PLLCLK:  /* PLL used as system clock */
1101:Drivers/STM32L1xx_HAL_Driver/Src/stm32l1xx_hal_rcc.c ****     {
1102:Drivers/STM32L1xx_HAL_Driver/Src/stm32l1xx_hal_rcc.c ****       pllm = PLLMulTable[(uint32_t)(tmpreg & RCC_CFGR_PLLMUL) >> RCC_CFGR_PLLMUL_Pos];
1103:Drivers/STM32L1xx_HAL_Driver/Src/stm32l1xx_hal_rcc.c ****       plld = ((uint32_t)(tmpreg & RCC_CFGR_PLLDIV) >> RCC_CFGR_PLLDIV_Pos) + 1U;
1104:Drivers/STM32L1xx_HAL_Driver/Src/stm32l1xx_hal_rcc.c ****       if (__HAL_RCC_GET_PLL_OSCSOURCE() != RCC_PLLSOURCE_HSI)
1105:Drivers/STM32L1xx_HAL_Driver/Src/stm32l1xx_hal_rcc.c ****       {
1106:Drivers/STM32L1xx_HAL_Driver/Src/stm32l1xx_hal_rcc.c ****         /* HSE used as PLL clock source */
1107:Drivers/STM32L1xx_HAL_Driver/Src/stm32l1xx_hal_rcc.c ****         pllvco = (uint32_t)(((uint64_t)HSE_VALUE * (uint64_t)pllm) / (uint64_t)plld);
1108:Drivers/STM32L1xx_HAL_Driver/Src/stm32l1xx_hal_rcc.c ****       }
1109:Drivers/STM32L1xx_HAL_Driver/Src/stm32l1xx_hal_rcc.c ****       else
1110:Drivers/STM32L1xx_HAL_Driver/Src/stm32l1xx_hal_rcc.c ****       {
1111:Drivers/STM32L1xx_HAL_Driver/Src/stm32l1xx_hal_rcc.c ****         /* HSI used as PLL clock source */
1112:Drivers/STM32L1xx_HAL_Driver/Src/stm32l1xx_hal_rcc.c ****         pllvco = (uint32_t)(((uint64_t)HSI_VALUE * (uint64_t)pllm) / (uint64_t)plld);
1113:Drivers/STM32L1xx_HAL_Driver/Src/stm32l1xx_hal_rcc.c ****       }
1114:Drivers/STM32L1xx_HAL_Driver/Src/stm32l1xx_hal_rcc.c ****       sysclockfreq = pllvco;
1115:Drivers/STM32L1xx_HAL_Driver/Src/stm32l1xx_hal_rcc.c ****       break;
ARM GAS  /tmp/ccoCXvoW.s 			page 21


1116:Drivers/STM32L1xx_HAL_Driver/Src/stm32l1xx_hal_rcc.c ****     }
1117:Drivers/STM32L1xx_HAL_Driver/Src/stm32l1xx_hal_rcc.c ****     case RCC_SYSCLKSOURCE_STATUS_MSI:  /* MSI used as system clock source */
1118:Drivers/STM32L1xx_HAL_Driver/Src/stm32l1xx_hal_rcc.c ****     default: /* MSI used as system clock */
1119:Drivers/STM32L1xx_HAL_Driver/Src/stm32l1xx_hal_rcc.c ****     {
1120:Drivers/STM32L1xx_HAL_Driver/Src/stm32l1xx_hal_rcc.c ****       msiclkrange = (RCC->ICSCR & RCC_ICSCR_MSIRANGE ) >> RCC_ICSCR_MSIRANGE_Pos;
1121:Drivers/STM32L1xx_HAL_Driver/Src/stm32l1xx_hal_rcc.c ****       sysclockfreq = (32768U * (1UL << (msiclkrange + 1U)));
1122:Drivers/STM32L1xx_HAL_Driver/Src/stm32l1xx_hal_rcc.c ****       break;
1123:Drivers/STM32L1xx_HAL_Driver/Src/stm32l1xx_hal_rcc.c ****     }
1124:Drivers/STM32L1xx_HAL_Driver/Src/stm32l1xx_hal_rcc.c ****   }
1125:Drivers/STM32L1xx_HAL_Driver/Src/stm32l1xx_hal_rcc.c ****   return sysclockfreq;
1126:Drivers/STM32L1xx_HAL_Driver/Src/stm32l1xx_hal_rcc.c **** }
1127:Drivers/STM32L1xx_HAL_Driver/Src/stm32l1xx_hal_rcc.c **** 
1128:Drivers/STM32L1xx_HAL_Driver/Src/stm32l1xx_hal_rcc.c **** /**
1129:Drivers/STM32L1xx_HAL_Driver/Src/stm32l1xx_hal_rcc.c ****   * @brief  Returns the HCLK frequency
1130:Drivers/STM32L1xx_HAL_Driver/Src/stm32l1xx_hal_rcc.c ****   * @note   Each time HCLK changes, this function must be called to update the
1131:Drivers/STM32L1xx_HAL_Driver/Src/stm32l1xx_hal_rcc.c ****   *         right HCLK value. Otherwise, any configuration based on this function will be incorrect
1132:Drivers/STM32L1xx_HAL_Driver/Src/stm32l1xx_hal_rcc.c ****   *
1133:Drivers/STM32L1xx_HAL_Driver/Src/stm32l1xx_hal_rcc.c ****   * @note   The SystemCoreClock CMSIS variable is used to store System Clock Frequency
1134:Drivers/STM32L1xx_HAL_Driver/Src/stm32l1xx_hal_rcc.c ****   *         and updated within this function
1135:Drivers/STM32L1xx_HAL_Driver/Src/stm32l1xx_hal_rcc.c ****   * @retval HCLK frequency
1136:Drivers/STM32L1xx_HAL_Driver/Src/stm32l1xx_hal_rcc.c ****   */
1137:Drivers/STM32L1xx_HAL_Driver/Src/stm32l1xx_hal_rcc.c **** uint32_t HAL_RCC_GetHCLKFreq(void)
1138:Drivers/STM32L1xx_HAL_Driver/Src/stm32l1xx_hal_rcc.c **** {
1139:Drivers/STM32L1xx_HAL_Driver/Src/stm32l1xx_hal_rcc.c ****   return SystemCoreClock;
1140:Drivers/STM32L1xx_HAL_Driver/Src/stm32l1xx_hal_rcc.c **** }
1141:Drivers/STM32L1xx_HAL_Driver/Src/stm32l1xx_hal_rcc.c **** 
1142:Drivers/STM32L1xx_HAL_Driver/Src/stm32l1xx_hal_rcc.c **** /**
1143:Drivers/STM32L1xx_HAL_Driver/Src/stm32l1xx_hal_rcc.c ****   * @brief  Returns the PCLK1 frequency
1144:Drivers/STM32L1xx_HAL_Driver/Src/stm32l1xx_hal_rcc.c ****   * @note   Each time PCLK1 changes, this function must be called to update the
1145:Drivers/STM32L1xx_HAL_Driver/Src/stm32l1xx_hal_rcc.c ****   *         right PCLK1 value. Otherwise, any configuration based on this function will be incorrec
1146:Drivers/STM32L1xx_HAL_Driver/Src/stm32l1xx_hal_rcc.c ****   * @retval PCLK1 frequency
1147:Drivers/STM32L1xx_HAL_Driver/Src/stm32l1xx_hal_rcc.c ****   */
1148:Drivers/STM32L1xx_HAL_Driver/Src/stm32l1xx_hal_rcc.c **** uint32_t HAL_RCC_GetPCLK1Freq(void)
1149:Drivers/STM32L1xx_HAL_Driver/Src/stm32l1xx_hal_rcc.c **** {
1150:Drivers/STM32L1xx_HAL_Driver/Src/stm32l1xx_hal_rcc.c ****   /* Get HCLK source and Compute PCLK1 frequency ---------------------------*/
1151:Drivers/STM32L1xx_HAL_Driver/Src/stm32l1xx_hal_rcc.c ****   return (HAL_RCC_GetHCLKFreq() >> APBPrescTable[(RCC->CFGR & RCC_CFGR_PPRE1) >> RCC_CFGR_PPRE1_Pos
1152:Drivers/STM32L1xx_HAL_Driver/Src/stm32l1xx_hal_rcc.c **** }
1153:Drivers/STM32L1xx_HAL_Driver/Src/stm32l1xx_hal_rcc.c **** 
1154:Drivers/STM32L1xx_HAL_Driver/Src/stm32l1xx_hal_rcc.c **** /**
1155:Drivers/STM32L1xx_HAL_Driver/Src/stm32l1xx_hal_rcc.c ****   * @brief  Returns the PCLK2 frequency
1156:Drivers/STM32L1xx_HAL_Driver/Src/stm32l1xx_hal_rcc.c ****   * @note   Each time PCLK2 changes, this function must be called to update the
1157:Drivers/STM32L1xx_HAL_Driver/Src/stm32l1xx_hal_rcc.c ****   *         right PCLK2 value. Otherwise, any configuration based on this function will be incorrec
1158:Drivers/STM32L1xx_HAL_Driver/Src/stm32l1xx_hal_rcc.c ****   * @retval PCLK2 frequency
1159:Drivers/STM32L1xx_HAL_Driver/Src/stm32l1xx_hal_rcc.c ****   */
1160:Drivers/STM32L1xx_HAL_Driver/Src/stm32l1xx_hal_rcc.c **** uint32_t HAL_RCC_GetPCLK2Freq(void)
1161:Drivers/STM32L1xx_HAL_Driver/Src/stm32l1xx_hal_rcc.c **** {
1162:Drivers/STM32L1xx_HAL_Driver/Src/stm32l1xx_hal_rcc.c ****   /* Get HCLK source and Compute PCLK2 frequency ---------------------------*/
1163:Drivers/STM32L1xx_HAL_Driver/Src/stm32l1xx_hal_rcc.c ****   return (HAL_RCC_GetHCLKFreq()>> APBPrescTable[(RCC->CFGR & RCC_CFGR_PPRE2) >> RCC_CFGR_PPRE2_Pos]
1164:Drivers/STM32L1xx_HAL_Driver/Src/stm32l1xx_hal_rcc.c **** }
1165:Drivers/STM32L1xx_HAL_Driver/Src/stm32l1xx_hal_rcc.c **** 
1166:Drivers/STM32L1xx_HAL_Driver/Src/stm32l1xx_hal_rcc.c **** /**
1167:Drivers/STM32L1xx_HAL_Driver/Src/stm32l1xx_hal_rcc.c ****   * @brief  Configures the RCC_OscInitStruct according to the internal
1168:Drivers/STM32L1xx_HAL_Driver/Src/stm32l1xx_hal_rcc.c ****   * RCC configuration registers.
1169:Drivers/STM32L1xx_HAL_Driver/Src/stm32l1xx_hal_rcc.c ****   * @param  RCC_OscInitStruct pointer to an RCC_OscInitTypeDef structure that
1170:Drivers/STM32L1xx_HAL_Driver/Src/stm32l1xx_hal_rcc.c ****   * will be configured.
1171:Drivers/STM32L1xx_HAL_Driver/Src/stm32l1xx_hal_rcc.c ****   * @retval None
1172:Drivers/STM32L1xx_HAL_Driver/Src/stm32l1xx_hal_rcc.c ****   */
ARM GAS  /tmp/ccoCXvoW.s 			page 22


1173:Drivers/STM32L1xx_HAL_Driver/Src/stm32l1xx_hal_rcc.c **** void HAL_RCC_GetOscConfig(RCC_OscInitTypeDef  *RCC_OscInitStruct)
1174:Drivers/STM32L1xx_HAL_Driver/Src/stm32l1xx_hal_rcc.c **** {
1175:Drivers/STM32L1xx_HAL_Driver/Src/stm32l1xx_hal_rcc.c ****   /* Check the parameters */
1176:Drivers/STM32L1xx_HAL_Driver/Src/stm32l1xx_hal_rcc.c ****   assert_param(RCC_OscInitStruct != (void *)NULL);
1177:Drivers/STM32L1xx_HAL_Driver/Src/stm32l1xx_hal_rcc.c **** 
1178:Drivers/STM32L1xx_HAL_Driver/Src/stm32l1xx_hal_rcc.c ****   /* Set all possible values for the Oscillator type parameter ---------------*/
1179:Drivers/STM32L1xx_HAL_Driver/Src/stm32l1xx_hal_rcc.c ****   RCC_OscInitStruct->OscillatorType = RCC_OSCILLATORTYPE_HSE | RCC_OSCILLATORTYPE_HSI  \
1180:Drivers/STM32L1xx_HAL_Driver/Src/stm32l1xx_hal_rcc.c ****                   | RCC_OSCILLATORTYPE_LSE | RCC_OSCILLATORTYPE_LSI | RCC_OSCILLATORTYPE_MSI;
1181:Drivers/STM32L1xx_HAL_Driver/Src/stm32l1xx_hal_rcc.c **** 
1182:Drivers/STM32L1xx_HAL_Driver/Src/stm32l1xx_hal_rcc.c **** 
1183:Drivers/STM32L1xx_HAL_Driver/Src/stm32l1xx_hal_rcc.c ****   /* Get the HSE configuration -----------------------------------------------*/
1184:Drivers/STM32L1xx_HAL_Driver/Src/stm32l1xx_hal_rcc.c ****   if((RCC->CR &RCC_CR_HSEBYP) == RCC_CR_HSEBYP)
1185:Drivers/STM32L1xx_HAL_Driver/Src/stm32l1xx_hal_rcc.c ****   {
1186:Drivers/STM32L1xx_HAL_Driver/Src/stm32l1xx_hal_rcc.c ****     RCC_OscInitStruct->HSEState = RCC_HSE_BYPASS;
1187:Drivers/STM32L1xx_HAL_Driver/Src/stm32l1xx_hal_rcc.c ****   }
1188:Drivers/STM32L1xx_HAL_Driver/Src/stm32l1xx_hal_rcc.c ****   else if((RCC->CR &RCC_CR_HSEON) == RCC_CR_HSEON)
1189:Drivers/STM32L1xx_HAL_Driver/Src/stm32l1xx_hal_rcc.c ****   {
1190:Drivers/STM32L1xx_HAL_Driver/Src/stm32l1xx_hal_rcc.c ****     RCC_OscInitStruct->HSEState = RCC_HSE_ON;
1191:Drivers/STM32L1xx_HAL_Driver/Src/stm32l1xx_hal_rcc.c ****   }
1192:Drivers/STM32L1xx_HAL_Driver/Src/stm32l1xx_hal_rcc.c ****   else
1193:Drivers/STM32L1xx_HAL_Driver/Src/stm32l1xx_hal_rcc.c ****   {
1194:Drivers/STM32L1xx_HAL_Driver/Src/stm32l1xx_hal_rcc.c ****     RCC_OscInitStruct->HSEState = RCC_HSE_OFF;
1195:Drivers/STM32L1xx_HAL_Driver/Src/stm32l1xx_hal_rcc.c ****   }
1196:Drivers/STM32L1xx_HAL_Driver/Src/stm32l1xx_hal_rcc.c **** 
1197:Drivers/STM32L1xx_HAL_Driver/Src/stm32l1xx_hal_rcc.c ****   /* Get the HSI configuration -----------------------------------------------*/
1198:Drivers/STM32L1xx_HAL_Driver/Src/stm32l1xx_hal_rcc.c ****   if((RCC->CR &RCC_CR_HSION) == RCC_CR_HSION)
1199:Drivers/STM32L1xx_HAL_Driver/Src/stm32l1xx_hal_rcc.c ****   {
1200:Drivers/STM32L1xx_HAL_Driver/Src/stm32l1xx_hal_rcc.c ****     RCC_OscInitStruct->HSIState = RCC_HSI_ON;
1201:Drivers/STM32L1xx_HAL_Driver/Src/stm32l1xx_hal_rcc.c ****   }
1202:Drivers/STM32L1xx_HAL_Driver/Src/stm32l1xx_hal_rcc.c ****   else
1203:Drivers/STM32L1xx_HAL_Driver/Src/stm32l1xx_hal_rcc.c ****   {
1204:Drivers/STM32L1xx_HAL_Driver/Src/stm32l1xx_hal_rcc.c ****     RCC_OscInitStruct->HSIState = RCC_HSI_OFF;
1205:Drivers/STM32L1xx_HAL_Driver/Src/stm32l1xx_hal_rcc.c ****   }
1206:Drivers/STM32L1xx_HAL_Driver/Src/stm32l1xx_hal_rcc.c **** 
1207:Drivers/STM32L1xx_HAL_Driver/Src/stm32l1xx_hal_rcc.c ****   RCC_OscInitStruct->HSICalibrationValue = (uint32_t)((RCC->ICSCR & RCC_ICSCR_HSITRIM) >> RCC_ICSCR
1208:Drivers/STM32L1xx_HAL_Driver/Src/stm32l1xx_hal_rcc.c **** 
1209:Drivers/STM32L1xx_HAL_Driver/Src/stm32l1xx_hal_rcc.c ****   /* Get the MSI configuration -----------------------------------------------*/
1210:Drivers/STM32L1xx_HAL_Driver/Src/stm32l1xx_hal_rcc.c ****   if((RCC->CR &RCC_CR_MSION) == RCC_CR_MSION)
1211:Drivers/STM32L1xx_HAL_Driver/Src/stm32l1xx_hal_rcc.c ****   {
1212:Drivers/STM32L1xx_HAL_Driver/Src/stm32l1xx_hal_rcc.c ****     RCC_OscInitStruct->MSIState = RCC_MSI_ON;
1213:Drivers/STM32L1xx_HAL_Driver/Src/stm32l1xx_hal_rcc.c ****   }
1214:Drivers/STM32L1xx_HAL_Driver/Src/stm32l1xx_hal_rcc.c ****   else
1215:Drivers/STM32L1xx_HAL_Driver/Src/stm32l1xx_hal_rcc.c ****   {
1216:Drivers/STM32L1xx_HAL_Driver/Src/stm32l1xx_hal_rcc.c ****     RCC_OscInitStruct->MSIState = RCC_MSI_OFF;
1217:Drivers/STM32L1xx_HAL_Driver/Src/stm32l1xx_hal_rcc.c ****   }
1218:Drivers/STM32L1xx_HAL_Driver/Src/stm32l1xx_hal_rcc.c **** 
1219:Drivers/STM32L1xx_HAL_Driver/Src/stm32l1xx_hal_rcc.c ****   RCC_OscInitStruct->MSICalibrationValue = (uint32_t)((RCC->ICSCR & RCC_ICSCR_MSITRIM) >> RCC_ICSCR
1220:Drivers/STM32L1xx_HAL_Driver/Src/stm32l1xx_hal_rcc.c ****   RCC_OscInitStruct->MSIClockRange = (uint32_t)((RCC->ICSCR & RCC_ICSCR_MSIRANGE));
1221:Drivers/STM32L1xx_HAL_Driver/Src/stm32l1xx_hal_rcc.c **** 
1222:Drivers/STM32L1xx_HAL_Driver/Src/stm32l1xx_hal_rcc.c ****   /* Get the LSE configuration -----------------------------------------------*/
1223:Drivers/STM32L1xx_HAL_Driver/Src/stm32l1xx_hal_rcc.c ****   if((RCC->CSR &RCC_CSR_LSEBYP) == RCC_CSR_LSEBYP)
1224:Drivers/STM32L1xx_HAL_Driver/Src/stm32l1xx_hal_rcc.c ****   {
1225:Drivers/STM32L1xx_HAL_Driver/Src/stm32l1xx_hal_rcc.c ****     RCC_OscInitStruct->LSEState = RCC_LSE_BYPASS;
1226:Drivers/STM32L1xx_HAL_Driver/Src/stm32l1xx_hal_rcc.c ****   }
1227:Drivers/STM32L1xx_HAL_Driver/Src/stm32l1xx_hal_rcc.c ****   else if((RCC->CSR &RCC_CSR_LSEON) == RCC_CSR_LSEON)
1228:Drivers/STM32L1xx_HAL_Driver/Src/stm32l1xx_hal_rcc.c ****   {
1229:Drivers/STM32L1xx_HAL_Driver/Src/stm32l1xx_hal_rcc.c ****     RCC_OscInitStruct->LSEState = RCC_LSE_ON;
ARM GAS  /tmp/ccoCXvoW.s 			page 23


1230:Drivers/STM32L1xx_HAL_Driver/Src/stm32l1xx_hal_rcc.c ****   }
1231:Drivers/STM32L1xx_HAL_Driver/Src/stm32l1xx_hal_rcc.c ****   else
1232:Drivers/STM32L1xx_HAL_Driver/Src/stm32l1xx_hal_rcc.c ****   {
1233:Drivers/STM32L1xx_HAL_Driver/Src/stm32l1xx_hal_rcc.c ****     RCC_OscInitStruct->LSEState = RCC_LSE_OFF;
1234:Drivers/STM32L1xx_HAL_Driver/Src/stm32l1xx_hal_rcc.c ****   }
1235:Drivers/STM32L1xx_HAL_Driver/Src/stm32l1xx_hal_rcc.c **** 
1236:Drivers/STM32L1xx_HAL_Driver/Src/stm32l1xx_hal_rcc.c ****   /* Get the LSI configuration -----------------------------------------------*/
1237:Drivers/STM32L1xx_HAL_Driver/Src/stm32l1xx_hal_rcc.c ****   if((RCC->CSR &RCC_CSR_LSION) == RCC_CSR_LSION)
1238:Drivers/STM32L1xx_HAL_Driver/Src/stm32l1xx_hal_rcc.c ****   {
1239:Drivers/STM32L1xx_HAL_Driver/Src/stm32l1xx_hal_rcc.c ****     RCC_OscInitStruct->LSIState = RCC_LSI_ON;
1240:Drivers/STM32L1xx_HAL_Driver/Src/stm32l1xx_hal_rcc.c ****   }
1241:Drivers/STM32L1xx_HAL_Driver/Src/stm32l1xx_hal_rcc.c ****   else
1242:Drivers/STM32L1xx_HAL_Driver/Src/stm32l1xx_hal_rcc.c ****   {
1243:Drivers/STM32L1xx_HAL_Driver/Src/stm32l1xx_hal_rcc.c ****     RCC_OscInitStruct->LSIState = RCC_LSI_OFF;
1244:Drivers/STM32L1xx_HAL_Driver/Src/stm32l1xx_hal_rcc.c ****   }
1245:Drivers/STM32L1xx_HAL_Driver/Src/stm32l1xx_hal_rcc.c **** 
1246:Drivers/STM32L1xx_HAL_Driver/Src/stm32l1xx_hal_rcc.c **** 
1247:Drivers/STM32L1xx_HAL_Driver/Src/stm32l1xx_hal_rcc.c ****   /* Get the PLL configuration -----------------------------------------------*/
1248:Drivers/STM32L1xx_HAL_Driver/Src/stm32l1xx_hal_rcc.c ****   if((RCC->CR &RCC_CR_PLLON) == RCC_CR_PLLON)
1249:Drivers/STM32L1xx_HAL_Driver/Src/stm32l1xx_hal_rcc.c ****   {
1250:Drivers/STM32L1xx_HAL_Driver/Src/stm32l1xx_hal_rcc.c ****     RCC_OscInitStruct->PLL.PLLState = RCC_PLL_ON;
1251:Drivers/STM32L1xx_HAL_Driver/Src/stm32l1xx_hal_rcc.c ****   }
1252:Drivers/STM32L1xx_HAL_Driver/Src/stm32l1xx_hal_rcc.c ****   else
1253:Drivers/STM32L1xx_HAL_Driver/Src/stm32l1xx_hal_rcc.c ****   {
1254:Drivers/STM32L1xx_HAL_Driver/Src/stm32l1xx_hal_rcc.c ****     RCC_OscInitStruct->PLL.PLLState = RCC_PLL_OFF;
1255:Drivers/STM32L1xx_HAL_Driver/Src/stm32l1xx_hal_rcc.c ****   }
1256:Drivers/STM32L1xx_HAL_Driver/Src/stm32l1xx_hal_rcc.c ****   RCC_OscInitStruct->PLL.PLLSource = (uint32_t)(RCC->CFGR & RCC_CFGR_PLLSRC);
1257:Drivers/STM32L1xx_HAL_Driver/Src/stm32l1xx_hal_rcc.c ****   RCC_OscInitStruct->PLL.PLLMUL = (uint32_t)(RCC->CFGR & RCC_CFGR_PLLMUL);
1258:Drivers/STM32L1xx_HAL_Driver/Src/stm32l1xx_hal_rcc.c ****   RCC_OscInitStruct->PLL.PLLDIV = (uint32_t)(RCC->CFGR & RCC_CFGR_PLLDIV);
1259:Drivers/STM32L1xx_HAL_Driver/Src/stm32l1xx_hal_rcc.c **** }
1260:Drivers/STM32L1xx_HAL_Driver/Src/stm32l1xx_hal_rcc.c **** 
1261:Drivers/STM32L1xx_HAL_Driver/Src/stm32l1xx_hal_rcc.c **** /**
1262:Drivers/STM32L1xx_HAL_Driver/Src/stm32l1xx_hal_rcc.c ****   * @brief  Get the RCC_ClkInitStruct according to the internal
1263:Drivers/STM32L1xx_HAL_Driver/Src/stm32l1xx_hal_rcc.c ****   * RCC configuration registers.
1264:Drivers/STM32L1xx_HAL_Driver/Src/stm32l1xx_hal_rcc.c ****   * @param  RCC_ClkInitStruct pointer to an RCC_ClkInitTypeDef structure that
1265:Drivers/STM32L1xx_HAL_Driver/Src/stm32l1xx_hal_rcc.c ****   * contains the current clock configuration.
1266:Drivers/STM32L1xx_HAL_Driver/Src/stm32l1xx_hal_rcc.c ****   * @param  pFLatency Pointer on the Flash Latency.
1267:Drivers/STM32L1xx_HAL_Driver/Src/stm32l1xx_hal_rcc.c ****   * @retval None
1268:Drivers/STM32L1xx_HAL_Driver/Src/stm32l1xx_hal_rcc.c ****   */
1269:Drivers/STM32L1xx_HAL_Driver/Src/stm32l1xx_hal_rcc.c **** void HAL_RCC_GetClockConfig(RCC_ClkInitTypeDef  *RCC_ClkInitStruct, uint32_t *pFLatency)
1270:Drivers/STM32L1xx_HAL_Driver/Src/stm32l1xx_hal_rcc.c **** {
1271:Drivers/STM32L1xx_HAL_Driver/Src/stm32l1xx_hal_rcc.c ****   /* Check the parameters */
1272:Drivers/STM32L1xx_HAL_Driver/Src/stm32l1xx_hal_rcc.c ****   assert_param(RCC_ClkInitStruct != (void *)NULL);
1273:Drivers/STM32L1xx_HAL_Driver/Src/stm32l1xx_hal_rcc.c ****   assert_param(pFLatency != (void *)NULL);
1274:Drivers/STM32L1xx_HAL_Driver/Src/stm32l1xx_hal_rcc.c **** 
1275:Drivers/STM32L1xx_HAL_Driver/Src/stm32l1xx_hal_rcc.c ****   /* Set all possible values for the Clock type parameter --------------------*/
1276:Drivers/STM32L1xx_HAL_Driver/Src/stm32l1xx_hal_rcc.c ****   RCC_ClkInitStruct->ClockType = RCC_CLOCKTYPE_SYSCLK | RCC_CLOCKTYPE_HCLK | RCC_CLOCKTYPE_PCLK1 | 
1277:Drivers/STM32L1xx_HAL_Driver/Src/stm32l1xx_hal_rcc.c **** 
1278:Drivers/STM32L1xx_HAL_Driver/Src/stm32l1xx_hal_rcc.c ****   /* Get the SYSCLK configuration --------------------------------------------*/
1279:Drivers/STM32L1xx_HAL_Driver/Src/stm32l1xx_hal_rcc.c ****   RCC_ClkInitStruct->SYSCLKSource = (uint32_t)(RCC->CFGR & RCC_CFGR_SW);
1280:Drivers/STM32L1xx_HAL_Driver/Src/stm32l1xx_hal_rcc.c **** 
1281:Drivers/STM32L1xx_HAL_Driver/Src/stm32l1xx_hal_rcc.c ****   /* Get the HCLK configuration ----------------------------------------------*/
1282:Drivers/STM32L1xx_HAL_Driver/Src/stm32l1xx_hal_rcc.c ****   RCC_ClkInitStruct->AHBCLKDivider = (uint32_t)(RCC->CFGR & RCC_CFGR_HPRE);
1283:Drivers/STM32L1xx_HAL_Driver/Src/stm32l1xx_hal_rcc.c **** 
1284:Drivers/STM32L1xx_HAL_Driver/Src/stm32l1xx_hal_rcc.c ****   /* Get the APB1 configuration ----------------------------------------------*/
1285:Drivers/STM32L1xx_HAL_Driver/Src/stm32l1xx_hal_rcc.c ****   RCC_ClkInitStruct->APB1CLKDivider = (uint32_t)(RCC->CFGR & RCC_CFGR_PPRE1);
1286:Drivers/STM32L1xx_HAL_Driver/Src/stm32l1xx_hal_rcc.c **** 
ARM GAS  /tmp/ccoCXvoW.s 			page 24


1287:Drivers/STM32L1xx_HAL_Driver/Src/stm32l1xx_hal_rcc.c ****   /* Get the APB2 configuration ----------------------------------------------*/
1288:Drivers/STM32L1xx_HAL_Driver/Src/stm32l1xx_hal_rcc.c ****   RCC_ClkInitStruct->APB2CLKDivider = (uint32_t)((RCC->CFGR & RCC_CFGR_PPRE2) >> 3U);
1289:Drivers/STM32L1xx_HAL_Driver/Src/stm32l1xx_hal_rcc.c **** 
1290:Drivers/STM32L1xx_HAL_Driver/Src/stm32l1xx_hal_rcc.c ****   /* Get the Flash Wait State (Latency) configuration ------------------------*/
1291:Drivers/STM32L1xx_HAL_Driver/Src/stm32l1xx_hal_rcc.c ****   *pFLatency = __HAL_FLASH_GET_LATENCY();
1292:Drivers/STM32L1xx_HAL_Driver/Src/stm32l1xx_hal_rcc.c **** }
1293:Drivers/STM32L1xx_HAL_Driver/Src/stm32l1xx_hal_rcc.c **** 
1294:Drivers/STM32L1xx_HAL_Driver/Src/stm32l1xx_hal_rcc.c **** /**
1295:Drivers/STM32L1xx_HAL_Driver/Src/stm32l1xx_hal_rcc.c ****   * @brief This function handles the RCC CSS interrupt request.
1296:Drivers/STM32L1xx_HAL_Driver/Src/stm32l1xx_hal_rcc.c ****   * @note This API should be called under the NMI_Handler().
1297:Drivers/STM32L1xx_HAL_Driver/Src/stm32l1xx_hal_rcc.c ****   * @retval None
1298:Drivers/STM32L1xx_HAL_Driver/Src/stm32l1xx_hal_rcc.c ****   */
1299:Drivers/STM32L1xx_HAL_Driver/Src/stm32l1xx_hal_rcc.c **** void HAL_RCC_NMI_IRQHandler(void)
1300:Drivers/STM32L1xx_HAL_Driver/Src/stm32l1xx_hal_rcc.c **** {
1301:Drivers/STM32L1xx_HAL_Driver/Src/stm32l1xx_hal_rcc.c ****   /* Check RCC CSSF flag  */
1302:Drivers/STM32L1xx_HAL_Driver/Src/stm32l1xx_hal_rcc.c ****   if(__HAL_RCC_GET_IT(RCC_IT_CSS))
1303:Drivers/STM32L1xx_HAL_Driver/Src/stm32l1xx_hal_rcc.c ****   {
1304:Drivers/STM32L1xx_HAL_Driver/Src/stm32l1xx_hal_rcc.c ****     /* RCC Clock Security System interrupt user callback */
1305:Drivers/STM32L1xx_HAL_Driver/Src/stm32l1xx_hal_rcc.c ****     HAL_RCC_CSSCallback();
1306:Drivers/STM32L1xx_HAL_Driver/Src/stm32l1xx_hal_rcc.c **** 
1307:Drivers/STM32L1xx_HAL_Driver/Src/stm32l1xx_hal_rcc.c ****     /* Clear RCC CSS pending bit */
1308:Drivers/STM32L1xx_HAL_Driver/Src/stm32l1xx_hal_rcc.c ****     __HAL_RCC_CLEAR_IT(RCC_IT_CSS);
1309:Drivers/STM32L1xx_HAL_Driver/Src/stm32l1xx_hal_rcc.c ****   }
1310:Drivers/STM32L1xx_HAL_Driver/Src/stm32l1xx_hal_rcc.c **** }
1311:Drivers/STM32L1xx_HAL_Driver/Src/stm32l1xx_hal_rcc.c **** 
1312:Drivers/STM32L1xx_HAL_Driver/Src/stm32l1xx_hal_rcc.c **** /**
1313:Drivers/STM32L1xx_HAL_Driver/Src/stm32l1xx_hal_rcc.c ****   * @brief  RCC Clock Security System interrupt callback
1314:Drivers/STM32L1xx_HAL_Driver/Src/stm32l1xx_hal_rcc.c ****   * @retval none
1315:Drivers/STM32L1xx_HAL_Driver/Src/stm32l1xx_hal_rcc.c ****   */
1316:Drivers/STM32L1xx_HAL_Driver/Src/stm32l1xx_hal_rcc.c **** __weak void HAL_RCC_CSSCallback(void)
1317:Drivers/STM32L1xx_HAL_Driver/Src/stm32l1xx_hal_rcc.c **** {
1318:Drivers/STM32L1xx_HAL_Driver/Src/stm32l1xx_hal_rcc.c ****   /* NOTE : This function Should not be modified, when the callback is needed,
1319:Drivers/STM32L1xx_HAL_Driver/Src/stm32l1xx_hal_rcc.c ****     the HAL_RCC_CSSCallback could be implemented in the user file
1320:Drivers/STM32L1xx_HAL_Driver/Src/stm32l1xx_hal_rcc.c ****     */
1321:Drivers/STM32L1xx_HAL_Driver/Src/stm32l1xx_hal_rcc.c **** }
1322:Drivers/STM32L1xx_HAL_Driver/Src/stm32l1xx_hal_rcc.c **** 
1323:Drivers/STM32L1xx_HAL_Driver/Src/stm32l1xx_hal_rcc.c **** /**
1324:Drivers/STM32L1xx_HAL_Driver/Src/stm32l1xx_hal_rcc.c ****   * @}
1325:Drivers/STM32L1xx_HAL_Driver/Src/stm32l1xx_hal_rcc.c ****   */
1326:Drivers/STM32L1xx_HAL_Driver/Src/stm32l1xx_hal_rcc.c **** 
1327:Drivers/STM32L1xx_HAL_Driver/Src/stm32l1xx_hal_rcc.c **** /**
1328:Drivers/STM32L1xx_HAL_Driver/Src/stm32l1xx_hal_rcc.c ****   * @}
1329:Drivers/STM32L1xx_HAL_Driver/Src/stm32l1xx_hal_rcc.c ****   */
1330:Drivers/STM32L1xx_HAL_Driver/Src/stm32l1xx_hal_rcc.c **** 
1331:Drivers/STM32L1xx_HAL_Driver/Src/stm32l1xx_hal_rcc.c **** /* Private function prototypes -----------------------------------------------*/
1332:Drivers/STM32L1xx_HAL_Driver/Src/stm32l1xx_hal_rcc.c **** /** @addtogroup RCC_Private_Functions
1333:Drivers/STM32L1xx_HAL_Driver/Src/stm32l1xx_hal_rcc.c ****   * @{
1334:Drivers/STM32L1xx_HAL_Driver/Src/stm32l1xx_hal_rcc.c ****   */
1335:Drivers/STM32L1xx_HAL_Driver/Src/stm32l1xx_hal_rcc.c **** /**
1336:Drivers/STM32L1xx_HAL_Driver/Src/stm32l1xx_hal_rcc.c ****   * @brief  Update number of Flash wait states in line with MSI range and current
1337:Drivers/STM32L1xx_HAL_Driver/Src/stm32l1xx_hal_rcc.c ****             voltage range
1338:Drivers/STM32L1xx_HAL_Driver/Src/stm32l1xx_hal_rcc.c ****   * @param  MSIrange  MSI range value from RCC_MSIRANGE_0 to RCC_MSIRANGE_6
1339:Drivers/STM32L1xx_HAL_Driver/Src/stm32l1xx_hal_rcc.c ****   * @retval HAL status
1340:Drivers/STM32L1xx_HAL_Driver/Src/stm32l1xx_hal_rcc.c ****   */
1341:Drivers/STM32L1xx_HAL_Driver/Src/stm32l1xx_hal_rcc.c **** static HAL_StatusTypeDef RCC_SetFlashLatencyFromMSIRange(uint32_t MSIrange)
1342:Drivers/STM32L1xx_HAL_Driver/Src/stm32l1xx_hal_rcc.c **** {
  27              		.loc 1 1342 1 view -0
ARM GAS  /tmp/ccoCXvoW.s 			page 25


  28              		.cfi_startproc
  29              		@ args = 0, pretend = 0, frame = 8
  30              		@ frame_needed = 0, uses_anonymous_args = 0
  31              		@ link register save eliminated.
  32              		.loc 1 1342 1 is_stmt 0 view .LVU1
  33 0000 10B4     		push	{r4}
  34              	.LCFI0:
  35              		.cfi_def_cfa_offset 4
  36              		.cfi_offset 4, -4
  37 0002 83B0     		sub	sp, sp, #12
  38              	.LCFI1:
  39              		.cfi_def_cfa_offset 16
1343:Drivers/STM32L1xx_HAL_Driver/Src/stm32l1xx_hal_rcc.c ****   uint32_t vos;
  40              		.loc 1 1343 3 is_stmt 1 view .LVU2
1344:Drivers/STM32L1xx_HAL_Driver/Src/stm32l1xx_hal_rcc.c ****   uint32_t latency = FLASH_LATENCY_0;  /* default value 0WS */
  41              		.loc 1 1344 3 view .LVU3
  42              	.LVL1:
1345:Drivers/STM32L1xx_HAL_Driver/Src/stm32l1xx_hal_rcc.c **** 
1346:Drivers/STM32L1xx_HAL_Driver/Src/stm32l1xx_hal_rcc.c ****   /* HCLK can reach 4 MHz only if AHB prescaler = 1 */
1347:Drivers/STM32L1xx_HAL_Driver/Src/stm32l1xx_hal_rcc.c ****   if (READ_BIT(RCC->CFGR, RCC_CFGR_HPRE) == RCC_SYSCLK_DIV1)
  43              		.loc 1 1347 3 view .LVU4
  44              		.loc 1 1347 7 is_stmt 0 view .LVU5
  45 0004 1F4B     		ldr	r3, .L9
  46 0006 9B68     		ldr	r3, [r3, #8]
  47              		.loc 1 1347 6 view .LVU6
  48 0008 13F0F003 		ands	r3, r3, #240
  49 000c 28D1     		bne	.L6
1348:Drivers/STM32L1xx_HAL_Driver/Src/stm32l1xx_hal_rcc.c ****   {
1349:Drivers/STM32L1xx_HAL_Driver/Src/stm32l1xx_hal_rcc.c ****     if(__HAL_RCC_PWR_IS_CLK_ENABLED())
  50              		.loc 1 1349 5 is_stmt 1 view .LVU7
  51              		.loc 1 1349 8 is_stmt 0 view .LVU8
  52 000e 1D4A     		ldr	r2, .L9
  53 0010 526A     		ldr	r2, [r2, #36]
  54              		.loc 1 1349 7 view .LVU9
  55 0012 12F0805F 		tst	r2, #268435456
  56 0016 10D0     		beq	.L3
1350:Drivers/STM32L1xx_HAL_Driver/Src/stm32l1xx_hal_rcc.c ****     {
1351:Drivers/STM32L1xx_HAL_Driver/Src/stm32l1xx_hal_rcc.c ****       vos = READ_BIT(PWR->CR, PWR_CR_VOS);
  57              		.loc 1 1351 7 is_stmt 1 view .LVU10
  58              		.loc 1 1351 13 is_stmt 0 view .LVU11
  59 0018 1B4A     		ldr	r2, .L9+4
  60 001a 1268     		ldr	r2, [r2]
  61              		.loc 1 1351 11 view .LVU12
  62 001c 02F4C052 		and	r2, r2, #6144
  63              	.LVL2:
  64              	.L4:
1352:Drivers/STM32L1xx_HAL_Driver/Src/stm32l1xx_hal_rcc.c ****     }
1353:Drivers/STM32L1xx_HAL_Driver/Src/stm32l1xx_hal_rcc.c ****     else
1354:Drivers/STM32L1xx_HAL_Driver/Src/stm32l1xx_hal_rcc.c ****     {
1355:Drivers/STM32L1xx_HAL_Driver/Src/stm32l1xx_hal_rcc.c ****       __HAL_RCC_PWR_CLK_ENABLE();
1356:Drivers/STM32L1xx_HAL_Driver/Src/stm32l1xx_hal_rcc.c ****       vos = READ_BIT(PWR->CR, PWR_CR_VOS);
1357:Drivers/STM32L1xx_HAL_Driver/Src/stm32l1xx_hal_rcc.c ****       __HAL_RCC_PWR_CLK_DISABLE();
1358:Drivers/STM32L1xx_HAL_Driver/Src/stm32l1xx_hal_rcc.c ****     }
1359:Drivers/STM32L1xx_HAL_Driver/Src/stm32l1xx_hal_rcc.c **** 
1360:Drivers/STM32L1xx_HAL_Driver/Src/stm32l1xx_hal_rcc.c ****     /* Check if need to set latency 1 only for Range 3 & HCLK = 4MHz */
1361:Drivers/STM32L1xx_HAL_Driver/Src/stm32l1xx_hal_rcc.c ****     if((vos == PWR_REGULATOR_VOLTAGE_SCALE3) && (MSIrange == RCC_MSIRANGE_6))
  65              		.loc 1 1361 5 is_stmt 1 view .LVU13
ARM GAS  /tmp/ccoCXvoW.s 			page 26


  66              		.loc 1 1361 7 is_stmt 0 view .LVU14
  67 0020 B2F5C05F 		cmp	r2, #6144
  68 0024 1DD1     		bne	.L2
  69              		.loc 1 1361 46 discriminator 1 view .LVU15
  70 0026 B0F5404F 		cmp	r0, #49152
  71 002a 1AD1     		bne	.L2
1362:Drivers/STM32L1xx_HAL_Driver/Src/stm32l1xx_hal_rcc.c ****     {
1363:Drivers/STM32L1xx_HAL_Driver/Src/stm32l1xx_hal_rcc.c ****       latency = FLASH_LATENCY_1; /* 1WS */
  72              		.loc 1 1363 7 is_stmt 1 view .LVU16
  73              	.LVL3:
1364:Drivers/STM32L1xx_HAL_Driver/Src/stm32l1xx_hal_rcc.c ****     }
1365:Drivers/STM32L1xx_HAL_Driver/Src/stm32l1xx_hal_rcc.c ****   }
1366:Drivers/STM32L1xx_HAL_Driver/Src/stm32l1xx_hal_rcc.c **** 
1367:Drivers/STM32L1xx_HAL_Driver/Src/stm32l1xx_hal_rcc.c ****   __HAL_FLASH_SET_LATENCY(latency);
  74              		.loc 1 1367 3 view .LVU17
  75              		.loc 1 1367 3 view .LVU18
  76              		.loc 1 1367 3 view .LVU19
  77 002c 174A     		ldr	r2, .L9+8
  78              	.LVL4:
  79              		.loc 1 1367 3 is_stmt 0 view .LVU20
  80 002e 1368     		ldr	r3, [r2]
  81 0030 43F00403 		orr	r3, r3, #4
  82 0034 1360     		str	r3, [r2]
1363:Drivers/STM32L1xx_HAL_Driver/Src/stm32l1xx_hal_rcc.c ****     }
  83              		.loc 1 1363 15 view .LVU21
  84 0036 0123     		movs	r3, #1
  85 0038 13E0     		b	.L2
  86              	.LVL5:
  87              	.L3:
1355:Drivers/STM32L1xx_HAL_Driver/Src/stm32l1xx_hal_rcc.c ****       vos = READ_BIT(PWR->CR, PWR_CR_VOS);
  88              		.loc 1 1355 7 is_stmt 1 view .LVU22
  89              	.LBB2:
1355:Drivers/STM32L1xx_HAL_Driver/Src/stm32l1xx_hal_rcc.c ****       vos = READ_BIT(PWR->CR, PWR_CR_VOS);
  90              		.loc 1 1355 7 view .LVU23
1355:Drivers/STM32L1xx_HAL_Driver/Src/stm32l1xx_hal_rcc.c ****       vos = READ_BIT(PWR->CR, PWR_CR_VOS);
  91              		.loc 1 1355 7 view .LVU24
  92 003a 1249     		ldr	r1, .L9
  93 003c 4A6A     		ldr	r2, [r1, #36]
  94 003e 42F08052 		orr	r2, r2, #268435456
  95 0042 4A62     		str	r2, [r1, #36]
1355:Drivers/STM32L1xx_HAL_Driver/Src/stm32l1xx_hal_rcc.c ****       vos = READ_BIT(PWR->CR, PWR_CR_VOS);
  96              		.loc 1 1355 7 view .LVU25
  97 0044 4A6A     		ldr	r2, [r1, #36]
  98 0046 02F08052 		and	r2, r2, #268435456
  99 004a 0192     		str	r2, [sp, #4]
1355:Drivers/STM32L1xx_HAL_Driver/Src/stm32l1xx_hal_rcc.c ****       vos = READ_BIT(PWR->CR, PWR_CR_VOS);
 100              		.loc 1 1355 7 view .LVU26
 101 004c 019A     		ldr	r2, [sp, #4]
 102              	.LBE2:
1355:Drivers/STM32L1xx_HAL_Driver/Src/stm32l1xx_hal_rcc.c ****       vos = READ_BIT(PWR->CR, PWR_CR_VOS);
 103              		.loc 1 1355 7 view .LVU27
1356:Drivers/STM32L1xx_HAL_Driver/Src/stm32l1xx_hal_rcc.c ****       __HAL_RCC_PWR_CLK_DISABLE();
 104              		.loc 1 1356 7 view .LVU28
1356:Drivers/STM32L1xx_HAL_Driver/Src/stm32l1xx_hal_rcc.c ****       __HAL_RCC_PWR_CLK_DISABLE();
 105              		.loc 1 1356 13 is_stmt 0 view .LVU29
 106 004e 0E4A     		ldr	r2, .L9+4
 107 0050 1268     		ldr	r2, [r2]
ARM GAS  /tmp/ccoCXvoW.s 			page 27


1356:Drivers/STM32L1xx_HAL_Driver/Src/stm32l1xx_hal_rcc.c ****       __HAL_RCC_PWR_CLK_DISABLE();
 108              		.loc 1 1356 11 view .LVU30
 109 0052 02F4C052 		and	r2, r2, #6144
 110              	.LVL6:
1357:Drivers/STM32L1xx_HAL_Driver/Src/stm32l1xx_hal_rcc.c ****     }
 111              		.loc 1 1357 7 is_stmt 1 view .LVU31
 112 0056 4C6A     		ldr	r4, [r1, #36]
 113 0058 24F08054 		bic	r4, r4, #268435456
 114 005c 4C62     		str	r4, [r1, #36]
 115 005e DFE7     		b	.L4
 116              	.LVL7:
 117              	.L6:
1344:Drivers/STM32L1xx_HAL_Driver/Src/stm32l1xx_hal_rcc.c **** 
 118              		.loc 1 1344 12 is_stmt 0 view .LVU32
 119 0060 0023     		movs	r3, #0
 120              	.LVL8:
 121              	.L2:
 122              		.loc 1 1367 3 is_stmt 1 discriminator 3 view .LVU33
 123 0062 0A49     		ldr	r1, .L9+8
 124 0064 0A68     		ldr	r2, [r1]
 125 0066 22F00102 		bic	r2, r2, #1
 126 006a 1A43     		orrs	r2, r2, r3
 127 006c 0A60     		str	r2, [r1]
 128              		.loc 1 1367 3 discriminator 3 view .LVU34
1368:Drivers/STM32L1xx_HAL_Driver/Src/stm32l1xx_hal_rcc.c **** 
1369:Drivers/STM32L1xx_HAL_Driver/Src/stm32l1xx_hal_rcc.c ****   /* Check that the new number of wait states is taken into account to access the Flash
1370:Drivers/STM32L1xx_HAL_Driver/Src/stm32l1xx_hal_rcc.c ****      memory by reading the FLASH_ACR register */
1371:Drivers/STM32L1xx_HAL_Driver/Src/stm32l1xx_hal_rcc.c ****   if(__HAL_FLASH_GET_LATENCY() != latency)
 129              		.loc 1 1371 3 discriminator 3 view .LVU35
 130              		.loc 1 1371 6 is_stmt 0 discriminator 3 view .LVU36
 131 006e 0A68     		ldr	r2, [r1]
 132 0070 02F00102 		and	r2, r2, #1
 133              		.loc 1 1371 5 discriminator 3 view .LVU37
 134 0074 9A42     		cmp	r2, r3
 135 0076 03D1     		bne	.L7
1372:Drivers/STM32L1xx_HAL_Driver/Src/stm32l1xx_hal_rcc.c ****   {
1373:Drivers/STM32L1xx_HAL_Driver/Src/stm32l1xx_hal_rcc.c ****     return HAL_ERROR;
1374:Drivers/STM32L1xx_HAL_Driver/Src/stm32l1xx_hal_rcc.c ****   }
1375:Drivers/STM32L1xx_HAL_Driver/Src/stm32l1xx_hal_rcc.c **** 
1376:Drivers/STM32L1xx_HAL_Driver/Src/stm32l1xx_hal_rcc.c ****   return HAL_OK;
 136              		.loc 1 1376 10 view .LVU38
 137 0078 0020     		movs	r0, #0
 138              	.LVL9:
 139              	.L5:
1377:Drivers/STM32L1xx_HAL_Driver/Src/stm32l1xx_hal_rcc.c **** }
 140              		.loc 1 1377 1 view .LVU39
 141 007a 03B0     		add	sp, sp, #12
 142              	.LCFI2:
 143              		.cfi_remember_state
 144              		.cfi_def_cfa_offset 4
 145              		@ sp needed
 146 007c 10BC     		pop	{r4}
 147              	.LCFI3:
 148              		.cfi_restore 4
 149              		.cfi_def_cfa_offset 0
 150 007e 7047     		bx	lr
 151              	.LVL10:
ARM GAS  /tmp/ccoCXvoW.s 			page 28


 152              	.L7:
 153              	.LCFI4:
 154              		.cfi_restore_state
1373:Drivers/STM32L1xx_HAL_Driver/Src/stm32l1xx_hal_rcc.c ****   }
 155              		.loc 1 1373 12 view .LVU40
 156 0080 0120     		movs	r0, #1
 157              	.LVL11:
1373:Drivers/STM32L1xx_HAL_Driver/Src/stm32l1xx_hal_rcc.c ****   }
 158              		.loc 1 1373 12 view .LVU41
 159 0082 FAE7     		b	.L5
 160              	.L10:
 161              		.align	2
 162              	.L9:
 163 0084 00380240 		.word	1073887232
 164 0088 00700040 		.word	1073770496
 165 008c 003C0240 		.word	1073888256
 166              		.cfi_endproc
 167              	.LFE86:
 169              		.section	.text.HAL_RCC_DeInit,"ax",%progbits
 170              		.align	1
 171              		.global	HAL_RCC_DeInit
 172              		.syntax unified
 173              		.thumb
 174              		.thumb_func
 176              	HAL_RCC_DeInit:
 177              	.LFB72:
 227:Drivers/STM32L1xx_HAL_Driver/Src/stm32l1xx_hal_rcc.c ****   uint32_t tickstart;
 178              		.loc 1 227 1 is_stmt 1 view -0
 179              		.cfi_startproc
 180              		@ args = 0, pretend = 0, frame = 0
 181              		@ frame_needed = 0, uses_anonymous_args = 0
 182 0000 38B5     		push	{r3, r4, r5, lr}
 183              	.LCFI5:
 184              		.cfi_def_cfa_offset 16
 185              		.cfi_offset 3, -16
 186              		.cfi_offset 4, -12
 187              		.cfi_offset 5, -8
 188              		.cfi_offset 14, -4
 228:Drivers/STM32L1xx_HAL_Driver/Src/stm32l1xx_hal_rcc.c ****   HAL_StatusTypeDef status;
 189              		.loc 1 228 3 view .LVU43
 229:Drivers/STM32L1xx_HAL_Driver/Src/stm32l1xx_hal_rcc.c **** 
 190              		.loc 1 229 3 view .LVU44
 232:Drivers/STM32L1xx_HAL_Driver/Src/stm32l1xx_hal_rcc.c ****             ((RCC_MSICALIBRATION_DEFAULT << RCC_ICSCR_MSITRIM_Pos) | (RCC_HSICALIBRATION_DEFAULT <<
 191              		.loc 1 232 3 view .LVU45
 192 0002 2F4A     		ldr	r2, .L26
 193 0004 5368     		ldr	r3, [r2, #4]
 194 0006 03F0FF13 		and	r3, r3, #16711935
 195 000a 43F43043 		orr	r3, r3, #45056
 196 000e 5360     		str	r3, [r2, #4]
 236:Drivers/STM32L1xx_HAL_Driver/Src/stm32l1xx_hal_rcc.c **** 
 197              		.loc 1 236 3 view .LVU46
 198 0010 1368     		ldr	r3, [r2]
 199 0012 43F48073 		orr	r3, r3, #256
 200 0016 1360     		str	r3, [r2]
 239:Drivers/STM32L1xx_HAL_Driver/Src/stm32l1xx_hal_rcc.c **** 
 201              		.loc 1 239 3 view .LVU47
 239:Drivers/STM32L1xx_HAL_Driver/Src/stm32l1xx_hal_rcc.c **** 
ARM GAS  /tmp/ccoCXvoW.s 			page 29


 202              		.loc 1 239 15 is_stmt 0 view .LVU48
 203 0018 FFF7FEFF 		bl	HAL_GetTick
 204              	.LVL12:
 205 001c 0446     		mov	r4, r0
 206              	.LVL13:
 242:Drivers/STM32L1xx_HAL_Driver/Src/stm32l1xx_hal_rcc.c ****   {
 207              		.loc 1 242 3 is_stmt 1 view .LVU49
 208              	.L12:
 242:Drivers/STM32L1xx_HAL_Driver/Src/stm32l1xx_hal_rcc.c ****   {
 209              		.loc 1 242 9 view .LVU50
 242:Drivers/STM32L1xx_HAL_Driver/Src/stm32l1xx_hal_rcc.c ****   {
 210              		.loc 1 242 10 is_stmt 0 view .LVU51
 211 001e 284B     		ldr	r3, .L26
 212 0020 1B68     		ldr	r3, [r3]
 242:Drivers/STM32L1xx_HAL_Driver/Src/stm32l1xx_hal_rcc.c ****   {
 213              		.loc 1 242 9 view .LVU52
 214 0022 13F4007F 		tst	r3, #512
 215 0026 07D1     		bne	.L23
 244:Drivers/STM32L1xx_HAL_Driver/Src/stm32l1xx_hal_rcc.c ****     {
 216              		.loc 1 244 5 is_stmt 1 view .LVU53
 244:Drivers/STM32L1xx_HAL_Driver/Src/stm32l1xx_hal_rcc.c ****     {
 217              		.loc 1 244 10 is_stmt 0 view .LVU54
 218 0028 FFF7FEFF 		bl	HAL_GetTick
 219              	.LVL14:
 244:Drivers/STM32L1xx_HAL_Driver/Src/stm32l1xx_hal_rcc.c ****     {
 220              		.loc 1 244 24 view .LVU55
 221 002c 001B     		subs	r0, r0, r4
 244:Drivers/STM32L1xx_HAL_Driver/Src/stm32l1xx_hal_rcc.c ****     {
 222              		.loc 1 244 8 view .LVU56
 223 002e 0228     		cmp	r0, #2
 224 0030 F5D9     		bls	.L12
 246:Drivers/STM32L1xx_HAL_Driver/Src/stm32l1xx_hal_rcc.c ****     }
 225              		.loc 1 246 14 view .LVU57
 226 0032 0324     		movs	r4, #3
 227              	.LVL15:
 228              	.L13:
 306:Drivers/STM32L1xx_HAL_Driver/Src/stm32l1xx_hal_rcc.c **** 
 229              		.loc 1 306 1 view .LVU58
 230 0034 2046     		mov	r0, r4
 231 0036 38BD     		pop	{r3, r4, r5, pc}
 232              	.LVL16:
 233              	.L23:
 251:Drivers/STM32L1xx_HAL_Driver/Src/stm32l1xx_hal_rcc.c **** 
 234              		.loc 1 251 3 is_stmt 1 view .LVU59
 235 0038 214A     		ldr	r2, .L26
 236 003a 9368     		ldr	r3, [r2, #8]
 237 003c 23F00303 		bic	r3, r3, #3
 238 0040 9360     		str	r3, [r2, #8]
 254:Drivers/STM32L1xx_HAL_Driver/Src/stm32l1xx_hal_rcc.c ****   {
 239              		.loc 1 254 3 view .LVU60
 240              	.L15:
 254:Drivers/STM32L1xx_HAL_Driver/Src/stm32l1xx_hal_rcc.c ****   {
 241              		.loc 1 254 9 view .LVU61
 254:Drivers/STM32L1xx_HAL_Driver/Src/stm32l1xx_hal_rcc.c ****   {
 242              		.loc 1 254 10 is_stmt 0 view .LVU62
 243 0042 1F4B     		ldr	r3, .L26
 244 0044 9B68     		ldr	r3, [r3, #8]
ARM GAS  /tmp/ccoCXvoW.s 			page 30


 254:Drivers/STM32L1xx_HAL_Driver/Src/stm32l1xx_hal_rcc.c ****   {
 245              		.loc 1 254 9 view .LVU63
 246 0046 13F00C0F 		tst	r3, #12
 247 004a 08D0     		beq	.L24
 256:Drivers/STM32L1xx_HAL_Driver/Src/stm32l1xx_hal_rcc.c ****     {
 248              		.loc 1 256 5 is_stmt 1 view .LVU64
 256:Drivers/STM32L1xx_HAL_Driver/Src/stm32l1xx_hal_rcc.c ****     {
 249              		.loc 1 256 10 is_stmt 0 view .LVU65
 250 004c FFF7FEFF 		bl	HAL_GetTick
 251              	.LVL17:
 256:Drivers/STM32L1xx_HAL_Driver/Src/stm32l1xx_hal_rcc.c ****     {
 252              		.loc 1 256 24 view .LVU66
 253 0050 001B     		subs	r0, r0, r4
 256:Drivers/STM32L1xx_HAL_Driver/Src/stm32l1xx_hal_rcc.c ****     {
 254              		.loc 1 256 8 view .LVU67
 255 0052 41F28833 		movw	r3, #5000
 256 0056 9842     		cmp	r0, r3
 257 0058 F3D9     		bls	.L15
 258:Drivers/STM32L1xx_HAL_Driver/Src/stm32l1xx_hal_rcc.c ****     }
 258              		.loc 1 258 14 view .LVU68
 259 005a 0324     		movs	r4, #3
 260              	.LVL18:
 258:Drivers/STM32L1xx_HAL_Driver/Src/stm32l1xx_hal_rcc.c ****     }
 261              		.loc 1 258 14 view .LVU69
 262 005c EAE7     		b	.L13
 263              	.LVL19:
 264              	.L24:
 263:Drivers/STM32L1xx_HAL_Driver/Src/stm32l1xx_hal_rcc.c **** 
 265              		.loc 1 263 3 is_stmt 1 view .LVU70
 263:Drivers/STM32L1xx_HAL_Driver/Src/stm32l1xx_hal_rcc.c **** 
 266              		.loc 1 263 19 is_stmt 0 view .LVU71
 267 005e 194B     		ldr	r3, .L26+4
 268 0060 194A     		ldr	r2, .L26+8
 269 0062 1A60     		str	r2, [r3]
 266:Drivers/STM32L1xx_HAL_Driver/Src/stm32l1xx_hal_rcc.c ****   if(status != HAL_OK)
 270              		.loc 1 266 3 is_stmt 1 view .LVU72
 266:Drivers/STM32L1xx_HAL_Driver/Src/stm32l1xx_hal_rcc.c ****   if(status != HAL_OK)
 271              		.loc 1 266 12 is_stmt 0 view .LVU73
 272 0064 194B     		ldr	r3, .L26+12
 273 0066 1868     		ldr	r0, [r3]
 274 0068 FFF7FEFF 		bl	HAL_InitTick
 275              	.LVL20:
 267:Drivers/STM32L1xx_HAL_Driver/Src/stm32l1xx_hal_rcc.c ****   {
 276              		.loc 1 267 3 is_stmt 1 view .LVU74
 267:Drivers/STM32L1xx_HAL_Driver/Src/stm32l1xx_hal_rcc.c ****   {
 277              		.loc 1 267 5 is_stmt 0 view .LVU75
 278 006c 0446     		mov	r4, r0
 279              	.LVL21:
 267:Drivers/STM32L1xx_HAL_Driver/Src/stm32l1xx_hal_rcc.c ****   {
 280              		.loc 1 267 5 view .LVU76
 281 006e 0028     		cmp	r0, #0
 282 0070 E0D1     		bne	.L13
 273:Drivers/STM32L1xx_HAL_Driver/Src/stm32l1xx_hal_rcc.c ****   /* Reset HSEBYP bit */
 283              		.loc 1 273 3 is_stmt 1 view .LVU77
 284 0072 134A     		ldr	r2, .L26
 285 0074 1368     		ldr	r3, [r2]
 286 0076 23F08853 		bic	r3, r3, #285212672
ARM GAS  /tmp/ccoCXvoW.s 			page 31


 287 007a 23F00113 		bic	r3, r3, #65537
 288 007e 1360     		str	r3, [r2]
 275:Drivers/STM32L1xx_HAL_Driver/Src/stm32l1xx_hal_rcc.c **** 
 289              		.loc 1 275 3 view .LVU78
 290 0080 1368     		ldr	r3, [r2]
 291 0082 23F48023 		bic	r3, r3, #262144
 292 0086 1360     		str	r3, [r2]
 278:Drivers/STM32L1xx_HAL_Driver/Src/stm32l1xx_hal_rcc.c **** 
 293              		.loc 1 278 3 view .LVU79
 278:Drivers/STM32L1xx_HAL_Driver/Src/stm32l1xx_hal_rcc.c **** 
 294              		.loc 1 278 15 is_stmt 0 view .LVU80
 295 0088 FFF7FEFF 		bl	HAL_GetTick
 296              	.LVL22:
 278:Drivers/STM32L1xx_HAL_Driver/Src/stm32l1xx_hal_rcc.c **** 
 297              		.loc 1 278 15 view .LVU81
 298 008c 0546     		mov	r5, r0
 299              	.LVL23:
 281:Drivers/STM32L1xx_HAL_Driver/Src/stm32l1xx_hal_rcc.c ****   {
 300              		.loc 1 281 3 is_stmt 1 view .LVU82
 301              	.L17:
 281:Drivers/STM32L1xx_HAL_Driver/Src/stm32l1xx_hal_rcc.c ****   {
 302              		.loc 1 281 9 view .LVU83
 281:Drivers/STM32L1xx_HAL_Driver/Src/stm32l1xx_hal_rcc.c ****   {
 303              		.loc 1 281 10 is_stmt 0 view .LVU84
 304 008e 0C4B     		ldr	r3, .L26
 305 0090 1B68     		ldr	r3, [r3]
 281:Drivers/STM32L1xx_HAL_Driver/Src/stm32l1xx_hal_rcc.c ****   {
 306              		.loc 1 281 9 view .LVU85
 307 0092 13F0007F 		tst	r3, #33554432
 308 0096 06D0     		beq	.L25
 283:Drivers/STM32L1xx_HAL_Driver/Src/stm32l1xx_hal_rcc.c ****     {
 309              		.loc 1 283 5 is_stmt 1 view .LVU86
 283:Drivers/STM32L1xx_HAL_Driver/Src/stm32l1xx_hal_rcc.c ****     {
 310              		.loc 1 283 10 is_stmt 0 view .LVU87
 311 0098 FFF7FEFF 		bl	HAL_GetTick
 312              	.LVL24:
 283:Drivers/STM32L1xx_HAL_Driver/Src/stm32l1xx_hal_rcc.c ****     {
 313              		.loc 1 283 24 view .LVU88
 314 009c 401B     		subs	r0, r0, r5
 283:Drivers/STM32L1xx_HAL_Driver/Src/stm32l1xx_hal_rcc.c ****     {
 315              		.loc 1 283 8 view .LVU89
 316 009e 0228     		cmp	r0, #2
 317 00a0 F5D9     		bls	.L17
 285:Drivers/STM32L1xx_HAL_Driver/Src/stm32l1xx_hal_rcc.c ****     }
 318              		.loc 1 285 14 view .LVU90
 319 00a2 0324     		movs	r4, #3
 320 00a4 C6E7     		b	.L13
 321              	.L25:
 290:Drivers/STM32L1xx_HAL_Driver/Src/stm32l1xx_hal_rcc.c **** 
 322              		.loc 1 290 3 is_stmt 1 view .LVU91
 323 00a6 064B     		ldr	r3, .L26
 324 00a8 0022     		movs	r2, #0
 325 00aa 9A60     		str	r2, [r3, #8]
 293:Drivers/STM32L1xx_HAL_Driver/Src/stm32l1xx_hal_rcc.c **** 
 326              		.loc 1 293 3 view .LVU92
 327 00ac DA60     		str	r2, [r3, #12]
 297:Drivers/STM32L1xx_HAL_Driver/Src/stm32l1xx_hal_rcc.c **** #else
ARM GAS  /tmp/ccoCXvoW.s 			page 32


 328              		.loc 1 297 3 view .LVU93
 329 00ae 4FF47F02 		mov	r2, #16711680
 330 00b2 DA60     		str	r2, [r3, #12]
 303:Drivers/STM32L1xx_HAL_Driver/Src/stm32l1xx_hal_rcc.c **** 
 331              		.loc 1 303 3 view .LVU94
 332 00b4 5A6B     		ldr	r2, [r3, #52]
 333 00b6 42F08072 		orr	r2, r2, #16777216
 334 00ba 5A63     		str	r2, [r3, #52]
 305:Drivers/STM32L1xx_HAL_Driver/Src/stm32l1xx_hal_rcc.c **** }
 335              		.loc 1 305 3 view .LVU95
 305:Drivers/STM32L1xx_HAL_Driver/Src/stm32l1xx_hal_rcc.c **** }
 336              		.loc 1 305 10 is_stmt 0 view .LVU96
 337 00bc BAE7     		b	.L13
 338              	.L27:
 339 00be 00BF     		.align	2
 340              	.L26:
 341 00c0 00380240 		.word	1073887232
 342 00c4 00000000 		.word	SystemCoreClock
 343 00c8 68FF1F00 		.word	2097000
 344 00cc 00000000 		.word	uwTickPrio
 345              		.cfi_endproc
 346              	.LFE72:
 348              		.section	.text.HAL_RCC_OscConfig,"ax",%progbits
 349              		.align	1
 350              		.global	HAL_RCC_OscConfig
 351              		.syntax unified
 352              		.thumb
 353              		.thumb_func
 355              	HAL_RCC_OscConfig:
 356              	.LVL25:
 357              	.LFB73:
 323:Drivers/STM32L1xx_HAL_Driver/Src/stm32l1xx_hal_rcc.c ****   uint32_t tickstart;
 358              		.loc 1 323 1 is_stmt 1 view -0
 359              		.cfi_startproc
 360              		@ args = 0, pretend = 0, frame = 8
 361              		@ frame_needed = 0, uses_anonymous_args = 0
 324:Drivers/STM32L1xx_HAL_Driver/Src/stm32l1xx_hal_rcc.c ****   HAL_StatusTypeDef status;
 362              		.loc 1 324 3 view .LVU98
 325:Drivers/STM32L1xx_HAL_Driver/Src/stm32l1xx_hal_rcc.c ****   uint32_t sysclk_source, pll_config;
 363              		.loc 1 325 3 view .LVU99
 326:Drivers/STM32L1xx_HAL_Driver/Src/stm32l1xx_hal_rcc.c **** 
 364              		.loc 1 326 3 view .LVU100
 329:Drivers/STM32L1xx_HAL_Driver/Src/stm32l1xx_hal_rcc.c ****   {
 365              		.loc 1 329 3 view .LVU101
 329:Drivers/STM32L1xx_HAL_Driver/Src/stm32l1xx_hal_rcc.c ****   {
 366              		.loc 1 329 5 is_stmt 0 view .LVU102
 367 0000 0028     		cmp	r0, #0
 368 0002 00F05E82 		beq	.L90
 323:Drivers/STM32L1xx_HAL_Driver/Src/stm32l1xx_hal_rcc.c ****   uint32_t tickstart;
 369              		.loc 1 323 1 view .LVU103
 370 0006 F0B5     		push	{r4, r5, r6, r7, lr}
 371              	.LCFI6:
 372              		.cfi_def_cfa_offset 20
 373              		.cfi_offset 4, -20
 374              		.cfi_offset 5, -16
 375              		.cfi_offset 6, -12
 376              		.cfi_offset 7, -8
ARM GAS  /tmp/ccoCXvoW.s 			page 33


 377              		.cfi_offset 14, -4
 378 0008 83B0     		sub	sp, sp, #12
 379              	.LCFI7:
 380              		.cfi_def_cfa_offset 32
 381 000a 0446     		mov	r4, r0
 334:Drivers/STM32L1xx_HAL_Driver/Src/stm32l1xx_hal_rcc.c **** 
 382              		.loc 1 334 3 is_stmt 1 view .LVU104
 336:Drivers/STM32L1xx_HAL_Driver/Src/stm32l1xx_hal_rcc.c ****   pll_config = __HAL_RCC_GET_PLL_OSCSOURCE();
 383              		.loc 1 336 3 view .LVU105
 336:Drivers/STM32L1xx_HAL_Driver/Src/stm32l1xx_hal_rcc.c ****   pll_config = __HAL_RCC_GET_PLL_OSCSOURCE();
 384              		.loc 1 336 19 is_stmt 0 view .LVU106
 385 000c A24B     		ldr	r3, .L135
 386 000e 9D68     		ldr	r5, [r3, #8]
 336:Drivers/STM32L1xx_HAL_Driver/Src/stm32l1xx_hal_rcc.c ****   pll_config = __HAL_RCC_GET_PLL_OSCSOURCE();
 387              		.loc 1 336 17 view .LVU107
 388 0010 05F00C05 		and	r5, r5, #12
 389              	.LVL26:
 337:Drivers/STM32L1xx_HAL_Driver/Src/stm32l1xx_hal_rcc.c **** 
 390              		.loc 1 337 3 is_stmt 1 view .LVU108
 337:Drivers/STM32L1xx_HAL_Driver/Src/stm32l1xx_hal_rcc.c **** 
 391              		.loc 1 337 16 is_stmt 0 view .LVU109
 392 0014 9E68     		ldr	r6, [r3, #8]
 337:Drivers/STM32L1xx_HAL_Driver/Src/stm32l1xx_hal_rcc.c **** 
 393              		.loc 1 337 14 view .LVU110
 394 0016 06F48036 		and	r6, r6, #65536
 395              	.LVL27:
 340:Drivers/STM32L1xx_HAL_Driver/Src/stm32l1xx_hal_rcc.c ****   {
 396              		.loc 1 340 3 is_stmt 1 view .LVU111
 340:Drivers/STM32L1xx_HAL_Driver/Src/stm32l1xx_hal_rcc.c ****   {
 397              		.loc 1 340 25 is_stmt 0 view .LVU112
 398 001a 0368     		ldr	r3, [r0]
 340:Drivers/STM32L1xx_HAL_Driver/Src/stm32l1xx_hal_rcc.c ****   {
 399              		.loc 1 340 5 view .LVU113
 400 001c 13F0010F 		tst	r3, #1
 401 0020 1DD0     		beq	.L30
 343:Drivers/STM32L1xx_HAL_Driver/Src/stm32l1xx_hal_rcc.c **** 
 402              		.loc 1 343 5 is_stmt 1 view .LVU114
 346:Drivers/STM32L1xx_HAL_Driver/Src/stm32l1xx_hal_rcc.c ****        || ((sysclk_source == RCC_SYSCLKSOURCE_STATUS_PLLCLK) && (pll_config == RCC_PLLSOURCE_HSE)))
 403              		.loc 1 346 5 view .LVU115
 346:Drivers/STM32L1xx_HAL_Driver/Src/stm32l1xx_hal_rcc.c ****        || ((sysclk_source == RCC_SYSCLKSOURCE_STATUS_PLLCLK) && (pll_config == RCC_PLLSOURCE_HSE)))
 404              		.loc 1 346 7 is_stmt 0 view .LVU116
 405 0022 082D     		cmp	r5, #8
 406 0024 12D0     		beq	.L31
 347:Drivers/STM32L1xx_HAL_Driver/Src/stm32l1xx_hal_rcc.c ****     {
 407              		.loc 1 347 8 view .LVU117
 408 0026 0C2D     		cmp	r5, #12
 409 0028 0ED0     		beq	.L120
 410              	.L32:
 357:Drivers/STM32L1xx_HAL_Driver/Src/stm32l1xx_hal_rcc.c **** 
 411              		.loc 1 357 7 is_stmt 1 view .LVU118
 357:Drivers/STM32L1xx_HAL_Driver/Src/stm32l1xx_hal_rcc.c **** 
 412              		.loc 1 357 7 view .LVU119
 413 002a 6368     		ldr	r3, [r4, #4]
 414 002c 012B     		cmp	r3, #1
 415 002e 35D0     		beq	.L121
 357:Drivers/STM32L1xx_HAL_Driver/Src/stm32l1xx_hal_rcc.c **** 
 416              		.loc 1 357 7 discriminator 2 view .LVU120
ARM GAS  /tmp/ccoCXvoW.s 			page 34


 417 0030 002B     		cmp	r3, #0
 418 0032 49D1     		bne	.L35
 357:Drivers/STM32L1xx_HAL_Driver/Src/stm32l1xx_hal_rcc.c **** 
 419              		.loc 1 357 7 discriminator 4 view .LVU121
 420 0034 984B     		ldr	r3, .L135
 421 0036 1A68     		ldr	r2, [r3]
 422 0038 22F48032 		bic	r2, r2, #65536
 423 003c 1A60     		str	r2, [r3]
 357:Drivers/STM32L1xx_HAL_Driver/Src/stm32l1xx_hal_rcc.c **** 
 424              		.loc 1 357 7 discriminator 4 view .LVU122
 425 003e 1A68     		ldr	r2, [r3]
 426 0040 22F48022 		bic	r2, r2, #262144
 427 0044 1A60     		str	r2, [r3]
 428 0046 2EE0     		b	.L34
 429              	.L120:
 347:Drivers/STM32L1xx_HAL_Driver/Src/stm32l1xx_hal_rcc.c ****     {
 430              		.loc 1 347 62 is_stmt 0 discriminator 1 view .LVU123
 431 0048 002E     		cmp	r6, #0
 432 004a EED0     		beq	.L32
 433              	.L31:
 349:Drivers/STM32L1xx_HAL_Driver/Src/stm32l1xx_hal_rcc.c ****       {
 434              		.loc 1 349 7 is_stmt 1 view .LVU124
 349:Drivers/STM32L1xx_HAL_Driver/Src/stm32l1xx_hal_rcc.c ****       {
 435              		.loc 1 349 11 is_stmt 0 view .LVU125
 436 004c 924B     		ldr	r3, .L135
 437 004e 1B68     		ldr	r3, [r3]
 349:Drivers/STM32L1xx_HAL_Driver/Src/stm32l1xx_hal_rcc.c ****       {
 438              		.loc 1 349 9 view .LVU126
 439 0050 13F4003F 		tst	r3, #131072
 440 0054 03D0     		beq	.L30
 349:Drivers/STM32L1xx_HAL_Driver/Src/stm32l1xx_hal_rcc.c ****       {
 441              		.loc 1 349 75 discriminator 1 view .LVU127
 442 0056 6368     		ldr	r3, [r4, #4]
 349:Drivers/STM32L1xx_HAL_Driver/Src/stm32l1xx_hal_rcc.c ****       {
 443              		.loc 1 349 54 discriminator 1 view .LVU128
 444 0058 002B     		cmp	r3, #0
 445 005a 00F03482 		beq	.L122
 446              	.LVL28:
 447              	.L30:
 391:Drivers/STM32L1xx_HAL_Driver/Src/stm32l1xx_hal_rcc.c ****   {
 448              		.loc 1 391 3 is_stmt 1 view .LVU129
 391:Drivers/STM32L1xx_HAL_Driver/Src/stm32l1xx_hal_rcc.c ****   {
 449              		.loc 1 391 25 is_stmt 0 view .LVU130
 450 005e 2368     		ldr	r3, [r4]
 391:Drivers/STM32L1xx_HAL_Driver/Src/stm32l1xx_hal_rcc.c ****   {
 451              		.loc 1 391 5 view .LVU131
 452 0060 13F0020F 		tst	r3, #2
 453 0064 68D0     		beq	.L42
 394:Drivers/STM32L1xx_HAL_Driver/Src/stm32l1xx_hal_rcc.c ****     assert_param(IS_RCC_CALIBRATION_VALUE(RCC_OscInitStruct->HSICalibrationValue));
 454              		.loc 1 394 5 is_stmt 1 view .LVU132
 395:Drivers/STM32L1xx_HAL_Driver/Src/stm32l1xx_hal_rcc.c **** 
 455              		.loc 1 395 5 view .LVU133
 398:Drivers/STM32L1xx_HAL_Driver/Src/stm32l1xx_hal_rcc.c ****        || ((sysclk_source == RCC_SYSCLKSOURCE_STATUS_PLLCLK) && (pll_config == RCC_PLLSOURCE_HSI)))
 456              		.loc 1 398 5 view .LVU134
 398:Drivers/STM32L1xx_HAL_Driver/Src/stm32l1xx_hal_rcc.c ****        || ((sysclk_source == RCC_SYSCLKSOURCE_STATUS_PLLCLK) && (pll_config == RCC_PLLSOURCE_HSI)))
 457              		.loc 1 398 7 is_stmt 0 view .LVU135
 458 0066 042D     		cmp	r5, #4
ARM GAS  /tmp/ccoCXvoW.s 			page 35


 459 0068 55D0     		beq	.L43
 399:Drivers/STM32L1xx_HAL_Driver/Src/stm32l1xx_hal_rcc.c ****     {
 460              		.loc 1 399 8 view .LVU136
 461 006a 0C2D     		cmp	r5, #12
 462 006c 51D0     		beq	.L123
 463              	.L44:
 416:Drivers/STM32L1xx_HAL_Driver/Src/stm32l1xx_hal_rcc.c ****       {
 464              		.loc 1 416 7 is_stmt 1 view .LVU137
 416:Drivers/STM32L1xx_HAL_Driver/Src/stm32l1xx_hal_rcc.c ****       {
 465              		.loc 1 416 27 is_stmt 0 view .LVU138
 466 006e E368     		ldr	r3, [r4, #12]
 416:Drivers/STM32L1xx_HAL_Driver/Src/stm32l1xx_hal_rcc.c ****       {
 467              		.loc 1 416 9 view .LVU139
 468 0070 002B     		cmp	r3, #0
 469 0072 00F0C780 		beq	.L46
 419:Drivers/STM32L1xx_HAL_Driver/Src/stm32l1xx_hal_rcc.c **** 
 470              		.loc 1 419 9 is_stmt 1 view .LVU140
 471 0076 894B     		ldr	r3, .L135+4
 472 0078 0122     		movs	r2, #1
 473 007a 1A60     		str	r2, [r3]
 422:Drivers/STM32L1xx_HAL_Driver/Src/stm32l1xx_hal_rcc.c **** 
 474              		.loc 1 422 9 view .LVU141
 422:Drivers/STM32L1xx_HAL_Driver/Src/stm32l1xx_hal_rcc.c **** 
 475              		.loc 1 422 21 is_stmt 0 view .LVU142
 476 007c FFF7FEFF 		bl	HAL_GetTick
 477              	.LVL29:
 478 0080 0646     		mov	r6, r0
 479              	.LVL30:
 425:Drivers/STM32L1xx_HAL_Driver/Src/stm32l1xx_hal_rcc.c ****         {
 480              		.loc 1 425 9 is_stmt 1 view .LVU143
 481              	.L47:
 425:Drivers/STM32L1xx_HAL_Driver/Src/stm32l1xx_hal_rcc.c ****         {
 482              		.loc 1 425 14 view .LVU144
 425:Drivers/STM32L1xx_HAL_Driver/Src/stm32l1xx_hal_rcc.c ****         {
 483              		.loc 1 425 15 is_stmt 0 view .LVU145
 484 0082 854B     		ldr	r3, .L135
 485 0084 1B68     		ldr	r3, [r3]
 425:Drivers/STM32L1xx_HAL_Driver/Src/stm32l1xx_hal_rcc.c ****         {
 486              		.loc 1 425 14 view .LVU146
 487 0086 13F0020F 		tst	r3, #2
 488 008a 40F0B280 		bne	.L124
 427:Drivers/STM32L1xx_HAL_Driver/Src/stm32l1xx_hal_rcc.c ****           {
 489              		.loc 1 427 11 is_stmt 1 view .LVU147
 427:Drivers/STM32L1xx_HAL_Driver/Src/stm32l1xx_hal_rcc.c ****           {
 490              		.loc 1 427 15 is_stmt 0 view .LVU148
 491 008e FFF7FEFF 		bl	HAL_GetTick
 492              	.LVL31:
 427:Drivers/STM32L1xx_HAL_Driver/Src/stm32l1xx_hal_rcc.c ****           {
 493              		.loc 1 427 29 view .LVU149
 494 0092 801B     		subs	r0, r0, r6
 427:Drivers/STM32L1xx_HAL_Driver/Src/stm32l1xx_hal_rcc.c ****           {
 495              		.loc 1 427 13 view .LVU150
 496 0094 0228     		cmp	r0, #2
 497 0096 F4D9     		bls	.L47
 429:Drivers/STM32L1xx_HAL_Driver/Src/stm32l1xx_hal_rcc.c ****           }
 498              		.loc 1 429 20 view .LVU151
 499 0098 0320     		movs	r0, #3
ARM GAS  /tmp/ccoCXvoW.s 			page 36


 500 009a 1DE2     		b	.L29
 501              	.LVL32:
 502              	.L121:
 357:Drivers/STM32L1xx_HAL_Driver/Src/stm32l1xx_hal_rcc.c **** 
 503              		.loc 1 357 7 is_stmt 1 discriminator 1 view .LVU152
 504 009c 7E4A     		ldr	r2, .L135
 505 009e 1368     		ldr	r3, [r2]
 506 00a0 43F48033 		orr	r3, r3, #65536
 507 00a4 1360     		str	r3, [r2]
 508              	.L34:
 357:Drivers/STM32L1xx_HAL_Driver/Src/stm32l1xx_hal_rcc.c **** 
 509              		.loc 1 357 7 discriminator 10 view .LVU153
 360:Drivers/STM32L1xx_HAL_Driver/Src/stm32l1xx_hal_rcc.c ****       {
 510              		.loc 1 360 7 discriminator 10 view .LVU154
 360:Drivers/STM32L1xx_HAL_Driver/Src/stm32l1xx_hal_rcc.c ****       {
 511              		.loc 1 360 27 is_stmt 0 discriminator 10 view .LVU155
 512 00a6 6368     		ldr	r3, [r4, #4]
 360:Drivers/STM32L1xx_HAL_Driver/Src/stm32l1xx_hal_rcc.c ****       {
 513              		.loc 1 360 9 discriminator 10 view .LVU156
 514 00a8 23B3     		cbz	r3, .L37
 363:Drivers/STM32L1xx_HAL_Driver/Src/stm32l1xx_hal_rcc.c **** 
 515              		.loc 1 363 9 is_stmt 1 view .LVU157
 363:Drivers/STM32L1xx_HAL_Driver/Src/stm32l1xx_hal_rcc.c **** 
 516              		.loc 1 363 21 is_stmt 0 view .LVU158
 517 00aa FFF7FEFF 		bl	HAL_GetTick
 518              	.LVL33:
 363:Drivers/STM32L1xx_HAL_Driver/Src/stm32l1xx_hal_rcc.c **** 
 519              		.loc 1 363 21 view .LVU159
 520 00ae 0746     		mov	r7, r0
 521              	.LVL34:
 366:Drivers/STM32L1xx_HAL_Driver/Src/stm32l1xx_hal_rcc.c ****         {
 522              		.loc 1 366 9 is_stmt 1 view .LVU160
 523              	.L38:
 366:Drivers/STM32L1xx_HAL_Driver/Src/stm32l1xx_hal_rcc.c ****         {
 524              		.loc 1 366 14 view .LVU161
 366:Drivers/STM32L1xx_HAL_Driver/Src/stm32l1xx_hal_rcc.c ****         {
 525              		.loc 1 366 15 is_stmt 0 view .LVU162
 526 00b0 794B     		ldr	r3, .L135
 527 00b2 1B68     		ldr	r3, [r3]
 366:Drivers/STM32L1xx_HAL_Driver/Src/stm32l1xx_hal_rcc.c ****         {
 528              		.loc 1 366 14 view .LVU163
 529 00b4 13F4003F 		tst	r3, #131072
 530 00b8 D1D1     		bne	.L30
 368:Drivers/STM32L1xx_HAL_Driver/Src/stm32l1xx_hal_rcc.c ****           {
 531              		.loc 1 368 11 is_stmt 1 view .LVU164
 368:Drivers/STM32L1xx_HAL_Driver/Src/stm32l1xx_hal_rcc.c ****           {
 532              		.loc 1 368 15 is_stmt 0 view .LVU165
 533 00ba FFF7FEFF 		bl	HAL_GetTick
 534              	.LVL35:
 368:Drivers/STM32L1xx_HAL_Driver/Src/stm32l1xx_hal_rcc.c ****           {
 535              		.loc 1 368 29 view .LVU166
 536 00be C01B     		subs	r0, r0, r7
 368:Drivers/STM32L1xx_HAL_Driver/Src/stm32l1xx_hal_rcc.c ****           {
 537              		.loc 1 368 13 view .LVU167
 538 00c0 6428     		cmp	r0, #100
 539 00c2 F5D9     		bls	.L38
 370:Drivers/STM32L1xx_HAL_Driver/Src/stm32l1xx_hal_rcc.c ****           }
ARM GAS  /tmp/ccoCXvoW.s 			page 37


 540              		.loc 1 370 20 view .LVU168
 541 00c4 0320     		movs	r0, #3
 542 00c6 07E2     		b	.L29
 543              	.LVL36:
 544              	.L35:
 357:Drivers/STM32L1xx_HAL_Driver/Src/stm32l1xx_hal_rcc.c **** 
 545              		.loc 1 357 7 is_stmt 1 discriminator 5 view .LVU169
 546 00c8 052B     		cmp	r3, #5
 547 00ca 09D0     		beq	.L125
 357:Drivers/STM32L1xx_HAL_Driver/Src/stm32l1xx_hal_rcc.c **** 
 548              		.loc 1 357 7 discriminator 8 view .LVU170
 549 00cc 724B     		ldr	r3, .L135
 550 00ce 1A68     		ldr	r2, [r3]
 551 00d0 22F48032 		bic	r2, r2, #65536
 552 00d4 1A60     		str	r2, [r3]
 357:Drivers/STM32L1xx_HAL_Driver/Src/stm32l1xx_hal_rcc.c **** 
 553              		.loc 1 357 7 discriminator 8 view .LVU171
 554 00d6 1A68     		ldr	r2, [r3]
 555 00d8 22F48022 		bic	r2, r2, #262144
 556 00dc 1A60     		str	r2, [r3]
 557 00de E2E7     		b	.L34
 558              	.L125:
 357:Drivers/STM32L1xx_HAL_Driver/Src/stm32l1xx_hal_rcc.c **** 
 559              		.loc 1 357 7 discriminator 7 view .LVU172
 560 00e0 6D4B     		ldr	r3, .L135
 561 00e2 1A68     		ldr	r2, [r3]
 562 00e4 42F48022 		orr	r2, r2, #262144
 563 00e8 1A60     		str	r2, [r3]
 357:Drivers/STM32L1xx_HAL_Driver/Src/stm32l1xx_hal_rcc.c **** 
 564              		.loc 1 357 7 discriminator 7 view .LVU173
 565 00ea 1A68     		ldr	r2, [r3]
 566 00ec 42F48032 		orr	r2, r2, #65536
 567 00f0 1A60     		str	r2, [r3]
 568 00f2 D8E7     		b	.L34
 569              	.L37:
 377:Drivers/STM32L1xx_HAL_Driver/Src/stm32l1xx_hal_rcc.c **** 
 570              		.loc 1 377 9 view .LVU174
 377:Drivers/STM32L1xx_HAL_Driver/Src/stm32l1xx_hal_rcc.c **** 
 571              		.loc 1 377 21 is_stmt 0 view .LVU175
 572 00f4 FFF7FEFF 		bl	HAL_GetTick
 573              	.LVL37:
 377:Drivers/STM32L1xx_HAL_Driver/Src/stm32l1xx_hal_rcc.c **** 
 574              		.loc 1 377 21 view .LVU176
 575 00f8 0746     		mov	r7, r0
 576              	.LVL38:
 380:Drivers/STM32L1xx_HAL_Driver/Src/stm32l1xx_hal_rcc.c ****         {
 577              		.loc 1 380 9 is_stmt 1 view .LVU177
 578              	.L40:
 380:Drivers/STM32L1xx_HAL_Driver/Src/stm32l1xx_hal_rcc.c ****         {
 579              		.loc 1 380 14 view .LVU178
 380:Drivers/STM32L1xx_HAL_Driver/Src/stm32l1xx_hal_rcc.c ****         {
 580              		.loc 1 380 15 is_stmt 0 view .LVU179
 581 00fa 674B     		ldr	r3, .L135
 582 00fc 1B68     		ldr	r3, [r3]
 380:Drivers/STM32L1xx_HAL_Driver/Src/stm32l1xx_hal_rcc.c ****         {
 583              		.loc 1 380 14 view .LVU180
 584 00fe 13F4003F 		tst	r3, #131072
ARM GAS  /tmp/ccoCXvoW.s 			page 38


 585 0102 ACD0     		beq	.L30
 382:Drivers/STM32L1xx_HAL_Driver/Src/stm32l1xx_hal_rcc.c ****           {
 586              		.loc 1 382 12 is_stmt 1 view .LVU181
 382:Drivers/STM32L1xx_HAL_Driver/Src/stm32l1xx_hal_rcc.c ****           {
 587              		.loc 1 382 16 is_stmt 0 view .LVU182
 588 0104 FFF7FEFF 		bl	HAL_GetTick
 589              	.LVL39:
 382:Drivers/STM32L1xx_HAL_Driver/Src/stm32l1xx_hal_rcc.c ****           {
 590              		.loc 1 382 30 view .LVU183
 591 0108 C01B     		subs	r0, r0, r7
 382:Drivers/STM32L1xx_HAL_Driver/Src/stm32l1xx_hal_rcc.c ****           {
 592              		.loc 1 382 14 view .LVU184
 593 010a 6428     		cmp	r0, #100
 594 010c F5D9     		bls	.L40
 384:Drivers/STM32L1xx_HAL_Driver/Src/stm32l1xx_hal_rcc.c ****           }
 595              		.loc 1 384 20 view .LVU185
 596 010e 0320     		movs	r0, #3
 597 0110 E2E1     		b	.L29
 598              	.LVL40:
 599              	.L123:
 399:Drivers/STM32L1xx_HAL_Driver/Src/stm32l1xx_hal_rcc.c ****     {
 600              		.loc 1 399 62 discriminator 1 view .LVU186
 601 0112 002E     		cmp	r6, #0
 602 0114 ABD1     		bne	.L44
 603              	.L43:
 402:Drivers/STM32L1xx_HAL_Driver/Src/stm32l1xx_hal_rcc.c ****       {
 604              		.loc 1 402 7 is_stmt 1 view .LVU187
 402:Drivers/STM32L1xx_HAL_Driver/Src/stm32l1xx_hal_rcc.c ****       {
 605              		.loc 1 402 11 is_stmt 0 view .LVU188
 606 0116 604B     		ldr	r3, .L135
 607 0118 1B68     		ldr	r3, [r3]
 402:Drivers/STM32L1xx_HAL_Driver/Src/stm32l1xx_hal_rcc.c ****       {
 608              		.loc 1 402 9 view .LVU189
 609 011a 13F0020F 		tst	r3, #2
 610 011e 03D0     		beq	.L45
 402:Drivers/STM32L1xx_HAL_Driver/Src/stm32l1xx_hal_rcc.c ****       {
 611              		.loc 1 402 75 discriminator 1 view .LVU190
 612 0120 E368     		ldr	r3, [r4, #12]
 402:Drivers/STM32L1xx_HAL_Driver/Src/stm32l1xx_hal_rcc.c ****       {
 613              		.loc 1 402 54 discriminator 1 view .LVU191
 614 0122 012B     		cmp	r3, #1
 615 0124 40F0D181 		bne	.L94
 616              	.L45:
 410:Drivers/STM32L1xx_HAL_Driver/Src/stm32l1xx_hal_rcc.c ****       }
 617              		.loc 1 410 9 is_stmt 1 view .LVU192
 618 0128 5B4A     		ldr	r2, .L135
 619 012a 5368     		ldr	r3, [r2, #4]
 620 012c 23F4F853 		bic	r3, r3, #7936
 621 0130 2169     		ldr	r1, [r4, #16]
 622 0132 43EA0123 		orr	r3, r3, r1, lsl #8
 623 0136 5360     		str	r3, [r2, #4]
 624              	.LVL41:
 625              	.L42:
 456:Drivers/STM32L1xx_HAL_Driver/Src/stm32l1xx_hal_rcc.c ****   {
 626              		.loc 1 456 3 view .LVU193
 456:Drivers/STM32L1xx_HAL_Driver/Src/stm32l1xx_hal_rcc.c ****   {
 627              		.loc 1 456 25 is_stmt 0 view .LVU194
ARM GAS  /tmp/ccoCXvoW.s 			page 39


 628 0138 2368     		ldr	r3, [r4]
 456:Drivers/STM32L1xx_HAL_Driver/Src/stm32l1xx_hal_rcc.c ****   {
 629              		.loc 1 456 5 view .LVU195
 630 013a 13F0100F 		tst	r3, #16
 631 013e 3BD0     		beq	.L51
 459:Drivers/STM32L1xx_HAL_Driver/Src/stm32l1xx_hal_rcc.c ****     {
 632              		.loc 1 459 5 is_stmt 1 view .LVU196
 459:Drivers/STM32L1xx_HAL_Driver/Src/stm32l1xx_hal_rcc.c ****     {
 633              		.loc 1 459 7 is_stmt 0 view .LVU197
 634 0140 002D     		cmp	r5, #0
 635 0142 40F08580 		bne	.L52
 461:Drivers/STM32L1xx_HAL_Driver/Src/stm32l1xx_hal_rcc.c ****       {
 636              		.loc 1 461 7 is_stmt 1 view .LVU198
 461:Drivers/STM32L1xx_HAL_Driver/Src/stm32l1xx_hal_rcc.c ****       {
 637              		.loc 1 461 11 is_stmt 0 view .LVU199
 638 0146 544B     		ldr	r3, .L135
 639 0148 1B68     		ldr	r3, [r3]
 461:Drivers/STM32L1xx_HAL_Driver/Src/stm32l1xx_hal_rcc.c ****       {
 640              		.loc 1 461 9 view .LVU200
 641 014a 13F4007F 		tst	r3, #512
 642 014e 03D0     		beq	.L53
 461:Drivers/STM32L1xx_HAL_Driver/Src/stm32l1xx_hal_rcc.c ****       {
 643              		.loc 1 461 75 discriminator 1 view .LVU201
 644 0150 A369     		ldr	r3, [r4, #24]
 461:Drivers/STM32L1xx_HAL_Driver/Src/stm32l1xx_hal_rcc.c ****       {
 645              		.loc 1 461 54 discriminator 1 view .LVU202
 646 0152 002B     		cmp	r3, #0
 647 0154 00F0BB81 		beq	.L97
 648              	.L53:
 469:Drivers/STM32L1xx_HAL_Driver/Src/stm32l1xx_hal_rcc.c ****         assert_param(IS_RCC_MSI_CLOCK_RANGE(RCC_OscInitStruct->MSIClockRange));
 649              		.loc 1 469 9 is_stmt 1 view .LVU203
 470:Drivers/STM32L1xx_HAL_Driver/Src/stm32l1xx_hal_rcc.c **** 
 650              		.loc 1 470 9 view .LVU204
 475:Drivers/STM32L1xx_HAL_Driver/Src/stm32l1xx_hal_rcc.c ****         {
 651              		.loc 1 475 9 view .LVU205
 475:Drivers/STM32L1xx_HAL_Driver/Src/stm32l1xx_hal_rcc.c ****         {
 652              		.loc 1 475 29 is_stmt 0 view .LVU206
 653 0158 206A     		ldr	r0, [r4, #32]
 475:Drivers/STM32L1xx_HAL_Driver/Src/stm32l1xx_hal_rcc.c ****         {
 654              		.loc 1 475 47 view .LVU207
 655 015a 4F4B     		ldr	r3, .L135
 656 015c 5B68     		ldr	r3, [r3, #4]
 657 015e 03F46043 		and	r3, r3, #57344
 475:Drivers/STM32L1xx_HAL_Driver/Src/stm32l1xx_hal_rcc.c ****         {
 658              		.loc 1 475 11 view .LVU208
 659 0162 9842     		cmp	r0, r3
 660 0164 60D9     		bls	.L54
 478:Drivers/STM32L1xx_HAL_Driver/Src/stm32l1xx_hal_rcc.c ****           {
 661              		.loc 1 478 11 is_stmt 1 view .LVU209
 478:Drivers/STM32L1xx_HAL_Driver/Src/stm32l1xx_hal_rcc.c ****           {
 662              		.loc 1 478 14 is_stmt 0 view .LVU210
 663 0166 FFF7FEFF 		bl	RCC_SetFlashLatencyFromMSIRange
 664              	.LVL42:
 478:Drivers/STM32L1xx_HAL_Driver/Src/stm32l1xx_hal_rcc.c ****           {
 665              		.loc 1 478 13 view .LVU211
 666 016a 0028     		cmp	r0, #0
 667 016c 40F0B181 		bne	.L98
ARM GAS  /tmp/ccoCXvoW.s 			page 40


 484:Drivers/STM32L1xx_HAL_Driver/Src/stm32l1xx_hal_rcc.c ****           /* Adjusts the Multiple Speed oscillator (MSI) calibration value.*/
 668              		.loc 1 484 11 is_stmt 1 view .LVU212
 669 0170 494A     		ldr	r2, .L135
 670 0172 5368     		ldr	r3, [r2, #4]
 671 0174 23F46043 		bic	r3, r3, #57344
 672 0178 216A     		ldr	r1, [r4, #32]
 673 017a 0B43     		orrs	r3, r3, r1
 674 017c 5360     		str	r3, [r2, #4]
 486:Drivers/STM32L1xx_HAL_Driver/Src/stm32l1xx_hal_rcc.c ****         }
 675              		.loc 1 486 11 view .LVU213
 676 017e 5368     		ldr	r3, [r2, #4]
 677 0180 23F07F43 		bic	r3, r3, #-16777216
 678 0184 E169     		ldr	r1, [r4, #28]
 679 0186 43EA0163 		orr	r3, r3, r1, lsl #24
 680 018a 5360     		str	r3, [r2, #4]
 681              	.L55:
 504:Drivers/STM32L1xx_HAL_Driver/Src/stm32l1xx_hal_rcc.c ****                            >> AHBPrescTable[((RCC->CFGR & RCC_CFGR_HPRE) >> RCC_CFGR_HPRE_Pos)];
 682              		.loc 1 504 9 view .LVU214
 504:Drivers/STM32L1xx_HAL_Driver/Src/stm32l1xx_hal_rcc.c ****                            >> AHBPrescTable[((RCC->CFGR & RCC_CFGR_HPRE) >> RCC_CFGR_HPRE_Pos)];
 683              		.loc 1 504 65 is_stmt 0 view .LVU215
 684 018c 236A     		ldr	r3, [r4, #32]
 504:Drivers/STM32L1xx_HAL_Driver/Src/stm32l1xx_hal_rcc.c ****                            >> AHBPrescTable[((RCC->CFGR & RCC_CFGR_HPRE) >> RCC_CFGR_HPRE_Pos)];
 685              		.loc 1 504 81 view .LVU216
 686 018e 5B0B     		lsrs	r3, r3, #13
 504:Drivers/STM32L1xx_HAL_Driver/Src/stm32l1xx_hal_rcc.c ****                            >> AHBPrescTable[((RCC->CFGR & RCC_CFGR_HPRE) >> RCC_CFGR_HPRE_Pos)];
 687              		.loc 1 504 108 view .LVU217
 688 0190 5A1C     		adds	r2, r3, #1
 504:Drivers/STM32L1xx_HAL_Driver/Src/stm32l1xx_hal_rcc.c ****                            >> AHBPrescTable[((RCC->CFGR & RCC_CFGR_HPRE) >> RCC_CFGR_HPRE_Pos)];
 689              		.loc 1 504 36 view .LVU218
 690 0192 4FF40043 		mov	r3, #32768
 691 0196 9340     		lsls	r3, r3, r2
 505:Drivers/STM32L1xx_HAL_Driver/Src/stm32l1xx_hal_rcc.c **** 
 692              		.loc 1 505 50 view .LVU219
 693 0198 3F4A     		ldr	r2, .L135
 694 019a 9268     		ldr	r2, [r2, #8]
 505:Drivers/STM32L1xx_HAL_Driver/Src/stm32l1xx_hal_rcc.c **** 
 695              		.loc 1 505 74 view .LVU220
 696 019c C2F30312 		ubfx	r2, r2, #4, #4
 505:Drivers/STM32L1xx_HAL_Driver/Src/stm32l1xx_hal_rcc.c **** 
 697              		.loc 1 505 44 view .LVU221
 698 01a0 3F49     		ldr	r1, .L135+8
 699 01a2 8A5C     		ldrb	r2, [r1, r2]	@ zero_extendqisi2
 505:Drivers/STM32L1xx_HAL_Driver/Src/stm32l1xx_hal_rcc.c **** 
 700              		.loc 1 505 28 view .LVU222
 701 01a4 D340     		lsrs	r3, r3, r2
 504:Drivers/STM32L1xx_HAL_Driver/Src/stm32l1xx_hal_rcc.c ****                            >> AHBPrescTable[((RCC->CFGR & RCC_CFGR_HPRE) >> RCC_CFGR_HPRE_Pos)];
 702              		.loc 1 504 25 view .LVU223
 703 01a6 3F4A     		ldr	r2, .L135+12
 704 01a8 1360     		str	r3, [r2]
 508:Drivers/STM32L1xx_HAL_Driver/Src/stm32l1xx_hal_rcc.c ****         if(status != HAL_OK)
 705              		.loc 1 508 9 is_stmt 1 view .LVU224
 508:Drivers/STM32L1xx_HAL_Driver/Src/stm32l1xx_hal_rcc.c ****         if(status != HAL_OK)
 706              		.loc 1 508 18 is_stmt 0 view .LVU225
 707 01aa 3F4B     		ldr	r3, .L135+16
 708 01ac 1868     		ldr	r0, [r3]
 709 01ae FFF7FEFF 		bl	HAL_InitTick
 710              	.LVL43:
ARM GAS  /tmp/ccoCXvoW.s 			page 41


 509:Drivers/STM32L1xx_HAL_Driver/Src/stm32l1xx_hal_rcc.c ****         {
 711              		.loc 1 509 9 is_stmt 1 view .LVU226
 509:Drivers/STM32L1xx_HAL_Driver/Src/stm32l1xx_hal_rcc.c ****         {
 712              		.loc 1 509 11 is_stmt 0 view .LVU227
 713 01b2 0028     		cmp	r0, #0
 714 01b4 40F09081 		bne	.L29
 715              	.LVL44:
 716              	.L51:
 567:Drivers/STM32L1xx_HAL_Driver/Src/stm32l1xx_hal_rcc.c ****   {
 717              		.loc 1 567 3 is_stmt 1 view .LVU228
 567:Drivers/STM32L1xx_HAL_Driver/Src/stm32l1xx_hal_rcc.c ****   {
 718              		.loc 1 567 25 is_stmt 0 view .LVU229
 719 01b8 2368     		ldr	r3, [r4]
 567:Drivers/STM32L1xx_HAL_Driver/Src/stm32l1xx_hal_rcc.c ****   {
 720              		.loc 1 567 5 view .LVU230
 721 01ba 13F0080F 		tst	r3, #8
 722 01be 00F09B80 		beq	.L61
 570:Drivers/STM32L1xx_HAL_Driver/Src/stm32l1xx_hal_rcc.c **** 
 723              		.loc 1 570 5 is_stmt 1 view .LVU231
 573:Drivers/STM32L1xx_HAL_Driver/Src/stm32l1xx_hal_rcc.c ****     {
 724              		.loc 1 573 5 view .LVU232
 573:Drivers/STM32L1xx_HAL_Driver/Src/stm32l1xx_hal_rcc.c ****     {
 725              		.loc 1 573 25 is_stmt 0 view .LVU233
 726 01c2 6369     		ldr	r3, [r4, #20]
 573:Drivers/STM32L1xx_HAL_Driver/Src/stm32l1xx_hal_rcc.c ****     {
 727              		.loc 1 573 7 view .LVU234
 728 01c4 002B     		cmp	r3, #0
 729 01c6 00F08480 		beq	.L62
 576:Drivers/STM32L1xx_HAL_Driver/Src/stm32l1xx_hal_rcc.c **** 
 730              		.loc 1 576 7 is_stmt 1 view .LVU235
 731 01ca 344B     		ldr	r3, .L135+4
 732 01cc 0122     		movs	r2, #1
 733 01ce C3F88026 		str	r2, [r3, #1664]
 579:Drivers/STM32L1xx_HAL_Driver/Src/stm32l1xx_hal_rcc.c **** 
 734              		.loc 1 579 7 view .LVU236
 579:Drivers/STM32L1xx_HAL_Driver/Src/stm32l1xx_hal_rcc.c **** 
 735              		.loc 1 579 19 is_stmt 0 view .LVU237
 736 01d2 FFF7FEFF 		bl	HAL_GetTick
 737              	.LVL45:
 738 01d6 0646     		mov	r6, r0
 739              	.LVL46:
 582:Drivers/STM32L1xx_HAL_Driver/Src/stm32l1xx_hal_rcc.c ****       {
 740              		.loc 1 582 7 is_stmt 1 view .LVU238
 741              	.L63:
 582:Drivers/STM32L1xx_HAL_Driver/Src/stm32l1xx_hal_rcc.c ****       {
 742              		.loc 1 582 12 view .LVU239
 582:Drivers/STM32L1xx_HAL_Driver/Src/stm32l1xx_hal_rcc.c ****       {
 743              		.loc 1 582 13 is_stmt 0 view .LVU240
 744 01d8 2F4B     		ldr	r3, .L135
 745 01da 5B6B     		ldr	r3, [r3, #52]
 582:Drivers/STM32L1xx_HAL_Driver/Src/stm32l1xx_hal_rcc.c ****       {
 746              		.loc 1 582 12 view .LVU241
 747 01dc 13F0020F 		tst	r3, #2
 748 01e0 40F08A80 		bne	.L61
 584:Drivers/STM32L1xx_HAL_Driver/Src/stm32l1xx_hal_rcc.c ****         {
 749              		.loc 1 584 9 is_stmt 1 view .LVU242
 584:Drivers/STM32L1xx_HAL_Driver/Src/stm32l1xx_hal_rcc.c ****         {
ARM GAS  /tmp/ccoCXvoW.s 			page 42


 750              		.loc 1 584 13 is_stmt 0 view .LVU243
 751 01e4 FFF7FEFF 		bl	HAL_GetTick
 752              	.LVL47:
 584:Drivers/STM32L1xx_HAL_Driver/Src/stm32l1xx_hal_rcc.c ****         {
 753              		.loc 1 584 27 view .LVU244
 754 01e8 801B     		subs	r0, r0, r6
 584:Drivers/STM32L1xx_HAL_Driver/Src/stm32l1xx_hal_rcc.c ****         {
 755              		.loc 1 584 11 view .LVU245
 756 01ea 0228     		cmp	r0, #2
 757 01ec F4D9     		bls	.L63
 586:Drivers/STM32L1xx_HAL_Driver/Src/stm32l1xx_hal_rcc.c ****         }
 758              		.loc 1 586 18 view .LVU246
 759 01ee 0320     		movs	r0, #3
 760 01f0 72E1     		b	.L29
 761              	.L124:
 434:Drivers/STM32L1xx_HAL_Driver/Src/stm32l1xx_hal_rcc.c ****       }
 762              		.loc 1 434 9 is_stmt 1 view .LVU247
 763 01f2 294A     		ldr	r2, .L135
 764 01f4 5368     		ldr	r3, [r2, #4]
 765 01f6 23F4F853 		bic	r3, r3, #7936
 766 01fa 2169     		ldr	r1, [r4, #16]
 767 01fc 43EA0123 		orr	r3, r3, r1, lsl #8
 768 0200 5360     		str	r3, [r2, #4]
 769 0202 99E7     		b	.L42
 770              	.LVL48:
 771              	.L46:
 439:Drivers/STM32L1xx_HAL_Driver/Src/stm32l1xx_hal_rcc.c **** 
 772              		.loc 1 439 9 view .LVU248
 773 0204 254B     		ldr	r3, .L135+4
 774 0206 0022     		movs	r2, #0
 775 0208 1A60     		str	r2, [r3]
 442:Drivers/STM32L1xx_HAL_Driver/Src/stm32l1xx_hal_rcc.c **** 
 776              		.loc 1 442 9 view .LVU249
 442:Drivers/STM32L1xx_HAL_Driver/Src/stm32l1xx_hal_rcc.c **** 
 777              		.loc 1 442 21 is_stmt 0 view .LVU250
 778 020a FFF7FEFF 		bl	HAL_GetTick
 779              	.LVL49:
 780 020e 0646     		mov	r6, r0
 781              	.LVL50:
 445:Drivers/STM32L1xx_HAL_Driver/Src/stm32l1xx_hal_rcc.c ****         {
 782              		.loc 1 445 9 is_stmt 1 view .LVU251
 783              	.L49:
 445:Drivers/STM32L1xx_HAL_Driver/Src/stm32l1xx_hal_rcc.c ****         {
 784              		.loc 1 445 14 view .LVU252
 445:Drivers/STM32L1xx_HAL_Driver/Src/stm32l1xx_hal_rcc.c ****         {
 785              		.loc 1 445 15 is_stmt 0 view .LVU253
 786 0210 214B     		ldr	r3, .L135
 787 0212 1B68     		ldr	r3, [r3]
 445:Drivers/STM32L1xx_HAL_Driver/Src/stm32l1xx_hal_rcc.c ****         {
 788              		.loc 1 445 14 view .LVU254
 789 0214 13F0020F 		tst	r3, #2
 790 0218 8ED0     		beq	.L42
 447:Drivers/STM32L1xx_HAL_Driver/Src/stm32l1xx_hal_rcc.c ****           {
 791              		.loc 1 447 11 is_stmt 1 view .LVU255
 447:Drivers/STM32L1xx_HAL_Driver/Src/stm32l1xx_hal_rcc.c ****           {
 792              		.loc 1 447 15 is_stmt 0 view .LVU256
 793 021a FFF7FEFF 		bl	HAL_GetTick
ARM GAS  /tmp/ccoCXvoW.s 			page 43


 794              	.LVL51:
 447:Drivers/STM32L1xx_HAL_Driver/Src/stm32l1xx_hal_rcc.c ****           {
 795              		.loc 1 447 29 view .LVU257
 796 021e 801B     		subs	r0, r0, r6
 447:Drivers/STM32L1xx_HAL_Driver/Src/stm32l1xx_hal_rcc.c ****           {
 797              		.loc 1 447 13 view .LVU258
 798 0220 0228     		cmp	r0, #2
 799 0222 F5D9     		bls	.L49
 449:Drivers/STM32L1xx_HAL_Driver/Src/stm32l1xx_hal_rcc.c ****           }
 800              		.loc 1 449 20 view .LVU259
 801 0224 0320     		movs	r0, #3
 802 0226 57E1     		b	.L29
 803              	.LVL52:
 804              	.L54:
 492:Drivers/STM32L1xx_HAL_Driver/Src/stm32l1xx_hal_rcc.c ****           /* Adjusts the Multiple Speed oscillator (MSI) calibration value.*/
 805              		.loc 1 492 11 is_stmt 1 view .LVU260
 806 0228 1B4A     		ldr	r2, .L135
 807 022a 5368     		ldr	r3, [r2, #4]
 808 022c 23F46043 		bic	r3, r3, #57344
 809 0230 1843     		orrs	r0, r0, r3
 810 0232 5060     		str	r0, [r2, #4]
 494:Drivers/STM32L1xx_HAL_Driver/Src/stm32l1xx_hal_rcc.c **** 
 811              		.loc 1 494 11 view .LVU261
 812 0234 5368     		ldr	r3, [r2, #4]
 813 0236 23F07F43 		bic	r3, r3, #-16777216
 814 023a E169     		ldr	r1, [r4, #28]
 815 023c 43EA0163 		orr	r3, r3, r1, lsl #24
 816 0240 5360     		str	r3, [r2, #4]
 497:Drivers/STM32L1xx_HAL_Driver/Src/stm32l1xx_hal_rcc.c ****           {
 817              		.loc 1 497 11 view .LVU262
 497:Drivers/STM32L1xx_HAL_Driver/Src/stm32l1xx_hal_rcc.c ****           {
 818              		.loc 1 497 14 is_stmt 0 view .LVU263
 819 0242 206A     		ldr	r0, [r4, #32]
 820 0244 FFF7FEFF 		bl	RCC_SetFlashLatencyFromMSIRange
 821              	.LVL53:
 497:Drivers/STM32L1xx_HAL_Driver/Src/stm32l1xx_hal_rcc.c ****           {
 822              		.loc 1 497 13 view .LVU264
 823 0248 0028     		cmp	r0, #0
 824 024a 9FD0     		beq	.L55
 499:Drivers/STM32L1xx_HAL_Driver/Src/stm32l1xx_hal_rcc.c ****           }
 825              		.loc 1 499 20 view .LVU265
 826 024c 0120     		movs	r0, #1
 827 024e 43E1     		b	.L29
 828              	.L52:
 518:Drivers/STM32L1xx_HAL_Driver/Src/stm32l1xx_hal_rcc.c **** 
 829              		.loc 1 518 7 is_stmt 1 view .LVU266
 521:Drivers/STM32L1xx_HAL_Driver/Src/stm32l1xx_hal_rcc.c ****       {
 830              		.loc 1 521 7 view .LVU267
 521:Drivers/STM32L1xx_HAL_Driver/Src/stm32l1xx_hal_rcc.c ****       {
 831              		.loc 1 521 27 is_stmt 0 view .LVU268
 832 0250 A369     		ldr	r3, [r4, #24]
 521:Drivers/STM32L1xx_HAL_Driver/Src/stm32l1xx_hal_rcc.c ****       {
 833              		.loc 1 521 9 view .LVU269
 834 0252 5BB3     		cbz	r3, .L56
 524:Drivers/STM32L1xx_HAL_Driver/Src/stm32l1xx_hal_rcc.c **** 
 835              		.loc 1 524 9 is_stmt 1 view .LVU270
 836 0254 114B     		ldr	r3, .L135+4
ARM GAS  /tmp/ccoCXvoW.s 			page 44


 837 0256 0122     		movs	r2, #1
 838 0258 1A62     		str	r2, [r3, #32]
 527:Drivers/STM32L1xx_HAL_Driver/Src/stm32l1xx_hal_rcc.c **** 
 839              		.loc 1 527 9 view .LVU271
 527:Drivers/STM32L1xx_HAL_Driver/Src/stm32l1xx_hal_rcc.c **** 
 840              		.loc 1 527 21 is_stmt 0 view .LVU272
 841 025a FFF7FEFF 		bl	HAL_GetTick
 842              	.LVL54:
 843 025e 0646     		mov	r6, r0
 844              	.LVL55:
 530:Drivers/STM32L1xx_HAL_Driver/Src/stm32l1xx_hal_rcc.c ****         {
 845              		.loc 1 530 9 is_stmt 1 view .LVU273
 846              	.L57:
 530:Drivers/STM32L1xx_HAL_Driver/Src/stm32l1xx_hal_rcc.c ****         {
 847              		.loc 1 530 14 view .LVU274
 530:Drivers/STM32L1xx_HAL_Driver/Src/stm32l1xx_hal_rcc.c ****         {
 848              		.loc 1 530 15 is_stmt 0 view .LVU275
 849 0260 0D4B     		ldr	r3, .L135
 850 0262 1B68     		ldr	r3, [r3]
 530:Drivers/STM32L1xx_HAL_Driver/Src/stm32l1xx_hal_rcc.c ****         {
 851              		.loc 1 530 14 view .LVU276
 852 0264 13F4007F 		tst	r3, #512
 853 0268 06D1     		bne	.L126
 532:Drivers/STM32L1xx_HAL_Driver/Src/stm32l1xx_hal_rcc.c ****           {
 854              		.loc 1 532 11 is_stmt 1 view .LVU277
 532:Drivers/STM32L1xx_HAL_Driver/Src/stm32l1xx_hal_rcc.c ****           {
 855              		.loc 1 532 15 is_stmt 0 view .LVU278
 856 026a FFF7FEFF 		bl	HAL_GetTick
 857              	.LVL56:
 532:Drivers/STM32L1xx_HAL_Driver/Src/stm32l1xx_hal_rcc.c ****           {
 858              		.loc 1 532 29 view .LVU279
 859 026e 801B     		subs	r0, r0, r6
 532:Drivers/STM32L1xx_HAL_Driver/Src/stm32l1xx_hal_rcc.c ****           {
 860              		.loc 1 532 13 view .LVU280
 861 0270 0228     		cmp	r0, #2
 862 0272 F5D9     		bls	.L57
 534:Drivers/STM32L1xx_HAL_Driver/Src/stm32l1xx_hal_rcc.c ****           }
 863              		.loc 1 534 20 view .LVU281
 864 0274 0320     		movs	r0, #3
 865 0276 2FE1     		b	.L29
 866              	.L126:
 538:Drivers/STM32L1xx_HAL_Driver/Src/stm32l1xx_hal_rcc.c ****         assert_param(IS_RCC_MSI_CLOCK_RANGE(RCC_OscInitStruct->MSIClockRange));
 867              		.loc 1 538 9 is_stmt 1 view .LVU282
 539:Drivers/STM32L1xx_HAL_Driver/Src/stm32l1xx_hal_rcc.c **** 
 868              		.loc 1 539 9 view .LVU283
 542:Drivers/STM32L1xx_HAL_Driver/Src/stm32l1xx_hal_rcc.c ****          /* Adjusts the Multiple Speed oscillator (MSI) calibration value.*/
 869              		.loc 1 542 9 view .LVU284
 870 0278 074A     		ldr	r2, .L135
 871 027a 5368     		ldr	r3, [r2, #4]
 872 027c 23F46043 		bic	r3, r3, #57344
 873 0280 216A     		ldr	r1, [r4, #32]
 874 0282 0B43     		orrs	r3, r3, r1
 875 0284 5360     		str	r3, [r2, #4]
 544:Drivers/STM32L1xx_HAL_Driver/Src/stm32l1xx_hal_rcc.c **** 
 876              		.loc 1 544 9 view .LVU285
 877 0286 5368     		ldr	r3, [r2, #4]
 878 0288 23F07F43 		bic	r3, r3, #-16777216
ARM GAS  /tmp/ccoCXvoW.s 			page 45


 879 028c E169     		ldr	r1, [r4, #28]
 880 028e 43EA0163 		orr	r3, r3, r1, lsl #24
 881 0292 5360     		str	r3, [r2, #4]
 882 0294 90E7     		b	.L51
 883              	.L136:
 884 0296 00BF     		.align	2
 885              	.L135:
 886 0298 00380240 		.word	1073887232
 887 029c 00004742 		.word	1111949312
 888 02a0 00000000 		.word	AHBPrescTable
 889 02a4 00000000 		.word	SystemCoreClock
 890 02a8 00000000 		.word	uwTickPrio
 891              	.LVL57:
 892              	.L56:
 550:Drivers/STM32L1xx_HAL_Driver/Src/stm32l1xx_hal_rcc.c **** 
 893              		.loc 1 550 9 view .LVU286
 894 02ac 8F4B     		ldr	r3, .L137
 895 02ae 0022     		movs	r2, #0
 896 02b0 1A62     		str	r2, [r3, #32]
 553:Drivers/STM32L1xx_HAL_Driver/Src/stm32l1xx_hal_rcc.c **** 
 897              		.loc 1 553 9 view .LVU287
 553:Drivers/STM32L1xx_HAL_Driver/Src/stm32l1xx_hal_rcc.c **** 
 898              		.loc 1 553 21 is_stmt 0 view .LVU288
 899 02b2 FFF7FEFF 		bl	HAL_GetTick
 900              	.LVL58:
 901 02b6 0646     		mov	r6, r0
 902              	.LVL59:
 556:Drivers/STM32L1xx_HAL_Driver/Src/stm32l1xx_hal_rcc.c ****         {
 903              		.loc 1 556 9 is_stmt 1 view .LVU289
 904              	.L59:
 556:Drivers/STM32L1xx_HAL_Driver/Src/stm32l1xx_hal_rcc.c ****         {
 905              		.loc 1 556 14 view .LVU290
 556:Drivers/STM32L1xx_HAL_Driver/Src/stm32l1xx_hal_rcc.c ****         {
 906              		.loc 1 556 15 is_stmt 0 view .LVU291
 907 02b8 8D4B     		ldr	r3, .L137+4
 908 02ba 1B68     		ldr	r3, [r3]
 556:Drivers/STM32L1xx_HAL_Driver/Src/stm32l1xx_hal_rcc.c ****         {
 909              		.loc 1 556 14 view .LVU292
 910 02bc 13F4007F 		tst	r3, #512
 911 02c0 3FF47AAF 		beq	.L51
 558:Drivers/STM32L1xx_HAL_Driver/Src/stm32l1xx_hal_rcc.c ****           {
 912              		.loc 1 558 11 is_stmt 1 view .LVU293
 558:Drivers/STM32L1xx_HAL_Driver/Src/stm32l1xx_hal_rcc.c ****           {
 913              		.loc 1 558 15 is_stmt 0 view .LVU294
 914 02c4 FFF7FEFF 		bl	HAL_GetTick
 915              	.LVL60:
 558:Drivers/STM32L1xx_HAL_Driver/Src/stm32l1xx_hal_rcc.c ****           {
 916              		.loc 1 558 29 view .LVU295
 917 02c8 801B     		subs	r0, r0, r6
 558:Drivers/STM32L1xx_HAL_Driver/Src/stm32l1xx_hal_rcc.c ****           {
 918              		.loc 1 558 13 view .LVU296
 919 02ca 0228     		cmp	r0, #2
 920 02cc F4D9     		bls	.L59
 560:Drivers/STM32L1xx_HAL_Driver/Src/stm32l1xx_hal_rcc.c ****           }
 921              		.loc 1 560 20 view .LVU297
 922 02ce 0320     		movs	r0, #3
 923 02d0 02E1     		b	.L29
ARM GAS  /tmp/ccoCXvoW.s 			page 46


 924              	.LVL61:
 925              	.L62:
 593:Drivers/STM32L1xx_HAL_Driver/Src/stm32l1xx_hal_rcc.c **** 
 926              		.loc 1 593 7 is_stmt 1 view .LVU298
 927 02d2 864B     		ldr	r3, .L137
 928 02d4 0022     		movs	r2, #0
 929 02d6 C3F88026 		str	r2, [r3, #1664]
 596:Drivers/STM32L1xx_HAL_Driver/Src/stm32l1xx_hal_rcc.c **** 
 930              		.loc 1 596 7 view .LVU299
 596:Drivers/STM32L1xx_HAL_Driver/Src/stm32l1xx_hal_rcc.c **** 
 931              		.loc 1 596 19 is_stmt 0 view .LVU300
 932 02da FFF7FEFF 		bl	HAL_GetTick
 933              	.LVL62:
 934 02de 0646     		mov	r6, r0
 935              	.LVL63:
 599:Drivers/STM32L1xx_HAL_Driver/Src/stm32l1xx_hal_rcc.c ****       {
 936              		.loc 1 599 7 is_stmt 1 view .LVU301
 937              	.L65:
 599:Drivers/STM32L1xx_HAL_Driver/Src/stm32l1xx_hal_rcc.c ****       {
 938              		.loc 1 599 12 view .LVU302
 599:Drivers/STM32L1xx_HAL_Driver/Src/stm32l1xx_hal_rcc.c ****       {
 939              		.loc 1 599 13 is_stmt 0 view .LVU303
 940 02e0 834B     		ldr	r3, .L137+4
 941 02e2 5B6B     		ldr	r3, [r3, #52]
 599:Drivers/STM32L1xx_HAL_Driver/Src/stm32l1xx_hal_rcc.c ****       {
 942              		.loc 1 599 12 view .LVU304
 943 02e4 13F0020F 		tst	r3, #2
 944 02e8 06D0     		beq	.L61
 601:Drivers/STM32L1xx_HAL_Driver/Src/stm32l1xx_hal_rcc.c ****         {
 945              		.loc 1 601 9 is_stmt 1 view .LVU305
 601:Drivers/STM32L1xx_HAL_Driver/Src/stm32l1xx_hal_rcc.c ****         {
 946              		.loc 1 601 13 is_stmt 0 view .LVU306
 947 02ea FFF7FEFF 		bl	HAL_GetTick
 948              	.LVL64:
 601:Drivers/STM32L1xx_HAL_Driver/Src/stm32l1xx_hal_rcc.c ****         {
 949              		.loc 1 601 27 view .LVU307
 950 02ee 801B     		subs	r0, r0, r6
 601:Drivers/STM32L1xx_HAL_Driver/Src/stm32l1xx_hal_rcc.c ****         {
 951              		.loc 1 601 11 view .LVU308
 952 02f0 0228     		cmp	r0, #2
 953 02f2 F5D9     		bls	.L65
 603:Drivers/STM32L1xx_HAL_Driver/Src/stm32l1xx_hal_rcc.c ****         }
 954              		.loc 1 603 18 view .LVU309
 955 02f4 0320     		movs	r0, #3
 956 02f6 EFE0     		b	.L29
 957              	.LVL65:
 958              	.L61:
 609:Drivers/STM32L1xx_HAL_Driver/Src/stm32l1xx_hal_rcc.c ****   {
 959              		.loc 1 609 3 is_stmt 1 view .LVU310
 609:Drivers/STM32L1xx_HAL_Driver/Src/stm32l1xx_hal_rcc.c ****   {
 960              		.loc 1 609 25 is_stmt 0 view .LVU311
 961 02f8 2368     		ldr	r3, [r4]
 609:Drivers/STM32L1xx_HAL_Driver/Src/stm32l1xx_hal_rcc.c ****   {
 962              		.loc 1 609 5 view .LVU312
 963 02fa 13F0040F 		tst	r3, #4
 964 02fe 79D0     		beq	.L67
 965              	.LBB3:
ARM GAS  /tmp/ccoCXvoW.s 			page 47


 611:Drivers/STM32L1xx_HAL_Driver/Src/stm32l1xx_hal_rcc.c **** 
 966              		.loc 1 611 5 is_stmt 1 view .LVU313
 967              	.LVL66:
 614:Drivers/STM32L1xx_HAL_Driver/Src/stm32l1xx_hal_rcc.c **** 
 968              		.loc 1 614 5 view .LVU314
 618:Drivers/STM32L1xx_HAL_Driver/Src/stm32l1xx_hal_rcc.c ****     {
 969              		.loc 1 618 5 view .LVU315
 618:Drivers/STM32L1xx_HAL_Driver/Src/stm32l1xx_hal_rcc.c ****     {
 970              		.loc 1 618 8 is_stmt 0 view .LVU316
 971 0300 7B4B     		ldr	r3, .L137+4
 972 0302 5B6A     		ldr	r3, [r3, #36]
 618:Drivers/STM32L1xx_HAL_Driver/Src/stm32l1xx_hal_rcc.c ****     {
 973              		.loc 1 618 7 view .LVU317
 974 0304 13F0805F 		tst	r3, #268435456
 975 0308 0BD1     		bne	.L104
 620:Drivers/STM32L1xx_HAL_Driver/Src/stm32l1xx_hal_rcc.c ****       pwrclkchanged = SET;
 976              		.loc 1 620 7 is_stmt 1 view .LVU318
 977              	.LBB4:
 620:Drivers/STM32L1xx_HAL_Driver/Src/stm32l1xx_hal_rcc.c ****       pwrclkchanged = SET;
 978              		.loc 1 620 7 view .LVU319
 620:Drivers/STM32L1xx_HAL_Driver/Src/stm32l1xx_hal_rcc.c ****       pwrclkchanged = SET;
 979              		.loc 1 620 7 view .LVU320
 980 030a 794B     		ldr	r3, .L137+4
 981 030c 5A6A     		ldr	r2, [r3, #36]
 982 030e 42F08052 		orr	r2, r2, #268435456
 983 0312 5A62     		str	r2, [r3, #36]
 620:Drivers/STM32L1xx_HAL_Driver/Src/stm32l1xx_hal_rcc.c ****       pwrclkchanged = SET;
 984              		.loc 1 620 7 view .LVU321
 985 0314 5B6A     		ldr	r3, [r3, #36]
 986 0316 03F08053 		and	r3, r3, #268435456
 987 031a 0193     		str	r3, [sp, #4]
 620:Drivers/STM32L1xx_HAL_Driver/Src/stm32l1xx_hal_rcc.c ****       pwrclkchanged = SET;
 988              		.loc 1 620 7 view .LVU322
 989 031c 019B     		ldr	r3, [sp, #4]
 990              	.LBE4:
 620:Drivers/STM32L1xx_HAL_Driver/Src/stm32l1xx_hal_rcc.c ****       pwrclkchanged = SET;
 991              		.loc 1 620 7 view .LVU323
 621:Drivers/STM32L1xx_HAL_Driver/Src/stm32l1xx_hal_rcc.c ****     }
 992              		.loc 1 621 7 view .LVU324
 993              	.LVL67:
 621:Drivers/STM32L1xx_HAL_Driver/Src/stm32l1xx_hal_rcc.c ****     }
 994              		.loc 1 621 21 is_stmt 0 view .LVU325
 995 031e 0126     		movs	r6, #1
 996 0320 00E0     		b	.L68
 997              	.LVL68:
 998              	.L104:
 611:Drivers/STM32L1xx_HAL_Driver/Src/stm32l1xx_hal_rcc.c **** 
 999              		.loc 1 611 22 view .LVU326
 1000 0322 0026     		movs	r6, #0
 1001              	.LVL69:
 1002              	.L68:
 624:Drivers/STM32L1xx_HAL_Driver/Src/stm32l1xx_hal_rcc.c ****     {
 1003              		.loc 1 624 5 is_stmt 1 view .LVU327
 624:Drivers/STM32L1xx_HAL_Driver/Src/stm32l1xx_hal_rcc.c ****     {
 1004              		.loc 1 624 8 is_stmt 0 view .LVU328
 1005 0324 734B     		ldr	r3, .L137+8
 1006 0326 1B68     		ldr	r3, [r3]
ARM GAS  /tmp/ccoCXvoW.s 			page 48


 624:Drivers/STM32L1xx_HAL_Driver/Src/stm32l1xx_hal_rcc.c ****     {
 1007              		.loc 1 624 7 view .LVU329
 1008 0328 13F4807F 		tst	r3, #256
 1009 032c 0ED0     		beq	.L127
 1010              	.L69:
 642:Drivers/STM32L1xx_HAL_Driver/Src/stm32l1xx_hal_rcc.c ****     /* Check the LSE State */
 1011              		.loc 1 642 5 is_stmt 1 view .LVU330
 642:Drivers/STM32L1xx_HAL_Driver/Src/stm32l1xx_hal_rcc.c ****     /* Check the LSE State */
 1012              		.loc 1 642 5 view .LVU331
 1013 032e A368     		ldr	r3, [r4, #8]
 1014 0330 012B     		cmp	r3, #1
 1015 0332 1FD0     		beq	.L128
 642:Drivers/STM32L1xx_HAL_Driver/Src/stm32l1xx_hal_rcc.c ****     /* Check the LSE State */
 1016              		.loc 1 642 5 discriminator 2 view .LVU332
 1017 0334 002B     		cmp	r3, #0
 1018 0336 35D1     		bne	.L74
 642:Drivers/STM32L1xx_HAL_Driver/Src/stm32l1xx_hal_rcc.c ****     /* Check the LSE State */
 1019              		.loc 1 642 5 discriminator 4 view .LVU333
 1020 0338 6D4B     		ldr	r3, .L137+4
 1021 033a 5A6B     		ldr	r2, [r3, #52]
 1022 033c 22F48072 		bic	r2, r2, #256
 1023 0340 5A63     		str	r2, [r3, #52]
 642:Drivers/STM32L1xx_HAL_Driver/Src/stm32l1xx_hal_rcc.c ****     /* Check the LSE State */
 1024              		.loc 1 642 5 discriminator 4 view .LVU334
 1025 0342 5A6B     		ldr	r2, [r3, #52]
 1026 0344 22F48062 		bic	r2, r2, #1024
 1027 0348 5A63     		str	r2, [r3, #52]
 1028 034a 18E0     		b	.L73
 1029              	.L127:
 627:Drivers/STM32L1xx_HAL_Driver/Src/stm32l1xx_hal_rcc.c **** 
 1030              		.loc 1 627 7 view .LVU335
 1031 034c 694A     		ldr	r2, .L137+8
 1032 034e 1368     		ldr	r3, [r2]
 1033 0350 43F48073 		orr	r3, r3, #256
 1034 0354 1360     		str	r3, [r2]
 630:Drivers/STM32L1xx_HAL_Driver/Src/stm32l1xx_hal_rcc.c **** 
 1035              		.loc 1 630 7 view .LVU336
 630:Drivers/STM32L1xx_HAL_Driver/Src/stm32l1xx_hal_rcc.c **** 
 1036              		.loc 1 630 19 is_stmt 0 view .LVU337
 1037 0356 FFF7FEFF 		bl	HAL_GetTick
 1038              	.LVL70:
 1039 035a 0746     		mov	r7, r0
 1040              	.LVL71:
 632:Drivers/STM32L1xx_HAL_Driver/Src/stm32l1xx_hal_rcc.c ****       {
 1041              		.loc 1 632 7 is_stmt 1 view .LVU338
 1042              	.L70:
 632:Drivers/STM32L1xx_HAL_Driver/Src/stm32l1xx_hal_rcc.c ****       {
 1043              		.loc 1 632 12 view .LVU339
 632:Drivers/STM32L1xx_HAL_Driver/Src/stm32l1xx_hal_rcc.c ****       {
 1044              		.loc 1 632 13 is_stmt 0 view .LVU340
 1045 035c 654B     		ldr	r3, .L137+8
 1046 035e 1B68     		ldr	r3, [r3]
 632:Drivers/STM32L1xx_HAL_Driver/Src/stm32l1xx_hal_rcc.c ****       {
 1047              		.loc 1 632 12 view .LVU341
 1048 0360 13F4807F 		tst	r3, #256
 1049 0364 E3D1     		bne	.L69
 634:Drivers/STM32L1xx_HAL_Driver/Src/stm32l1xx_hal_rcc.c ****         {
ARM GAS  /tmp/ccoCXvoW.s 			page 49


 1050              		.loc 1 634 9 is_stmt 1 view .LVU342
 634:Drivers/STM32L1xx_HAL_Driver/Src/stm32l1xx_hal_rcc.c ****         {
 1051              		.loc 1 634 13 is_stmt 0 view .LVU343
 1052 0366 FFF7FEFF 		bl	HAL_GetTick
 1053              	.LVL72:
 634:Drivers/STM32L1xx_HAL_Driver/Src/stm32l1xx_hal_rcc.c ****         {
 1054              		.loc 1 634 27 view .LVU344
 1055 036a C01B     		subs	r0, r0, r7
 634:Drivers/STM32L1xx_HAL_Driver/Src/stm32l1xx_hal_rcc.c ****         {
 1056              		.loc 1 634 11 view .LVU345
 1057 036c 6428     		cmp	r0, #100
 1058 036e F5D9     		bls	.L70
 636:Drivers/STM32L1xx_HAL_Driver/Src/stm32l1xx_hal_rcc.c ****         }
 1059              		.loc 1 636 18 view .LVU346
 1060 0370 0320     		movs	r0, #3
 1061 0372 B1E0     		b	.L29
 1062              	.LVL73:
 1063              	.L128:
 642:Drivers/STM32L1xx_HAL_Driver/Src/stm32l1xx_hal_rcc.c ****     /* Check the LSE State */
 1064              		.loc 1 642 5 is_stmt 1 discriminator 1 view .LVU347
 1065 0374 5E4A     		ldr	r2, .L137+4
 1066 0376 536B     		ldr	r3, [r2, #52]
 1067 0378 43F48073 		orr	r3, r3, #256
 1068 037c 5363     		str	r3, [r2, #52]
 1069              	.L73:
 642:Drivers/STM32L1xx_HAL_Driver/Src/stm32l1xx_hal_rcc.c ****     /* Check the LSE State */
 1070              		.loc 1 642 5 discriminator 10 view .LVU348
 644:Drivers/STM32L1xx_HAL_Driver/Src/stm32l1xx_hal_rcc.c ****     {
 1071              		.loc 1 644 5 discriminator 10 view .LVU349
 644:Drivers/STM32L1xx_HAL_Driver/Src/stm32l1xx_hal_rcc.c ****     {
 1072              		.loc 1 644 25 is_stmt 0 discriminator 10 view .LVU350
 1073 037e A368     		ldr	r3, [r4, #8]
 644:Drivers/STM32L1xx_HAL_Driver/Src/stm32l1xx_hal_rcc.c ****     {
 1074              		.loc 1 644 7 discriminator 10 view .LVU351
 1075 0380 33B3     		cbz	r3, .L76
 647:Drivers/STM32L1xx_HAL_Driver/Src/stm32l1xx_hal_rcc.c **** 
 1076              		.loc 1 647 7 is_stmt 1 view .LVU352
 647:Drivers/STM32L1xx_HAL_Driver/Src/stm32l1xx_hal_rcc.c **** 
 1077              		.loc 1 647 19 is_stmt 0 view .LVU353
 1078 0382 FFF7FEFF 		bl	HAL_GetTick
 1079              	.LVL74:
 1080 0386 0746     		mov	r7, r0
 1081              	.LVL75:
 650:Drivers/STM32L1xx_HAL_Driver/Src/stm32l1xx_hal_rcc.c ****       {
 1082              		.loc 1 650 7 is_stmt 1 view .LVU354
 1083              	.L77:
 650:Drivers/STM32L1xx_HAL_Driver/Src/stm32l1xx_hal_rcc.c ****       {
 1084              		.loc 1 650 12 view .LVU355
 650:Drivers/STM32L1xx_HAL_Driver/Src/stm32l1xx_hal_rcc.c ****       {
 1085              		.loc 1 650 13 is_stmt 0 view .LVU356
 1086 0388 594B     		ldr	r3, .L137+4
 1087 038a 5B6B     		ldr	r3, [r3, #52]
 650:Drivers/STM32L1xx_HAL_Driver/Src/stm32l1xx_hal_rcc.c ****       {
 1088              		.loc 1 650 12 view .LVU357
 1089 038c 13F4007F 		tst	r3, #512
 1090 0390 2FD1     		bne	.L79
 652:Drivers/STM32L1xx_HAL_Driver/Src/stm32l1xx_hal_rcc.c ****         {
ARM GAS  /tmp/ccoCXvoW.s 			page 50


 1091              		.loc 1 652 9 is_stmt 1 view .LVU358
 652:Drivers/STM32L1xx_HAL_Driver/Src/stm32l1xx_hal_rcc.c ****         {
 1092              		.loc 1 652 13 is_stmt 0 view .LVU359
 1093 0392 FFF7FEFF 		bl	HAL_GetTick
 1094              	.LVL76:
 652:Drivers/STM32L1xx_HAL_Driver/Src/stm32l1xx_hal_rcc.c ****         {
 1095              		.loc 1 652 27 view .LVU360
 1096 0396 C01B     		subs	r0, r0, r7
 652:Drivers/STM32L1xx_HAL_Driver/Src/stm32l1xx_hal_rcc.c ****         {
 1097              		.loc 1 652 11 view .LVU361
 1098 0398 41F28833 		movw	r3, #5000
 1099 039c 9842     		cmp	r0, r3
 1100 039e F3D9     		bls	.L77
 654:Drivers/STM32L1xx_HAL_Driver/Src/stm32l1xx_hal_rcc.c ****         }
 1101              		.loc 1 654 18 view .LVU362
 1102 03a0 0320     		movs	r0, #3
 1103 03a2 99E0     		b	.L29
 1104              	.LVL77:
 1105              	.L74:
 642:Drivers/STM32L1xx_HAL_Driver/Src/stm32l1xx_hal_rcc.c ****     /* Check the LSE State */
 1106              		.loc 1 642 5 is_stmt 1 discriminator 5 view .LVU363
 1107 03a4 052B     		cmp	r3, #5
 1108 03a6 09D0     		beq	.L129
 642:Drivers/STM32L1xx_HAL_Driver/Src/stm32l1xx_hal_rcc.c ****     /* Check the LSE State */
 1109              		.loc 1 642 5 discriminator 8 view .LVU364
 1110 03a8 514B     		ldr	r3, .L137+4
 1111 03aa 5A6B     		ldr	r2, [r3, #52]
 1112 03ac 22F48072 		bic	r2, r2, #256
 1113 03b0 5A63     		str	r2, [r3, #52]
 642:Drivers/STM32L1xx_HAL_Driver/Src/stm32l1xx_hal_rcc.c ****     /* Check the LSE State */
 1114              		.loc 1 642 5 discriminator 8 view .LVU365
 1115 03b2 5A6B     		ldr	r2, [r3, #52]
 1116 03b4 22F48062 		bic	r2, r2, #1024
 1117 03b8 5A63     		str	r2, [r3, #52]
 1118 03ba E0E7     		b	.L73
 1119              	.L129:
 642:Drivers/STM32L1xx_HAL_Driver/Src/stm32l1xx_hal_rcc.c ****     /* Check the LSE State */
 1120              		.loc 1 642 5 discriminator 7 view .LVU366
 1121 03bc 4C4B     		ldr	r3, .L137+4
 1122 03be 5A6B     		ldr	r2, [r3, #52]
 1123 03c0 42F48062 		orr	r2, r2, #1024
 1124 03c4 5A63     		str	r2, [r3, #52]
 642:Drivers/STM32L1xx_HAL_Driver/Src/stm32l1xx_hal_rcc.c ****     /* Check the LSE State */
 1125              		.loc 1 642 5 discriminator 7 view .LVU367
 1126 03c6 5A6B     		ldr	r2, [r3, #52]
 1127 03c8 42F48072 		orr	r2, r2, #256
 1128 03cc 5A63     		str	r2, [r3, #52]
 1129 03ce D6E7     		b	.L73
 1130              	.L76:
 661:Drivers/STM32L1xx_HAL_Driver/Src/stm32l1xx_hal_rcc.c **** 
 1131              		.loc 1 661 7 view .LVU368
 661:Drivers/STM32L1xx_HAL_Driver/Src/stm32l1xx_hal_rcc.c **** 
 1132              		.loc 1 661 19 is_stmt 0 view .LVU369
 1133 03d0 FFF7FEFF 		bl	HAL_GetTick
 1134              	.LVL78:
 1135 03d4 0746     		mov	r7, r0
 1136              	.LVL79:
ARM GAS  /tmp/ccoCXvoW.s 			page 51


 664:Drivers/STM32L1xx_HAL_Driver/Src/stm32l1xx_hal_rcc.c ****       {
 1137              		.loc 1 664 7 is_stmt 1 view .LVU370
 1138              	.L80:
 664:Drivers/STM32L1xx_HAL_Driver/Src/stm32l1xx_hal_rcc.c ****       {
 1139              		.loc 1 664 12 view .LVU371
 664:Drivers/STM32L1xx_HAL_Driver/Src/stm32l1xx_hal_rcc.c ****       {
 1140              		.loc 1 664 13 is_stmt 0 view .LVU372
 1141 03d6 464B     		ldr	r3, .L137+4
 1142 03d8 5B6B     		ldr	r3, [r3, #52]
 664:Drivers/STM32L1xx_HAL_Driver/Src/stm32l1xx_hal_rcc.c ****       {
 1143              		.loc 1 664 12 view .LVU373
 1144 03da 13F4007F 		tst	r3, #512
 1145 03de 08D0     		beq	.L79
 666:Drivers/STM32L1xx_HAL_Driver/Src/stm32l1xx_hal_rcc.c ****         {
 1146              		.loc 1 666 9 is_stmt 1 view .LVU374
 666:Drivers/STM32L1xx_HAL_Driver/Src/stm32l1xx_hal_rcc.c ****         {
 1147              		.loc 1 666 13 is_stmt 0 view .LVU375
 1148 03e0 FFF7FEFF 		bl	HAL_GetTick
 1149              	.LVL80:
 666:Drivers/STM32L1xx_HAL_Driver/Src/stm32l1xx_hal_rcc.c ****         {
 1150              		.loc 1 666 27 view .LVU376
 1151 03e4 C01B     		subs	r0, r0, r7
 666:Drivers/STM32L1xx_HAL_Driver/Src/stm32l1xx_hal_rcc.c ****         {
 1152              		.loc 1 666 11 view .LVU377
 1153 03e6 41F28833 		movw	r3, #5000
 1154 03ea 9842     		cmp	r0, r3
 1155 03ec F3D9     		bls	.L80
 668:Drivers/STM32L1xx_HAL_Driver/Src/stm32l1xx_hal_rcc.c ****         }
 1156              		.loc 1 668 18 view .LVU378
 1157 03ee 0320     		movs	r0, #3
 1158 03f0 72E0     		b	.L29
 1159              	.L79:
 674:Drivers/STM32L1xx_HAL_Driver/Src/stm32l1xx_hal_rcc.c ****     {
 1160              		.loc 1 674 5 is_stmt 1 view .LVU379
 674:Drivers/STM32L1xx_HAL_Driver/Src/stm32l1xx_hal_rcc.c ****     {
 1161              		.loc 1 674 7 is_stmt 0 view .LVU380
 1162 03f2 C6B9     		cbnz	r6, .L130
 1163              	.LVL81:
 1164              	.L67:
 674:Drivers/STM32L1xx_HAL_Driver/Src/stm32l1xx_hal_rcc.c ****     {
 1165              		.loc 1 674 7 view .LVU381
 1166              	.LBE3:
 682:Drivers/STM32L1xx_HAL_Driver/Src/stm32l1xx_hal_rcc.c ****   if ((RCC_OscInitStruct->PLL.PLLState) != RCC_PLL_NONE)
 1167              		.loc 1 682 3 is_stmt 1 view .LVU382
 683:Drivers/STM32L1xx_HAL_Driver/Src/stm32l1xx_hal_rcc.c ****   {
 1168              		.loc 1 683 3 view .LVU383
 683:Drivers/STM32L1xx_HAL_Driver/Src/stm32l1xx_hal_rcc.c ****   {
 1169              		.loc 1 683 30 is_stmt 0 view .LVU384
 1170 03f4 636A     		ldr	r3, [r4, #36]
 683:Drivers/STM32L1xx_HAL_Driver/Src/stm32l1xx_hal_rcc.c ****   {
 1171              		.loc 1 683 6 view .LVU385
 1172 03f6 002B     		cmp	r3, #0
 1173 03f8 6DD0     		beq	.L108
 686:Drivers/STM32L1xx_HAL_Driver/Src/stm32l1xx_hal_rcc.c ****     {
 1174              		.loc 1 686 5 is_stmt 1 view .LVU386
 686:Drivers/STM32L1xx_HAL_Driver/Src/stm32l1xx_hal_rcc.c ****     {
 1175              		.loc 1 686 7 is_stmt 0 view .LVU387
ARM GAS  /tmp/ccoCXvoW.s 			page 52


 1176 03fa 0C2D     		cmp	r5, #12
 1177 03fc 4CD0     		beq	.L82
 688:Drivers/STM32L1xx_HAL_Driver/Src/stm32l1xx_hal_rcc.c ****       {
 1178              		.loc 1 688 7 is_stmt 1 view .LVU388
 688:Drivers/STM32L1xx_HAL_Driver/Src/stm32l1xx_hal_rcc.c ****       {
 1179              		.loc 1 688 9 is_stmt 0 view .LVU389
 1180 03fe 022B     		cmp	r3, #2
 1181 0400 17D0     		beq	.L131
 732:Drivers/STM32L1xx_HAL_Driver/Src/stm32l1xx_hal_rcc.c **** 
 1182              		.loc 1 732 9 is_stmt 1 view .LVU390
 1183 0402 3A4B     		ldr	r3, .L137
 1184 0404 0022     		movs	r2, #0
 1185 0406 1A66     		str	r2, [r3, #96]
 735:Drivers/STM32L1xx_HAL_Driver/Src/stm32l1xx_hal_rcc.c **** 
 1186              		.loc 1 735 9 view .LVU391
 735:Drivers/STM32L1xx_HAL_Driver/Src/stm32l1xx_hal_rcc.c **** 
 1187              		.loc 1 735 21 is_stmt 0 view .LVU392
 1188 0408 FFF7FEFF 		bl	HAL_GetTick
 1189              	.LVL82:
 1190 040c 0446     		mov	r4, r0
 1191              	.LVL83:
 738:Drivers/STM32L1xx_HAL_Driver/Src/stm32l1xx_hal_rcc.c ****         {
 1192              		.loc 1 738 9 is_stmt 1 view .LVU393
 1193              	.L88:
 738:Drivers/STM32L1xx_HAL_Driver/Src/stm32l1xx_hal_rcc.c ****         {
 1194              		.loc 1 738 14 view .LVU394
 738:Drivers/STM32L1xx_HAL_Driver/Src/stm32l1xx_hal_rcc.c ****         {
 1195              		.loc 1 738 15 is_stmt 0 view .LVU395
 1196 040e 384B     		ldr	r3, .L137+4
 1197 0410 1B68     		ldr	r3, [r3]
 738:Drivers/STM32L1xx_HAL_Driver/Src/stm32l1xx_hal_rcc.c ****         {
 1198              		.loc 1 738 14 view .LVU396
 1199 0412 13F0007F 		tst	r3, #33554432
 1200 0416 3DD0     		beq	.L132
 740:Drivers/STM32L1xx_HAL_Driver/Src/stm32l1xx_hal_rcc.c ****           {
 1201              		.loc 1 740 11 is_stmt 1 view .LVU397
 740:Drivers/STM32L1xx_HAL_Driver/Src/stm32l1xx_hal_rcc.c ****           {
 1202              		.loc 1 740 15 is_stmt 0 view .LVU398
 1203 0418 FFF7FEFF 		bl	HAL_GetTick
 1204              	.LVL84:
 740:Drivers/STM32L1xx_HAL_Driver/Src/stm32l1xx_hal_rcc.c ****           {
 1205              		.loc 1 740 29 view .LVU399
 1206 041c 001B     		subs	r0, r0, r4
 740:Drivers/STM32L1xx_HAL_Driver/Src/stm32l1xx_hal_rcc.c ****           {
 1207              		.loc 1 740 13 view .LVU400
 1208 041e 0228     		cmp	r0, #2
 1209 0420 F5D9     		bls	.L88
 742:Drivers/STM32L1xx_HAL_Driver/Src/stm32l1xx_hal_rcc.c ****           }
 1210              		.loc 1 742 20 view .LVU401
 1211 0422 0320     		movs	r0, #3
 1212 0424 58E0     		b	.L29
 1213              	.LVL85:
 1214              	.L130:
 1215              	.LBB5:
 676:Drivers/STM32L1xx_HAL_Driver/Src/stm32l1xx_hal_rcc.c ****     }
 1216              		.loc 1 676 7 is_stmt 1 view .LVU402
 1217 0426 324A     		ldr	r2, .L137+4
ARM GAS  /tmp/ccoCXvoW.s 			page 53


 1218 0428 536A     		ldr	r3, [r2, #36]
 1219 042a 23F08053 		bic	r3, r3, #268435456
 1220 042e 5362     		str	r3, [r2, #36]
 1221 0430 E0E7     		b	.L67
 1222              	.LVL86:
 1223              	.L131:
 676:Drivers/STM32L1xx_HAL_Driver/Src/stm32l1xx_hal_rcc.c ****     }
 1224              		.loc 1 676 7 is_stmt 0 view .LVU403
 1225              	.LBE5:
 691:Drivers/STM32L1xx_HAL_Driver/Src/stm32l1xx_hal_rcc.c ****         assert_param(IS_RCC_PLL_MUL(RCC_OscInitStruct->PLL.PLLMUL));
 1226              		.loc 1 691 9 is_stmt 1 view .LVU404
 692:Drivers/STM32L1xx_HAL_Driver/Src/stm32l1xx_hal_rcc.c ****         assert_param(IS_RCC_PLL_DIV(RCC_OscInitStruct->PLL.PLLDIV));
 1227              		.loc 1 692 9 view .LVU405
 693:Drivers/STM32L1xx_HAL_Driver/Src/stm32l1xx_hal_rcc.c **** 
 1228              		.loc 1 693 9 view .LVU406
 696:Drivers/STM32L1xx_HAL_Driver/Src/stm32l1xx_hal_rcc.c **** 
 1229              		.loc 1 696 9 view .LVU407
 1230 0432 2E4B     		ldr	r3, .L137
 1231 0434 0022     		movs	r2, #0
 1232 0436 1A66     		str	r2, [r3, #96]
 699:Drivers/STM32L1xx_HAL_Driver/Src/stm32l1xx_hal_rcc.c **** 
 1233              		.loc 1 699 9 view .LVU408
 699:Drivers/STM32L1xx_HAL_Driver/Src/stm32l1xx_hal_rcc.c **** 
 1234              		.loc 1 699 21 is_stmt 0 view .LVU409
 1235 0438 FFF7FEFF 		bl	HAL_GetTick
 1236              	.LVL87:
 1237 043c 0546     		mov	r5, r0
 1238              	.LVL88:
 702:Drivers/STM32L1xx_HAL_Driver/Src/stm32l1xx_hal_rcc.c ****         {
 1239              		.loc 1 702 9 is_stmt 1 view .LVU410
 1240              	.L84:
 702:Drivers/STM32L1xx_HAL_Driver/Src/stm32l1xx_hal_rcc.c ****         {
 1241              		.loc 1 702 14 view .LVU411
 702:Drivers/STM32L1xx_HAL_Driver/Src/stm32l1xx_hal_rcc.c ****         {
 1242              		.loc 1 702 15 is_stmt 0 view .LVU412
 1243 043e 2C4B     		ldr	r3, .L137+4
 1244 0440 1B68     		ldr	r3, [r3]
 702:Drivers/STM32L1xx_HAL_Driver/Src/stm32l1xx_hal_rcc.c ****         {
 1245              		.loc 1 702 14 view .LVU413
 1246 0442 13F0007F 		tst	r3, #33554432
 1247 0446 06D0     		beq	.L133
 704:Drivers/STM32L1xx_HAL_Driver/Src/stm32l1xx_hal_rcc.c ****           {
 1248              		.loc 1 704 11 is_stmt 1 view .LVU414
 704:Drivers/STM32L1xx_HAL_Driver/Src/stm32l1xx_hal_rcc.c ****           {
 1249              		.loc 1 704 15 is_stmt 0 view .LVU415
 1250 0448 FFF7FEFF 		bl	HAL_GetTick
 1251              	.LVL89:
 704:Drivers/STM32L1xx_HAL_Driver/Src/stm32l1xx_hal_rcc.c ****           {
 1252              		.loc 1 704 29 view .LVU416
 1253 044c 401B     		subs	r0, r0, r5
 704:Drivers/STM32L1xx_HAL_Driver/Src/stm32l1xx_hal_rcc.c ****           {
 1254              		.loc 1 704 13 view .LVU417
 1255 044e 0228     		cmp	r0, #2
 1256 0450 F5D9     		bls	.L84
 706:Drivers/STM32L1xx_HAL_Driver/Src/stm32l1xx_hal_rcc.c ****           }
 1257              		.loc 1 706 20 view .LVU418
 1258 0452 0320     		movs	r0, #3
ARM GAS  /tmp/ccoCXvoW.s 			page 54


 1259 0454 40E0     		b	.L29
 1260              	.L133:
 711:Drivers/STM32L1xx_HAL_Driver/Src/stm32l1xx_hal_rcc.c ****                              RCC_OscInitStruct->PLL.PLLMUL,
 1261              		.loc 1 711 9 is_stmt 1 view .LVU419
 1262 0456 2649     		ldr	r1, .L137+4
 1263 0458 8B68     		ldr	r3, [r1, #8]
 1264 045a 23F47D03 		bic	r3, r3, #16580608
 1265 045e A26A     		ldr	r2, [r4, #40]
 1266 0460 E06A     		ldr	r0, [r4, #44]
 1267 0462 0243     		orrs	r2, r2, r0
 1268 0464 206B     		ldr	r0, [r4, #48]
 1269 0466 0243     		orrs	r2, r2, r0
 1270 0468 1343     		orrs	r3, r3, r2
 1271 046a 8B60     		str	r3, [r1, #8]
 715:Drivers/STM32L1xx_HAL_Driver/Src/stm32l1xx_hal_rcc.c **** 
 1272              		.loc 1 715 9 view .LVU420
 1273 046c 1F4B     		ldr	r3, .L137
 1274 046e 0122     		movs	r2, #1
 1275 0470 1A66     		str	r2, [r3, #96]
 718:Drivers/STM32L1xx_HAL_Driver/Src/stm32l1xx_hal_rcc.c **** 
 1276              		.loc 1 718 9 view .LVU421
 718:Drivers/STM32L1xx_HAL_Driver/Src/stm32l1xx_hal_rcc.c **** 
 1277              		.loc 1 718 21 is_stmt 0 view .LVU422
 1278 0472 FFF7FEFF 		bl	HAL_GetTick
 1279              	.LVL90:
 1280 0476 0446     		mov	r4, r0
 1281              	.LVL91:
 721:Drivers/STM32L1xx_HAL_Driver/Src/stm32l1xx_hal_rcc.c ****         {
 1282              		.loc 1 721 9 is_stmt 1 view .LVU423
 1283              	.L86:
 721:Drivers/STM32L1xx_HAL_Driver/Src/stm32l1xx_hal_rcc.c ****         {
 1284              		.loc 1 721 14 view .LVU424
 721:Drivers/STM32L1xx_HAL_Driver/Src/stm32l1xx_hal_rcc.c ****         {
 1285              		.loc 1 721 15 is_stmt 0 view .LVU425
 1286 0478 1D4B     		ldr	r3, .L137+4
 1287 047a 1B68     		ldr	r3, [r3]
 721:Drivers/STM32L1xx_HAL_Driver/Src/stm32l1xx_hal_rcc.c ****         {
 1288              		.loc 1 721 14 view .LVU426
 1289 047c 13F0007F 		tst	r3, #33554432
 1290 0480 06D1     		bne	.L134
 723:Drivers/STM32L1xx_HAL_Driver/Src/stm32l1xx_hal_rcc.c ****           {
 1291              		.loc 1 723 11 is_stmt 1 view .LVU427
 723:Drivers/STM32L1xx_HAL_Driver/Src/stm32l1xx_hal_rcc.c ****           {
 1292              		.loc 1 723 15 is_stmt 0 view .LVU428
 1293 0482 FFF7FEFF 		bl	HAL_GetTick
 1294              	.LVL92:
 723:Drivers/STM32L1xx_HAL_Driver/Src/stm32l1xx_hal_rcc.c ****           {
 1295              		.loc 1 723 29 view .LVU429
 1296 0486 001B     		subs	r0, r0, r4
 723:Drivers/STM32L1xx_HAL_Driver/Src/stm32l1xx_hal_rcc.c ****           {
 1297              		.loc 1 723 13 view .LVU430
 1298 0488 0228     		cmp	r0, #2
 1299 048a F5D9     		bls	.L86
 725:Drivers/STM32L1xx_HAL_Driver/Src/stm32l1xx_hal_rcc.c ****           }
 1300              		.loc 1 725 20 view .LVU431
 1301 048c 0320     		movs	r0, #3
 1302 048e 23E0     		b	.L29
ARM GAS  /tmp/ccoCXvoW.s 			page 55


 1303              	.L134:
 768:Drivers/STM32L1xx_HAL_Driver/Src/stm32l1xx_hal_rcc.c **** }
 1304              		.loc 1 768 10 view .LVU432
 1305 0490 0020     		movs	r0, #0
 1306 0492 21E0     		b	.L29
 1307              	.LVL93:
 1308              	.L132:
 768:Drivers/STM32L1xx_HAL_Driver/Src/stm32l1xx_hal_rcc.c **** }
 1309              		.loc 1 768 10 view .LVU433
 1310 0494 0020     		movs	r0, #0
 1311 0496 1FE0     		b	.L29
 1312              	.LVL94:
 1313              	.L82:
 750:Drivers/STM32L1xx_HAL_Driver/Src/stm32l1xx_hal_rcc.c ****       {
 1314              		.loc 1 750 7 is_stmt 1 view .LVU434
 750:Drivers/STM32L1xx_HAL_Driver/Src/stm32l1xx_hal_rcc.c ****       {
 1315              		.loc 1 750 9 is_stmt 0 view .LVU435
 1316 0498 012B     		cmp	r3, #1
 1317 049a 1FD0     		beq	.L112
 757:Drivers/STM32L1xx_HAL_Driver/Src/stm32l1xx_hal_rcc.c ****         if((READ_BIT(pll_config, RCC_CFGR_PLLSRC) != RCC_OscInitStruct->PLL.PLLSource) ||
 1318              		.loc 1 757 9 is_stmt 1 view .LVU436
 757:Drivers/STM32L1xx_HAL_Driver/Src/stm32l1xx_hal_rcc.c ****         if((READ_BIT(pll_config, RCC_CFGR_PLLSRC) != RCC_OscInitStruct->PLL.PLLSource) ||
 1319              		.loc 1 757 20 is_stmt 0 view .LVU437
 1320 049c 144B     		ldr	r3, .L137+4
 1321 049e 9B68     		ldr	r3, [r3, #8]
 1322              	.LVL95:
 758:Drivers/STM32L1xx_HAL_Driver/Src/stm32l1xx_hal_rcc.c ****            (READ_BIT(pll_config, RCC_CFGR_PLLMUL) != RCC_OscInitStruct->PLL.PLLMUL) ||
 1323              		.loc 1 758 9 is_stmt 1 view .LVU438
 758:Drivers/STM32L1xx_HAL_Driver/Src/stm32l1xx_hal_rcc.c ****            (READ_BIT(pll_config, RCC_CFGR_PLLMUL) != RCC_OscInitStruct->PLL.PLLMUL) ||
 1324              		.loc 1 758 13 is_stmt 0 view .LVU439
 1325 04a0 03F48031 		and	r1, r3, #65536
 758:Drivers/STM32L1xx_HAL_Driver/Src/stm32l1xx_hal_rcc.c ****            (READ_BIT(pll_config, RCC_CFGR_PLLMUL) != RCC_OscInitStruct->PLL.PLLMUL) ||
 1326              		.loc 1 758 76 view .LVU440
 1327 04a4 A26A     		ldr	r2, [r4, #40]
 758:Drivers/STM32L1xx_HAL_Driver/Src/stm32l1xx_hal_rcc.c ****            (READ_BIT(pll_config, RCC_CFGR_PLLMUL) != RCC_OscInitStruct->PLL.PLLMUL) ||
 1328              		.loc 1 758 11 view .LVU441
 1329 04a6 9142     		cmp	r1, r2
 1330 04a8 1AD1     		bne	.L113
 759:Drivers/STM32L1xx_HAL_Driver/Src/stm32l1xx_hal_rcc.c ****            (READ_BIT(pll_config, RCC_CFGR_PLLDIV) != RCC_OscInitStruct->PLL.PLLDIV))
 1331              		.loc 1 759 13 discriminator 1 view .LVU442
 1332 04aa 03F47012 		and	r2, r3, #3932160
 759:Drivers/STM32L1xx_HAL_Driver/Src/stm32l1xx_hal_rcc.c ****            (READ_BIT(pll_config, RCC_CFGR_PLLDIV) != RCC_OscInitStruct->PLL.PLLDIV))
 1333              		.loc 1 759 76 discriminator 1 view .LVU443
 1334 04ae E16A     		ldr	r1, [r4, #44]
 758:Drivers/STM32L1xx_HAL_Driver/Src/stm32l1xx_hal_rcc.c ****            (READ_BIT(pll_config, RCC_CFGR_PLLMUL) != RCC_OscInitStruct->PLL.PLLMUL) ||
 1335              		.loc 1 758 88 discriminator 1 view .LVU444
 1336 04b0 8A42     		cmp	r2, r1
 1337 04b2 17D1     		bne	.L114
 760:Drivers/STM32L1xx_HAL_Driver/Src/stm32l1xx_hal_rcc.c ****         {
 1338              		.loc 1 760 13 view .LVU445
 1339 04b4 03F44003 		and	r3, r3, #12582912
 1340              	.LVL96:
 760:Drivers/STM32L1xx_HAL_Driver/Src/stm32l1xx_hal_rcc.c ****         {
 1341              		.loc 1 760 76 view .LVU446
 1342 04b8 226B     		ldr	r2, [r4, #48]
 759:Drivers/STM32L1xx_HAL_Driver/Src/stm32l1xx_hal_rcc.c ****            (READ_BIT(pll_config, RCC_CFGR_PLLDIV) != RCC_OscInitStruct->PLL.PLLDIV))
 1343              		.loc 1 759 85 view .LVU447
ARM GAS  /tmp/ccoCXvoW.s 			page 56


 1344 04ba 9342     		cmp	r3, r2
 1345 04bc 14D1     		bne	.L115
 768:Drivers/STM32L1xx_HAL_Driver/Src/stm32l1xx_hal_rcc.c **** }
 1346              		.loc 1 768 10 view .LVU448
 1347 04be 0020     		movs	r0, #0
 1348 04c0 0AE0     		b	.L29
 1349              	.LVL97:
 1350              	.L90:
 1351              	.LCFI8:
 1352              		.cfi_def_cfa_offset 0
 1353              		.cfi_restore 4
 1354              		.cfi_restore 5
 1355              		.cfi_restore 6
 1356              		.cfi_restore 7
 1357              		.cfi_restore 14
 331:Drivers/STM32L1xx_HAL_Driver/Src/stm32l1xx_hal_rcc.c ****   }
 1358              		.loc 1 331 12 view .LVU449
 1359 04c2 0120     		movs	r0, #1
 1360              	.LVL98:
 769:Drivers/STM32L1xx_HAL_Driver/Src/stm32l1xx_hal_rcc.c **** 
 1361              		.loc 1 769 1 view .LVU450
 1362 04c4 7047     		bx	lr
 1363              	.LVL99:
 1364              	.L122:
 1365              	.LCFI9:
 1366              		.cfi_def_cfa_offset 32
 1367              		.cfi_offset 4, -20
 1368              		.cfi_offset 5, -16
 1369              		.cfi_offset 6, -12
 1370              		.cfi_offset 7, -8
 1371              		.cfi_offset 14, -4
 351:Drivers/STM32L1xx_HAL_Driver/Src/stm32l1xx_hal_rcc.c ****       }
 1372              		.loc 1 351 16 view .LVU451
 1373 04c6 0120     		movs	r0, #1
 1374              	.LVL100:
 351:Drivers/STM32L1xx_HAL_Driver/Src/stm32l1xx_hal_rcc.c ****       }
 1375              		.loc 1 351 16 view .LVU452
 1376 04c8 06E0     		b	.L29
 1377              	.L94:
 404:Drivers/STM32L1xx_HAL_Driver/Src/stm32l1xx_hal_rcc.c ****       }
 1378              		.loc 1 404 16 view .LVU453
 1379 04ca 0120     		movs	r0, #1
 1380 04cc 04E0     		b	.L29
 1381              	.LVL101:
 1382              	.L97:
 463:Drivers/STM32L1xx_HAL_Driver/Src/stm32l1xx_hal_rcc.c ****       }
 1383              		.loc 1 463 16 view .LVU454
 1384 04ce 0120     		movs	r0, #1
 1385 04d0 02E0     		b	.L29
 1386              	.L98:
 480:Drivers/STM32L1xx_HAL_Driver/Src/stm32l1xx_hal_rcc.c ****           }
 1387              		.loc 1 480 20 view .LVU455
 1388 04d2 0120     		movs	r0, #1
 1389 04d4 00E0     		b	.L29
 1390              	.L108:
 768:Drivers/STM32L1xx_HAL_Driver/Src/stm32l1xx_hal_rcc.c **** }
 1391              		.loc 1 768 10 view .LVU456
ARM GAS  /tmp/ccoCXvoW.s 			page 57


 1392 04d6 0020     		movs	r0, #0
 1393              	.LVL102:
 1394              	.L29:
 769:Drivers/STM32L1xx_HAL_Driver/Src/stm32l1xx_hal_rcc.c **** 
 1395              		.loc 1 769 1 view .LVU457
 1396 04d8 03B0     		add	sp, sp, #12
 1397              	.LCFI10:
 1398              		.cfi_remember_state
 1399              		.cfi_def_cfa_offset 20
 1400              		@ sp needed
 1401 04da F0BD     		pop	{r4, r5, r6, r7, pc}
 1402              	.LVL103:
 1403              	.L112:
 1404              	.LCFI11:
 1405              		.cfi_restore_state
 752:Drivers/STM32L1xx_HAL_Driver/Src/stm32l1xx_hal_rcc.c ****       }
 1406              		.loc 1 752 16 view .LVU458
 1407 04dc 0120     		movs	r0, #1
 1408 04de FBE7     		b	.L29
 1409              	.LVL104:
 1410              	.L113:
 762:Drivers/STM32L1xx_HAL_Driver/Src/stm32l1xx_hal_rcc.c ****         }
 1411              		.loc 1 762 18 view .LVU459
 1412 04e0 0120     		movs	r0, #1
 1413 04e2 F9E7     		b	.L29
 1414              	.L114:
 1415 04e4 0120     		movs	r0, #1
 1416 04e6 F7E7     		b	.L29
 1417              	.LVL105:
 1418              	.L115:
 762:Drivers/STM32L1xx_HAL_Driver/Src/stm32l1xx_hal_rcc.c ****         }
 1419              		.loc 1 762 18 view .LVU460
 1420 04e8 0120     		movs	r0, #1
 1421 04ea F5E7     		b	.L29
 1422              	.L138:
 1423              		.align	2
 1424              	.L137:
 1425 04ec 00004742 		.word	1111949312
 1426 04f0 00380240 		.word	1073887232
 1427 04f4 00700040 		.word	1073770496
 1428              		.cfi_endproc
 1429              	.LFE73:
 1431              		.section	.text.HAL_RCC_MCOConfig,"ax",%progbits
 1432              		.align	1
 1433              		.global	HAL_RCC_MCOConfig
 1434              		.syntax unified
 1435              		.thumb
 1436              		.thumb_func
 1438              	HAL_RCC_MCOConfig:
 1439              	.LVL106:
 1440              	.LFB75:
1004:Drivers/STM32L1xx_HAL_Driver/Src/stm32l1xx_hal_rcc.c ****   GPIO_InitTypeDef gpio;
 1441              		.loc 1 1004 1 is_stmt 1 view -0
 1442              		.cfi_startproc
 1443              		@ args = 0, pretend = 0, frame = 24
 1444              		@ frame_needed = 0, uses_anonymous_args = 0
1004:Drivers/STM32L1xx_HAL_Driver/Src/stm32l1xx_hal_rcc.c ****   GPIO_InitTypeDef gpio;
ARM GAS  /tmp/ccoCXvoW.s 			page 58


 1445              		.loc 1 1004 1 is_stmt 0 view .LVU462
 1446 0000 70B5     		push	{r4, r5, r6, lr}
 1447              	.LCFI12:
 1448              		.cfi_def_cfa_offset 16
 1449              		.cfi_offset 4, -16
 1450              		.cfi_offset 5, -12
 1451              		.cfi_offset 6, -8
 1452              		.cfi_offset 14, -4
 1453 0002 86B0     		sub	sp, sp, #24
 1454              	.LCFI13:
 1455              		.cfi_def_cfa_offset 40
 1456 0004 0D46     		mov	r5, r1
 1457 0006 1646     		mov	r6, r2
1005:Drivers/STM32L1xx_HAL_Driver/Src/stm32l1xx_hal_rcc.c **** 
 1458              		.loc 1 1005 3 is_stmt 1 view .LVU463
1008:Drivers/STM32L1xx_HAL_Driver/Src/stm32l1xx_hal_rcc.c ****   assert_param(IS_RCC_MCODIV(RCC_MCODiv));
 1459              		.loc 1 1008 3 view .LVU464
1009:Drivers/STM32L1xx_HAL_Driver/Src/stm32l1xx_hal_rcc.c ****   assert_param(IS_RCC_MCO1SOURCE(RCC_MCOSource));
 1460              		.loc 1 1009 3 view .LVU465
1010:Drivers/STM32L1xx_HAL_Driver/Src/stm32l1xx_hal_rcc.c **** 
 1461              		.loc 1 1010 3 view .LVU466
1013:Drivers/STM32L1xx_HAL_Driver/Src/stm32l1xx_hal_rcc.c ****   gpio.Speed     = GPIO_SPEED_FREQ_HIGH;
 1462              		.loc 1 1013 3 view .LVU467
1013:Drivers/STM32L1xx_HAL_Driver/Src/stm32l1xx_hal_rcc.c ****   gpio.Speed     = GPIO_SPEED_FREQ_HIGH;
 1463              		.loc 1 1013 18 is_stmt 0 view .LVU468
 1464 0008 0223     		movs	r3, #2
 1465 000a 0293     		str	r3, [sp, #8]
1014:Drivers/STM32L1xx_HAL_Driver/Src/stm32l1xx_hal_rcc.c ****   gpio.Pull      = GPIO_NOPULL;
 1466              		.loc 1 1014 3 is_stmt 1 view .LVU469
1014:Drivers/STM32L1xx_HAL_Driver/Src/stm32l1xx_hal_rcc.c ****   gpio.Pull      = GPIO_NOPULL;
 1467              		.loc 1 1014 18 is_stmt 0 view .LVU470
 1468 000c 0493     		str	r3, [sp, #16]
1015:Drivers/STM32L1xx_HAL_Driver/Src/stm32l1xx_hal_rcc.c ****   gpio.Pin       = MCO1_PIN;
 1469              		.loc 1 1015 3 is_stmt 1 view .LVU471
1015:Drivers/STM32L1xx_HAL_Driver/Src/stm32l1xx_hal_rcc.c ****   gpio.Pin       = MCO1_PIN;
 1470              		.loc 1 1015 18 is_stmt 0 view .LVU472
 1471 000e 0023     		movs	r3, #0
 1472 0010 0393     		str	r3, [sp, #12]
1016:Drivers/STM32L1xx_HAL_Driver/Src/stm32l1xx_hal_rcc.c ****   gpio.Alternate = GPIO_AF0_MCO;
 1473              		.loc 1 1016 3 is_stmt 1 view .LVU473
1016:Drivers/STM32L1xx_HAL_Driver/Src/stm32l1xx_hal_rcc.c ****   gpio.Alternate = GPIO_AF0_MCO;
 1474              		.loc 1 1016 18 is_stmt 0 view .LVU474
 1475 0012 4FF48072 		mov	r2, #256
 1476              	.LVL107:
1016:Drivers/STM32L1xx_HAL_Driver/Src/stm32l1xx_hal_rcc.c ****   gpio.Alternate = GPIO_AF0_MCO;
 1477              		.loc 1 1016 18 view .LVU475
 1478 0016 0192     		str	r2, [sp, #4]
1017:Drivers/STM32L1xx_HAL_Driver/Src/stm32l1xx_hal_rcc.c **** 
 1479              		.loc 1 1017 3 is_stmt 1 view .LVU476
1017:Drivers/STM32L1xx_HAL_Driver/Src/stm32l1xx_hal_rcc.c **** 
 1480              		.loc 1 1017 18 is_stmt 0 view .LVU477
 1481 0018 0593     		str	r3, [sp, #20]
1020:Drivers/STM32L1xx_HAL_Driver/Src/stm32l1xx_hal_rcc.c **** 
 1482              		.loc 1 1020 3 is_stmt 1 view .LVU478
 1483              	.LBB6:
1020:Drivers/STM32L1xx_HAL_Driver/Src/stm32l1xx_hal_rcc.c **** 
 1484              		.loc 1 1020 3 view .LVU479
ARM GAS  /tmp/ccoCXvoW.s 			page 59


1020:Drivers/STM32L1xx_HAL_Driver/Src/stm32l1xx_hal_rcc.c **** 
 1485              		.loc 1 1020 3 view .LVU480
 1486 001a 0B4C     		ldr	r4, .L141
 1487 001c E369     		ldr	r3, [r4, #28]
 1488 001e 43F00103 		orr	r3, r3, #1
 1489 0022 E361     		str	r3, [r4, #28]
1020:Drivers/STM32L1xx_HAL_Driver/Src/stm32l1xx_hal_rcc.c **** 
 1490              		.loc 1 1020 3 view .LVU481
 1491 0024 E369     		ldr	r3, [r4, #28]
 1492 0026 03F00103 		and	r3, r3, #1
 1493 002a 0093     		str	r3, [sp]
1020:Drivers/STM32L1xx_HAL_Driver/Src/stm32l1xx_hal_rcc.c **** 
 1494              		.loc 1 1020 3 view .LVU482
 1495 002c 009B     		ldr	r3, [sp]
 1496              	.LBE6:
1020:Drivers/STM32L1xx_HAL_Driver/Src/stm32l1xx_hal_rcc.c **** 
 1497              		.loc 1 1020 3 view .LVU483
1022:Drivers/STM32L1xx_HAL_Driver/Src/stm32l1xx_hal_rcc.c **** 
 1498              		.loc 1 1022 3 view .LVU484
 1499 002e 01A9     		add	r1, sp, #4
 1500              	.LVL108:
1022:Drivers/STM32L1xx_HAL_Driver/Src/stm32l1xx_hal_rcc.c **** 
 1501              		.loc 1 1022 3 is_stmt 0 view .LVU485
 1502 0030 0648     		ldr	r0, .L141+4
 1503              	.LVL109:
1022:Drivers/STM32L1xx_HAL_Driver/Src/stm32l1xx_hal_rcc.c **** 
 1504              		.loc 1 1022 3 view .LVU486
 1505 0032 FFF7FEFF 		bl	HAL_GPIO_Init
 1506              	.LVL110:
1025:Drivers/STM32L1xx_HAL_Driver/Src/stm32l1xx_hal_rcc.c **** }
 1507              		.loc 1 1025 3 is_stmt 1 view .LVU487
 1508 0036 A368     		ldr	r3, [r4, #8]
 1509 0038 23F0EE43 		bic	r3, r3, #1996488704
 1510 003c 45EA0602 		orr	r2, r5, r6
 1511 0040 1A43     		orrs	r2, r2, r3
 1512 0042 A260     		str	r2, [r4, #8]
1026:Drivers/STM32L1xx_HAL_Driver/Src/stm32l1xx_hal_rcc.c **** 
 1513              		.loc 1 1026 1 is_stmt 0 view .LVU488
 1514 0044 06B0     		add	sp, sp, #24
 1515              	.LCFI14:
 1516              		.cfi_def_cfa_offset 16
 1517              		@ sp needed
 1518 0046 70BD     		pop	{r4, r5, r6, pc}
 1519              	.LVL111:
 1520              	.L142:
1026:Drivers/STM32L1xx_HAL_Driver/Src/stm32l1xx_hal_rcc.c **** 
 1521              		.loc 1 1026 1 view .LVU489
 1522              		.align	2
 1523              	.L141:
 1524 0048 00380240 		.word	1073887232
 1525 004c 00000240 		.word	1073872896
 1526              		.cfi_endproc
 1527              	.LFE75:
 1529              		.section	.text.HAL_RCC_EnableCSS,"ax",%progbits
 1530              		.align	1
 1531              		.global	HAL_RCC_EnableCSS
 1532              		.syntax unified
ARM GAS  /tmp/ccoCXvoW.s 			page 60


 1533              		.thumb
 1534              		.thumb_func
 1536              	HAL_RCC_EnableCSS:
 1537              	.LFB76:
1038:Drivers/STM32L1xx_HAL_Driver/Src/stm32l1xx_hal_rcc.c ****   *(__IO uint32_t *) RCC_CR_CSSON_BB = (uint32_t)ENABLE;
 1538              		.loc 1 1038 1 is_stmt 1 view -0
 1539              		.cfi_startproc
 1540              		@ args = 0, pretend = 0, frame = 0
 1541              		@ frame_needed = 0, uses_anonymous_args = 0
 1542              		@ link register save eliminated.
1039:Drivers/STM32L1xx_HAL_Driver/Src/stm32l1xx_hal_rcc.c **** }
 1543              		.loc 1 1039 3 view .LVU491
1039:Drivers/STM32L1xx_HAL_Driver/Src/stm32l1xx_hal_rcc.c **** }
 1544              		.loc 1 1039 38 is_stmt 0 view .LVU492
 1545 0000 014B     		ldr	r3, .L144
 1546 0002 0122     		movs	r2, #1
 1547 0004 1A67     		str	r2, [r3, #112]
1040:Drivers/STM32L1xx_HAL_Driver/Src/stm32l1xx_hal_rcc.c **** 
 1548              		.loc 1 1040 1 view .LVU493
 1549 0006 7047     		bx	lr
 1550              	.L145:
 1551              		.align	2
 1552              	.L144:
 1553 0008 00004742 		.word	1111949312
 1554              		.cfi_endproc
 1555              	.LFE76:
 1557              		.section	.text.HAL_RCC_DisableCSS,"ax",%progbits
 1558              		.align	1
 1559              		.global	HAL_RCC_DisableCSS
 1560              		.syntax unified
 1561              		.thumb
 1562              		.thumb_func
 1564              	HAL_RCC_DisableCSS:
 1565              	.LFB77:
1047:Drivers/STM32L1xx_HAL_Driver/Src/stm32l1xx_hal_rcc.c ****   *(__IO uint32_t *) RCC_CR_CSSON_BB = (uint32_t)DISABLE;
 1566              		.loc 1 1047 1 is_stmt 1 view -0
 1567              		.cfi_startproc
 1568              		@ args = 0, pretend = 0, frame = 0
 1569              		@ frame_needed = 0, uses_anonymous_args = 0
 1570              		@ link register save eliminated.
1048:Drivers/STM32L1xx_HAL_Driver/Src/stm32l1xx_hal_rcc.c **** }
 1571              		.loc 1 1048 3 view .LVU495
1048:Drivers/STM32L1xx_HAL_Driver/Src/stm32l1xx_hal_rcc.c **** }
 1572              		.loc 1 1048 38 is_stmt 0 view .LVU496
 1573 0000 014B     		ldr	r3, .L147
 1574 0002 0022     		movs	r2, #0
 1575 0004 1A67     		str	r2, [r3, #112]
1049:Drivers/STM32L1xx_HAL_Driver/Src/stm32l1xx_hal_rcc.c **** 
 1576              		.loc 1 1049 1 view .LVU497
 1577 0006 7047     		bx	lr
 1578              	.L148:
 1579              		.align	2
 1580              	.L147:
 1581 0008 00004742 		.word	1111949312
 1582              		.cfi_endproc
 1583              	.LFE77:
 1585              		.global	__aeabi_uldivmod
ARM GAS  /tmp/ccoCXvoW.s 			page 61


 1586              		.section	.text.HAL_RCC_GetSysClockFreq,"ax",%progbits
 1587              		.align	1
 1588              		.global	HAL_RCC_GetSysClockFreq
 1589              		.syntax unified
 1590              		.thumb
 1591              		.thumb_func
 1593              	HAL_RCC_GetSysClockFreq:
 1594              	.LFB78:
1082:Drivers/STM32L1xx_HAL_Driver/Src/stm32l1xx_hal_rcc.c ****   uint32_t tmpreg, pllm, plld, pllvco, msiclkrange, sysclockfreq;
 1595              		.loc 1 1082 1 is_stmt 1 view -0
 1596              		.cfi_startproc
 1597              		@ args = 0, pretend = 0, frame = 0
 1598              		@ frame_needed = 0, uses_anonymous_args = 0
 1599 0000 08B5     		push	{r3, lr}
 1600              	.LCFI15:
 1601              		.cfi_def_cfa_offset 8
 1602              		.cfi_offset 3, -8
 1603              		.cfi_offset 14, -4
1083:Drivers/STM32L1xx_HAL_Driver/Src/stm32l1xx_hal_rcc.c **** 
 1604              		.loc 1 1083 3 view .LVU499
1085:Drivers/STM32L1xx_HAL_Driver/Src/stm32l1xx_hal_rcc.c **** 
 1605              		.loc 1 1085 3 view .LVU500
1085:Drivers/STM32L1xx_HAL_Driver/Src/stm32l1xx_hal_rcc.c **** 
 1606              		.loc 1 1085 10 is_stmt 0 view .LVU501
 1607 0002 254B     		ldr	r3, .L159
 1608 0004 9A68     		ldr	r2, [r3, #8]
 1609              	.LVL112:
1088:Drivers/STM32L1xx_HAL_Driver/Src/stm32l1xx_hal_rcc.c ****   {
 1610              		.loc 1 1088 3 is_stmt 1 view .LVU502
1088:Drivers/STM32L1xx_HAL_Driver/Src/stm32l1xx_hal_rcc.c ****   {
 1611              		.loc 1 1088 18 is_stmt 0 view .LVU503
 1612 0006 02F00C03 		and	r3, r2, #12
1088:Drivers/STM32L1xx_HAL_Driver/Src/stm32l1xx_hal_rcc.c ****   {
 1613              		.loc 1 1088 3 view .LVU504
 1614 000a 082B     		cmp	r3, #8
 1615 000c 3FD0     		beq	.L154
 1616 000e 0C2B     		cmp	r3, #12
 1617 0010 0AD0     		beq	.L151
 1618 0012 042B     		cmp	r3, #4
 1619 0014 3DD0     		beq	.L158
1120:Drivers/STM32L1xx_HAL_Driver/Src/stm32l1xx_hal_rcc.c ****       sysclockfreq = (32768U * (1UL << (msiclkrange + 1U)));
 1620              		.loc 1 1120 7 is_stmt 1 view .LVU505
1120:Drivers/STM32L1xx_HAL_Driver/Src/stm32l1xx_hal_rcc.c ****       sysclockfreq = (32768U * (1UL << (msiclkrange + 1U)));
 1621              		.loc 1 1120 25 is_stmt 0 view .LVU506
 1622 0016 204B     		ldr	r3, .L159
 1623 0018 5868     		ldr	r0, [r3, #4]
1120:Drivers/STM32L1xx_HAL_Driver/Src/stm32l1xx_hal_rcc.c ****       sysclockfreq = (32768U * (1UL << (msiclkrange + 1U)));
 1624              		.loc 1 1120 19 view .LVU507
 1625 001a C0F34230 		ubfx	r0, r0, #13, #3
 1626              	.LVL113:
1121:Drivers/STM32L1xx_HAL_Driver/Src/stm32l1xx_hal_rcc.c ****       break;
 1627              		.loc 1 1121 7 is_stmt 1 view .LVU508
1121:Drivers/STM32L1xx_HAL_Driver/Src/stm32l1xx_hal_rcc.c ****       break;
 1628              		.loc 1 1121 53 is_stmt 0 view .LVU509
 1629 001e 431C     		adds	r3, r0, #1
1121:Drivers/STM32L1xx_HAL_Driver/Src/stm32l1xx_hal_rcc.c ****       break;
 1630              		.loc 1 1121 20 view .LVU510
ARM GAS  /tmp/ccoCXvoW.s 			page 62


 1631 0020 4FF40040 		mov	r0, #32768
 1632              	.LVL114:
1121:Drivers/STM32L1xx_HAL_Driver/Src/stm32l1xx_hal_rcc.c ****       break;
 1633              		.loc 1 1121 20 view .LVU511
 1634 0024 9840     		lsls	r0, r0, r3
 1635              	.LVL115:
1122:Drivers/STM32L1xx_HAL_Driver/Src/stm32l1xx_hal_rcc.c ****     }
 1636              		.loc 1 1122 7 is_stmt 1 view .LVU512
 1637 0026 35E0     		b	.L149
 1638              	.LVL116:
 1639              	.L151:
1102:Drivers/STM32L1xx_HAL_Driver/Src/stm32l1xx_hal_rcc.c ****       plld = ((uint32_t)(tmpreg & RCC_CFGR_PLLDIV) >> RCC_CFGR_PLLDIV_Pos) + 1U;
 1640              		.loc 1 1102 7 view .LVU513
1102:Drivers/STM32L1xx_HAL_Driver/Src/stm32l1xx_hal_rcc.c ****       plld = ((uint32_t)(tmpreg & RCC_CFGR_PLLDIV) >> RCC_CFGR_PLLDIV_Pos) + 1U;
 1641              		.loc 1 1102 63 is_stmt 0 view .LVU514
 1642 0028 C2F38343 		ubfx	r3, r2, #18, #4
1102:Drivers/STM32L1xx_HAL_Driver/Src/stm32l1xx_hal_rcc.c ****       plld = ((uint32_t)(tmpreg & RCC_CFGR_PLLDIV) >> RCC_CFGR_PLLDIV_Pos) + 1U;
 1643              		.loc 1 1102 25 view .LVU515
 1644 002c 1B49     		ldr	r1, .L159+4
 1645 002e 11F803C0 		ldrb	ip, [r1, r3]	@ zero_extendqisi2
 1646              	.LVL117:
1103:Drivers/STM32L1xx_HAL_Driver/Src/stm32l1xx_hal_rcc.c ****       if (__HAL_RCC_GET_PLL_OSCSOURCE() != RCC_PLLSOURCE_HSI)
 1647              		.loc 1 1103 7 is_stmt 1 view .LVU516
1103:Drivers/STM32L1xx_HAL_Driver/Src/stm32l1xx_hal_rcc.c ****       if (__HAL_RCC_GET_PLL_OSCSOURCE() != RCC_PLLSOURCE_HSI)
 1648              		.loc 1 1103 52 is_stmt 0 view .LVU517
 1649 0032 C2F38152 		ubfx	r2, r2, #22, #2
 1650              	.LVL118:
1103:Drivers/STM32L1xx_HAL_Driver/Src/stm32l1xx_hal_rcc.c ****       if (__HAL_RCC_GET_PLL_OSCSOURCE() != RCC_PLLSOURCE_HSI)
 1651              		.loc 1 1103 12 view .LVU518
 1652 0036 0132     		adds	r2, r2, #1
 1653              	.LVL119:
1104:Drivers/STM32L1xx_HAL_Driver/Src/stm32l1xx_hal_rcc.c ****       {
 1654              		.loc 1 1104 7 is_stmt 1 view .LVU519
1104:Drivers/STM32L1xx_HAL_Driver/Src/stm32l1xx_hal_rcc.c ****       {
 1655              		.loc 1 1104 11 is_stmt 0 view .LVU520
 1656 0038 174B     		ldr	r3, .L159
 1657 003a 9B68     		ldr	r3, [r3, #8]
1104:Drivers/STM32L1xx_HAL_Driver/Src/stm32l1xx_hal_rcc.c ****       {
 1658              		.loc 1 1104 10 view .LVU521
 1659 003c 13F4803F 		tst	r3, #65536
 1660 0040 06D0     		beq	.L153
1107:Drivers/STM32L1xx_HAL_Driver/Src/stm32l1xx_hal_rcc.c ****       }
 1661              		.loc 1 1107 9 is_stmt 1 view .LVU522
1107:Drivers/STM32L1xx_HAL_Driver/Src/stm32l1xx_hal_rcc.c ****       }
 1662              		.loc 1 1107 50 is_stmt 0 view .LVU523
 1663 0042 1748     		ldr	r0, .L159+8
1107:Drivers/STM32L1xx_HAL_Driver/Src/stm32l1xx_hal_rcc.c ****       }
 1664              		.loc 1 1107 68 view .LVU524
 1665 0044 0023     		movs	r3, #0
 1666 0046 ACFB0001 		umull	r0, r1, ip, r0
 1667 004a FFF7FEFF 		bl	__aeabi_uldivmod
 1668              	.LVL120:
1107:Drivers/STM32L1xx_HAL_Driver/Src/stm32l1xx_hal_rcc.c ****       }
 1669              		.loc 1 1107 68 view .LVU525
 1670 004e 21E0     		b	.L149
 1671              	.LVL121:
 1672              	.L153:
ARM GAS  /tmp/ccoCXvoW.s 			page 63


1112:Drivers/STM32L1xx_HAL_Driver/Src/stm32l1xx_hal_rcc.c ****       }
 1673              		.loc 1 1112 9 is_stmt 1 view .LVU526
1112:Drivers/STM32L1xx_HAL_Driver/Src/stm32l1xx_hal_rcc.c ****       }
 1674              		.loc 1 1112 50 is_stmt 0 view .LVU527
 1675 0050 4FEA4C11 		lsl	r1, ip, #5
 1676 0054 B1EB0C00 		subs	r0, r1, ip
 1677 0058 6EEB0E0E 		sbc	lr, lr, lr
 1678 005c 4FEA8E13 		lsl	r3, lr, #6
 1679 0060 43EA9063 		orr	r3, r3, r0, lsr #26
 1680 0064 8101     		lsls	r1, r0, #6
 1681 0066 091A     		subs	r1, r1, r0
 1682 0068 63EB0E03 		sbc	r3, r3, lr
 1683 006c DB00     		lsls	r3, r3, #3
 1684 006e 43EA5173 		orr	r3, r3, r1, lsr #29
 1685 0072 C900     		lsls	r1, r1, #3
 1686 0074 11EB0C0C 		adds	ip, r1, ip
 1687              	.LVL122:
1112:Drivers/STM32L1xx_HAL_Driver/Src/stm32l1xx_hal_rcc.c ****       }
 1688              		.loc 1 1112 50 view .LVU528
 1689 0078 43F10003 		adc	r3, r3, #0
 1690 007c 9902     		lsls	r1, r3, #10
1112:Drivers/STM32L1xx_HAL_Driver/Src/stm32l1xx_hal_rcc.c ****       }
 1691              		.loc 1 1112 68 view .LVU529
 1692 007e 0023     		movs	r3, #0
 1693 0080 4FEA8C20 		lsl	r0, ip, #10
 1694 0084 41EA9C51 		orr	r1, r1, ip, lsr #22
 1695 0088 FFF7FEFF 		bl	__aeabi_uldivmod
 1696              	.LVL123:
1112:Drivers/STM32L1xx_HAL_Driver/Src/stm32l1xx_hal_rcc.c ****       }
 1697              		.loc 1 1112 68 view .LVU530
 1698 008c 02E0     		b	.L149
 1699              	.LVL124:
 1700              	.L154:
1097:Drivers/STM32L1xx_HAL_Driver/Src/stm32l1xx_hal_rcc.c ****       break;
 1701              		.loc 1 1097 20 view .LVU531
 1702 008e 0448     		ldr	r0, .L159+8
 1703 0090 00E0     		b	.L149
 1704              	.L158:
1088:Drivers/STM32L1xx_HAL_Driver/Src/stm32l1xx_hal_rcc.c ****   {
 1705              		.loc 1 1088 3 view .LVU532
 1706 0092 0448     		ldr	r0, .L159+12
 1707              	.LVL125:
1125:Drivers/STM32L1xx_HAL_Driver/Src/stm32l1xx_hal_rcc.c **** }
 1708              		.loc 1 1125 3 is_stmt 1 view .LVU533
 1709              	.L149:
1126:Drivers/STM32L1xx_HAL_Driver/Src/stm32l1xx_hal_rcc.c **** 
 1710              		.loc 1 1126 1 is_stmt 0 view .LVU534
 1711 0094 08BD     		pop	{r3, pc}
 1712              	.L160:
 1713 0096 00BF     		.align	2
 1714              	.L159:
 1715 0098 00380240 		.word	1073887232
 1716 009c 00000000 		.word	PLLMulTable
 1717 00a0 00366E01 		.word	24000000
 1718 00a4 0024F400 		.word	16000000
 1719              		.cfi_endproc
 1720              	.LFE78:
ARM GAS  /tmp/ccoCXvoW.s 			page 64


 1722              		.section	.text.HAL_RCC_ClockConfig,"ax",%progbits
 1723              		.align	1
 1724              		.global	HAL_RCC_ClockConfig
 1725              		.syntax unified
 1726              		.thumb
 1727              		.thumb_func
 1729              	HAL_RCC_ClockConfig:
 1730              	.LVL126:
 1731              	.LFB74:
 798:Drivers/STM32L1xx_HAL_Driver/Src/stm32l1xx_hal_rcc.c ****   uint32_t tickstart;
 1732              		.loc 1 798 1 is_stmt 1 view -0
 1733              		.cfi_startproc
 1734              		@ args = 0, pretend = 0, frame = 0
 1735              		@ frame_needed = 0, uses_anonymous_args = 0
 799:Drivers/STM32L1xx_HAL_Driver/Src/stm32l1xx_hal_rcc.c ****   HAL_StatusTypeDef status;
 1736              		.loc 1 799 3 view .LVU536
 800:Drivers/STM32L1xx_HAL_Driver/Src/stm32l1xx_hal_rcc.c **** 
 1737              		.loc 1 800 3 view .LVU537
 803:Drivers/STM32L1xx_HAL_Driver/Src/stm32l1xx_hal_rcc.c ****   {
 1738              		.loc 1 803 3 view .LVU538
 803:Drivers/STM32L1xx_HAL_Driver/Src/stm32l1xx_hal_rcc.c ****   {
 1739              		.loc 1 803 5 is_stmt 0 view .LVU539
 1740 0000 0028     		cmp	r0, #0
 1741 0002 00F0D980 		beq	.L185
 798:Drivers/STM32L1xx_HAL_Driver/Src/stm32l1xx_hal_rcc.c ****   uint32_t tickstart;
 1742              		.loc 1 798 1 view .LVU540
 1743 0006 70B5     		push	{r4, r5, r6, lr}
 1744              	.LCFI16:
 1745              		.cfi_def_cfa_offset 16
 1746              		.cfi_offset 4, -16
 1747              		.cfi_offset 5, -12
 1748              		.cfi_offset 6, -8
 1749              		.cfi_offset 14, -4
 1750 0008 0C46     		mov	r4, r1
 1751 000a 0546     		mov	r5, r0
 808:Drivers/STM32L1xx_HAL_Driver/Src/stm32l1xx_hal_rcc.c **** 
 1752              		.loc 1 808 3 is_stmt 1 view .LVU541
 815:Drivers/STM32L1xx_HAL_Driver/Src/stm32l1xx_hal_rcc.c ****   {
 1753              		.loc 1 815 3 view .LVU542
 815:Drivers/STM32L1xx_HAL_Driver/Src/stm32l1xx_hal_rcc.c ****   {
 1754              		.loc 1 815 17 is_stmt 0 view .LVU543
 1755 000c 6E4B     		ldr	r3, .L208
 1756 000e 1B68     		ldr	r3, [r3]
 1757 0010 03F00103 		and	r3, r3, #1
 815:Drivers/STM32L1xx_HAL_Driver/Src/stm32l1xx_hal_rcc.c ****   {
 1758              		.loc 1 815 5 view .LVU544
 1759 0014 8B42     		cmp	r3, r1
 1760 0016 0DD2     		bcs	.L163
 818:Drivers/STM32L1xx_HAL_Driver/Src/stm32l1xx_hal_rcc.c **** 
 1761              		.loc 1 818 5 is_stmt 1 view .LVU545
 818:Drivers/STM32L1xx_HAL_Driver/Src/stm32l1xx_hal_rcc.c **** 
 1762              		.loc 1 818 5 view .LVU546
 1763 0018 0129     		cmp	r1, #1
 1764 001a 28D0     		beq	.L202
 1765              	.L164:
 818:Drivers/STM32L1xx_HAL_Driver/Src/stm32l1xx_hal_rcc.c **** 
 1766              		.loc 1 818 5 discriminator 3 view .LVU547
ARM GAS  /tmp/ccoCXvoW.s 			page 65


 1767 001c 6A4A     		ldr	r2, .L208
 1768 001e 1368     		ldr	r3, [r2]
 1769 0020 23F00103 		bic	r3, r3, #1
 1770 0024 2343     		orrs	r3, r3, r4
 1771 0026 1360     		str	r3, [r2]
 818:Drivers/STM32L1xx_HAL_Driver/Src/stm32l1xx_hal_rcc.c **** 
 1772              		.loc 1 818 5 discriminator 3 view .LVU548
 822:Drivers/STM32L1xx_HAL_Driver/Src/stm32l1xx_hal_rcc.c ****     {
 1773              		.loc 1 822 5 discriminator 3 view .LVU549
 822:Drivers/STM32L1xx_HAL_Driver/Src/stm32l1xx_hal_rcc.c ****     {
 1774              		.loc 1 822 8 is_stmt 0 discriminator 3 view .LVU550
 1775 0028 1368     		ldr	r3, [r2]
 1776 002a 03F00103 		and	r3, r3, #1
 822:Drivers/STM32L1xx_HAL_Driver/Src/stm32l1xx_hal_rcc.c ****     {
 1777              		.loc 1 822 7 discriminator 3 view .LVU551
 1778 002e A342     		cmp	r3, r4
 1779 0030 40F0C480 		bne	.L186
 1780              	.L163:
 829:Drivers/STM32L1xx_HAL_Driver/Src/stm32l1xx_hal_rcc.c ****   {
 1781              		.loc 1 829 3 is_stmt 1 view .LVU552
 829:Drivers/STM32L1xx_HAL_Driver/Src/stm32l1xx_hal_rcc.c ****   {
 1782              		.loc 1 829 25 is_stmt 0 view .LVU553
 1783 0034 2B68     		ldr	r3, [r5]
 829:Drivers/STM32L1xx_HAL_Driver/Src/stm32l1xx_hal_rcc.c ****   {
 1784              		.loc 1 829 5 view .LVU554
 1785 0036 13F0020F 		tst	r3, #2
 1786 003a 06D0     		beq	.L165
 831:Drivers/STM32L1xx_HAL_Driver/Src/stm32l1xx_hal_rcc.c ****     MODIFY_REG(RCC->CFGR, RCC_CFGR_HPRE, RCC_ClkInitStruct->AHBCLKDivider);
 1787              		.loc 1 831 5 is_stmt 1 view .LVU555
 832:Drivers/STM32L1xx_HAL_Driver/Src/stm32l1xx_hal_rcc.c ****   }
 1788              		.loc 1 832 5 view .LVU556
 1789 003c 634A     		ldr	r2, .L208+4
 1790 003e 9368     		ldr	r3, [r2, #8]
 1791 0040 23F0F003 		bic	r3, r3, #240
 1792 0044 A968     		ldr	r1, [r5, #8]
 1793              	.LVL127:
 832:Drivers/STM32L1xx_HAL_Driver/Src/stm32l1xx_hal_rcc.c ****   }
 1794              		.loc 1 832 5 is_stmt 0 view .LVU557
 1795 0046 0B43     		orrs	r3, r3, r1
 1796 0048 9360     		str	r3, [r2, #8]
 1797              	.L165:
 836:Drivers/STM32L1xx_HAL_Driver/Src/stm32l1xx_hal_rcc.c ****   {
 1798              		.loc 1 836 3 is_stmt 1 view .LVU558
 836:Drivers/STM32L1xx_HAL_Driver/Src/stm32l1xx_hal_rcc.c ****   {
 1799              		.loc 1 836 25 is_stmt 0 view .LVU559
 1800 004a 2B68     		ldr	r3, [r5]
 836:Drivers/STM32L1xx_HAL_Driver/Src/stm32l1xx_hal_rcc.c ****   {
 1801              		.loc 1 836 5 view .LVU560
 1802 004c 13F0010F 		tst	r3, #1
 1803 0050 72D0     		beq	.L166
 838:Drivers/STM32L1xx_HAL_Driver/Src/stm32l1xx_hal_rcc.c **** 
 1804              		.loc 1 838 5 is_stmt 1 view .LVU561
 841:Drivers/STM32L1xx_HAL_Driver/Src/stm32l1xx_hal_rcc.c ****     {
 1805              		.loc 1 841 5 view .LVU562
 841:Drivers/STM32L1xx_HAL_Driver/Src/stm32l1xx_hal_rcc.c ****     {
 1806              		.loc 1 841 25 is_stmt 0 view .LVU563
 1807 0052 6B68     		ldr	r3, [r5, #4]
ARM GAS  /tmp/ccoCXvoW.s 			page 66


 841:Drivers/STM32L1xx_HAL_Driver/Src/stm32l1xx_hal_rcc.c ****     {
 1808              		.loc 1 841 7 view .LVU564
 1809 0054 022B     		cmp	r3, #2
 1810 0056 10D0     		beq	.L203
 850:Drivers/STM32L1xx_HAL_Driver/Src/stm32l1xx_hal_rcc.c ****     {
 1811              		.loc 1 850 10 is_stmt 1 view .LVU565
 850:Drivers/STM32L1xx_HAL_Driver/Src/stm32l1xx_hal_rcc.c ****     {
 1812              		.loc 1 850 12 is_stmt 0 view .LVU566
 1813 0058 032B     		cmp	r3, #3
 1814 005a 32D0     		beq	.L204
 859:Drivers/STM32L1xx_HAL_Driver/Src/stm32l1xx_hal_rcc.c ****     {
 1815              		.loc 1 859 10 is_stmt 1 view .LVU567
 859:Drivers/STM32L1xx_HAL_Driver/Src/stm32l1xx_hal_rcc.c ****     {
 1816              		.loc 1 859 12 is_stmt 0 view .LVU568
 1817 005c 012B     		cmp	r3, #1
 1818 005e 37D0     		beq	.L205
 871:Drivers/STM32L1xx_HAL_Driver/Src/stm32l1xx_hal_rcc.c ****       {
 1819              		.loc 1 871 7 is_stmt 1 view .LVU569
 871:Drivers/STM32L1xx_HAL_Driver/Src/stm32l1xx_hal_rcc.c ****       {
 1820              		.loc 1 871 10 is_stmt 0 view .LVU570
 1821 0060 5A4A     		ldr	r2, .L208+4
 1822 0062 1268     		ldr	r2, [r2]
 871:Drivers/STM32L1xx_HAL_Driver/Src/stm32l1xx_hal_rcc.c ****       {
 1823              		.loc 1 871 9 view .LVU571
 1824 0064 12F4007F 		tst	r2, #512
 1825 0068 0DD1     		bne	.L168
 873:Drivers/STM32L1xx_HAL_Driver/Src/stm32l1xx_hal_rcc.c ****       }
 1826              		.loc 1 873 16 view .LVU572
 1827 006a 0120     		movs	r0, #1
 1828              	.LVL128:
 873:Drivers/STM32L1xx_HAL_Driver/Src/stm32l1xx_hal_rcc.c ****       }
 1829              		.loc 1 873 16 view .LVU573
 1830 006c 9DE0     		b	.L162
 1831              	.LVL129:
 1832              	.L202:
 818:Drivers/STM32L1xx_HAL_Driver/Src/stm32l1xx_hal_rcc.c **** 
 1833              		.loc 1 818 5 is_stmt 1 discriminator 1 view .LVU574
 1834 006e 564A     		ldr	r2, .L208
 1835 0070 1368     		ldr	r3, [r2]
 1836 0072 43F00403 		orr	r3, r3, #4
 1837 0076 1360     		str	r3, [r2]
 1838 0078 D0E7     		b	.L164
 1839              	.LVL130:
 1840              	.L203:
 844:Drivers/STM32L1xx_HAL_Driver/Src/stm32l1xx_hal_rcc.c ****       {
 1841              		.loc 1 844 7 view .LVU575
 844:Drivers/STM32L1xx_HAL_Driver/Src/stm32l1xx_hal_rcc.c ****       {
 1842              		.loc 1 844 10 is_stmt 0 view .LVU576
 1843 007a 544A     		ldr	r2, .L208+4
 1844 007c 1268     		ldr	r2, [r2]
 844:Drivers/STM32L1xx_HAL_Driver/Src/stm32l1xx_hal_rcc.c ****       {
 1845              		.loc 1 844 9 view .LVU577
 1846 007e 12F4003F 		tst	r2, #131072
 1847 0082 00F09D80 		beq	.L206
 1848              	.L168:
 876:Drivers/STM32L1xx_HAL_Driver/Src/stm32l1xx_hal_rcc.c **** 
 1849              		.loc 1 876 5 is_stmt 1 view .LVU578
ARM GAS  /tmp/ccoCXvoW.s 			page 67


 1850 0086 5149     		ldr	r1, .L208+4
 1851 0088 8A68     		ldr	r2, [r1, #8]
 1852 008a 22F00302 		bic	r2, r2, #3
 1853 008e 1343     		orrs	r3, r3, r2
 1854 0090 8B60     		str	r3, [r1, #8]
 879:Drivers/STM32L1xx_HAL_Driver/Src/stm32l1xx_hal_rcc.c **** 
 1855              		.loc 1 879 5 view .LVU579
 879:Drivers/STM32L1xx_HAL_Driver/Src/stm32l1xx_hal_rcc.c **** 
 1856              		.loc 1 879 17 is_stmt 0 view .LVU580
 1857 0092 FFF7FEFF 		bl	HAL_GetTick
 1858              	.LVL131:
 879:Drivers/STM32L1xx_HAL_Driver/Src/stm32l1xx_hal_rcc.c **** 
 1859              		.loc 1 879 17 view .LVU581
 1860 0096 0646     		mov	r6, r0
 1861              	.LVL132:
 881:Drivers/STM32L1xx_HAL_Driver/Src/stm32l1xx_hal_rcc.c ****     {
 1862              		.loc 1 881 5 is_stmt 1 view .LVU582
 881:Drivers/STM32L1xx_HAL_Driver/Src/stm32l1xx_hal_rcc.c ****     {
 1863              		.loc 1 881 25 is_stmt 0 view .LVU583
 1864 0098 6B68     		ldr	r3, [r5, #4]
 881:Drivers/STM32L1xx_HAL_Driver/Src/stm32l1xx_hal_rcc.c ****     {
 1865              		.loc 1 881 7 view .LVU584
 1866 009a 022B     		cmp	r3, #2
 1867 009c 1FD0     		beq	.L171
 891:Drivers/STM32L1xx_HAL_Driver/Src/stm32l1xx_hal_rcc.c ****     {
 1868              		.loc 1 891 10 is_stmt 1 view .LVU585
 891:Drivers/STM32L1xx_HAL_Driver/Src/stm32l1xx_hal_rcc.c ****     {
 1869              		.loc 1 891 12 is_stmt 0 view .LVU586
 1870 009e 032B     		cmp	r3, #3
 1871 00a0 2CD0     		beq	.L174
 901:Drivers/STM32L1xx_HAL_Driver/Src/stm32l1xx_hal_rcc.c ****     {
 1872              		.loc 1 901 10 is_stmt 1 view .LVU587
 901:Drivers/STM32L1xx_HAL_Driver/Src/stm32l1xx_hal_rcc.c ****     {
 1873              		.loc 1 901 12 is_stmt 0 view .LVU588
 1874 00a2 012B     		cmp	r3, #1
 1875 00a4 39D0     		beq	.L177
 1876              	.LVL133:
 1877              	.L178:
 913:Drivers/STM32L1xx_HAL_Driver/Src/stm32l1xx_hal_rcc.c ****       {
 1878              		.loc 1 913 12 is_stmt 1 view .LVU589
 913:Drivers/STM32L1xx_HAL_Driver/Src/stm32l1xx_hal_rcc.c ****       {
 1879              		.loc 1 913 13 is_stmt 0 view .LVU590
 1880 00a6 494B     		ldr	r3, .L208+4
 1881 00a8 9B68     		ldr	r3, [r3, #8]
 913:Drivers/STM32L1xx_HAL_Driver/Src/stm32l1xx_hal_rcc.c ****       {
 1882              		.loc 1 913 12 view .LVU591
 1883 00aa 13F00C0F 		tst	r3, #12
 1884 00ae 43D0     		beq	.L166
 915:Drivers/STM32L1xx_HAL_Driver/Src/stm32l1xx_hal_rcc.c ****         {
 1885              		.loc 1 915 9 is_stmt 1 view .LVU592
 915:Drivers/STM32L1xx_HAL_Driver/Src/stm32l1xx_hal_rcc.c ****         {
 1886              		.loc 1 915 13 is_stmt 0 view .LVU593
 1887 00b0 FFF7FEFF 		bl	HAL_GetTick
 1888              	.LVL134:
 915:Drivers/STM32L1xx_HAL_Driver/Src/stm32l1xx_hal_rcc.c ****         {
 1889              		.loc 1 915 27 view .LVU594
 1890 00b4 801B     		subs	r0, r0, r6
ARM GAS  /tmp/ccoCXvoW.s 			page 68


 915:Drivers/STM32L1xx_HAL_Driver/Src/stm32l1xx_hal_rcc.c ****         {
 1891              		.loc 1 915 11 view .LVU595
 1892 00b6 41F28833 		movw	r3, #5000
 1893 00ba 9842     		cmp	r0, r3
 1894 00bc F3D9     		bls	.L178
 917:Drivers/STM32L1xx_HAL_Driver/Src/stm32l1xx_hal_rcc.c ****         }
 1895              		.loc 1 917 18 view .LVU596
 1896 00be 0320     		movs	r0, #3
 1897 00c0 73E0     		b	.L162
 1898              	.LVL135:
 1899              	.L204:
 853:Drivers/STM32L1xx_HAL_Driver/Src/stm32l1xx_hal_rcc.c ****       {
 1900              		.loc 1 853 7 is_stmt 1 view .LVU597
 853:Drivers/STM32L1xx_HAL_Driver/Src/stm32l1xx_hal_rcc.c ****       {
 1901              		.loc 1 853 10 is_stmt 0 view .LVU598
 1902 00c2 424A     		ldr	r2, .L208+4
 1903 00c4 1268     		ldr	r2, [r2]
 853:Drivers/STM32L1xx_HAL_Driver/Src/stm32l1xx_hal_rcc.c ****       {
 1904              		.loc 1 853 9 view .LVU599
 1905 00c6 12F0007F 		tst	r2, #33554432
 1906 00ca DCD1     		bne	.L168
 855:Drivers/STM32L1xx_HAL_Driver/Src/stm32l1xx_hal_rcc.c ****       }
 1907              		.loc 1 855 16 view .LVU600
 1908 00cc 0120     		movs	r0, #1
 1909              	.LVL136:
 855:Drivers/STM32L1xx_HAL_Driver/Src/stm32l1xx_hal_rcc.c ****       }
 1910              		.loc 1 855 16 view .LVU601
 1911 00ce 6CE0     		b	.L162
 1912              	.LVL137:
 1913              	.L205:
 862:Drivers/STM32L1xx_HAL_Driver/Src/stm32l1xx_hal_rcc.c ****       {
 1914              		.loc 1 862 7 is_stmt 1 view .LVU602
 862:Drivers/STM32L1xx_HAL_Driver/Src/stm32l1xx_hal_rcc.c ****       {
 1915              		.loc 1 862 10 is_stmt 0 view .LVU603
 1916 00d0 3E4A     		ldr	r2, .L208+4
 1917 00d2 1268     		ldr	r2, [r2]
 862:Drivers/STM32L1xx_HAL_Driver/Src/stm32l1xx_hal_rcc.c ****       {
 1918              		.loc 1 862 9 view .LVU604
 1919 00d4 12F0020F 		tst	r2, #2
 1920 00d8 D5D1     		bne	.L168
 864:Drivers/STM32L1xx_HAL_Driver/Src/stm32l1xx_hal_rcc.c ****       }
 1921              		.loc 1 864 16 view .LVU605
 1922 00da 0120     		movs	r0, #1
 1923              	.LVL138:
 864:Drivers/STM32L1xx_HAL_Driver/Src/stm32l1xx_hal_rcc.c ****       }
 1924              		.loc 1 864 16 view .LVU606
 1925 00dc 65E0     		b	.L162
 1926              	.LVL139:
 1927              	.L171:
 883:Drivers/STM32L1xx_HAL_Driver/Src/stm32l1xx_hal_rcc.c ****       {
 1928              		.loc 1 883 13 is_stmt 1 view .LVU607
 883:Drivers/STM32L1xx_HAL_Driver/Src/stm32l1xx_hal_rcc.c ****       {
 1929              		.loc 1 883 14 is_stmt 0 view .LVU608
 1930 00de 3B4B     		ldr	r3, .L208+4
 1931 00e0 9B68     		ldr	r3, [r3, #8]
 1932 00e2 03F00C03 		and	r3, r3, #12
 883:Drivers/STM32L1xx_HAL_Driver/Src/stm32l1xx_hal_rcc.c ****       {
ARM GAS  /tmp/ccoCXvoW.s 			page 69


 1933              		.loc 1 883 13 view .LVU609
 1934 00e6 082B     		cmp	r3, #8
 1935 00e8 26D0     		beq	.L166
 885:Drivers/STM32L1xx_HAL_Driver/Src/stm32l1xx_hal_rcc.c ****         {
 1936              		.loc 1 885 9 is_stmt 1 view .LVU610
 885:Drivers/STM32L1xx_HAL_Driver/Src/stm32l1xx_hal_rcc.c ****         {
 1937              		.loc 1 885 13 is_stmt 0 view .LVU611
 1938 00ea FFF7FEFF 		bl	HAL_GetTick
 1939              	.LVL140:
 885:Drivers/STM32L1xx_HAL_Driver/Src/stm32l1xx_hal_rcc.c ****         {
 1940              		.loc 1 885 27 view .LVU612
 1941 00ee 831B     		subs	r3, r0, r6
 885:Drivers/STM32L1xx_HAL_Driver/Src/stm32l1xx_hal_rcc.c ****         {
 1942              		.loc 1 885 11 view .LVU613
 1943 00f0 41F28832 		movw	r2, #5000
 1944 00f4 9342     		cmp	r3, r2
 1945 00f6 F2D9     		bls	.L171
 887:Drivers/STM32L1xx_HAL_Driver/Src/stm32l1xx_hal_rcc.c ****         }
 1946              		.loc 1 887 18 view .LVU614
 1947 00f8 0320     		movs	r0, #3
 1948 00fa 56E0     		b	.L162
 1949              	.L174:
 893:Drivers/STM32L1xx_HAL_Driver/Src/stm32l1xx_hal_rcc.c ****       {
 1950              		.loc 1 893 13 is_stmt 1 view .LVU615
 893:Drivers/STM32L1xx_HAL_Driver/Src/stm32l1xx_hal_rcc.c ****       {
 1951              		.loc 1 893 14 is_stmt 0 view .LVU616
 1952 00fc 334B     		ldr	r3, .L208+4
 1953 00fe 9B68     		ldr	r3, [r3, #8]
 1954 0100 03F00C03 		and	r3, r3, #12
 893:Drivers/STM32L1xx_HAL_Driver/Src/stm32l1xx_hal_rcc.c ****       {
 1955              		.loc 1 893 13 view .LVU617
 1956 0104 0C2B     		cmp	r3, #12
 1957 0106 17D0     		beq	.L166
 895:Drivers/STM32L1xx_HAL_Driver/Src/stm32l1xx_hal_rcc.c ****         {
 1958              		.loc 1 895 9 is_stmt 1 view .LVU618
 895:Drivers/STM32L1xx_HAL_Driver/Src/stm32l1xx_hal_rcc.c ****         {
 1959              		.loc 1 895 13 is_stmt 0 view .LVU619
 1960 0108 FFF7FEFF 		bl	HAL_GetTick
 1961              	.LVL141:
 895:Drivers/STM32L1xx_HAL_Driver/Src/stm32l1xx_hal_rcc.c ****         {
 1962              		.loc 1 895 27 view .LVU620
 1963 010c 801B     		subs	r0, r0, r6
 895:Drivers/STM32L1xx_HAL_Driver/Src/stm32l1xx_hal_rcc.c ****         {
 1964              		.loc 1 895 11 view .LVU621
 1965 010e 41F28833 		movw	r3, #5000
 1966 0112 9842     		cmp	r0, r3
 1967 0114 F2D9     		bls	.L174
 897:Drivers/STM32L1xx_HAL_Driver/Src/stm32l1xx_hal_rcc.c ****         }
 1968              		.loc 1 897 18 view .LVU622
 1969 0116 0320     		movs	r0, #3
 1970 0118 47E0     		b	.L162
 1971              	.L177:
 903:Drivers/STM32L1xx_HAL_Driver/Src/stm32l1xx_hal_rcc.c ****       {
 1972              		.loc 1 903 13 is_stmt 1 view .LVU623
 903:Drivers/STM32L1xx_HAL_Driver/Src/stm32l1xx_hal_rcc.c ****       {
 1973              		.loc 1 903 14 is_stmt 0 view .LVU624
 1974 011a 2C4B     		ldr	r3, .L208+4
ARM GAS  /tmp/ccoCXvoW.s 			page 70


 1975 011c 9B68     		ldr	r3, [r3, #8]
 1976 011e 03F00C03 		and	r3, r3, #12
 903:Drivers/STM32L1xx_HAL_Driver/Src/stm32l1xx_hal_rcc.c ****       {
 1977              		.loc 1 903 13 view .LVU625
 1978 0122 042B     		cmp	r3, #4
 1979 0124 08D0     		beq	.L166
 905:Drivers/STM32L1xx_HAL_Driver/Src/stm32l1xx_hal_rcc.c ****         {
 1980              		.loc 1 905 9 is_stmt 1 view .LVU626
 905:Drivers/STM32L1xx_HAL_Driver/Src/stm32l1xx_hal_rcc.c ****         {
 1981              		.loc 1 905 13 is_stmt 0 view .LVU627
 1982 0126 FFF7FEFF 		bl	HAL_GetTick
 1983              	.LVL142:
 905:Drivers/STM32L1xx_HAL_Driver/Src/stm32l1xx_hal_rcc.c ****         {
 1984              		.loc 1 905 27 view .LVU628
 1985 012a 801B     		subs	r0, r0, r6
 905:Drivers/STM32L1xx_HAL_Driver/Src/stm32l1xx_hal_rcc.c ****         {
 1986              		.loc 1 905 11 view .LVU629
 1987 012c 41F28833 		movw	r3, #5000
 1988 0130 9842     		cmp	r0, r3
 1989 0132 F2D9     		bls	.L177
 907:Drivers/STM32L1xx_HAL_Driver/Src/stm32l1xx_hal_rcc.c ****         }
 1990              		.loc 1 907 18 view .LVU630
 1991 0134 0320     		movs	r0, #3
 1992 0136 38E0     		b	.L162
 1993              	.LVL143:
 1994              	.L166:
 923:Drivers/STM32L1xx_HAL_Driver/Src/stm32l1xx_hal_rcc.c ****   {
 1995              		.loc 1 923 3 is_stmt 1 view .LVU631
 923:Drivers/STM32L1xx_HAL_Driver/Src/stm32l1xx_hal_rcc.c ****   {
 1996              		.loc 1 923 17 is_stmt 0 view .LVU632
 1997 0138 234B     		ldr	r3, .L208
 1998 013a 1B68     		ldr	r3, [r3]
 1999 013c 03F00103 		and	r3, r3, #1
 923:Drivers/STM32L1xx_HAL_Driver/Src/stm32l1xx_hal_rcc.c ****   {
 2000              		.loc 1 923 5 view .LVU633
 2001 0140 A342     		cmp	r3, r4
 2002 0142 0CD9     		bls	.L181
 926:Drivers/STM32L1xx_HAL_Driver/Src/stm32l1xx_hal_rcc.c **** 
 2003              		.loc 1 926 5 is_stmt 1 view .LVU634
 926:Drivers/STM32L1xx_HAL_Driver/Src/stm32l1xx_hal_rcc.c **** 
 2004              		.loc 1 926 5 view .LVU635
 2005 0144 012C     		cmp	r4, #1
 2006 0146 31D0     		beq	.L207
 2007              	.L182:
 926:Drivers/STM32L1xx_HAL_Driver/Src/stm32l1xx_hal_rcc.c **** 
 2008              		.loc 1 926 5 discriminator 3 view .LVU636
 2009 0148 1F4A     		ldr	r2, .L208
 2010 014a 1368     		ldr	r3, [r2]
 2011 014c 23F00103 		bic	r3, r3, #1
 2012 0150 2343     		orrs	r3, r3, r4
 2013 0152 1360     		str	r3, [r2]
 926:Drivers/STM32L1xx_HAL_Driver/Src/stm32l1xx_hal_rcc.c **** 
 2014              		.loc 1 926 5 discriminator 3 view .LVU637
 930:Drivers/STM32L1xx_HAL_Driver/Src/stm32l1xx_hal_rcc.c ****     {
 2015              		.loc 1 930 5 discriminator 3 view .LVU638
 930:Drivers/STM32L1xx_HAL_Driver/Src/stm32l1xx_hal_rcc.c ****     {
 2016              		.loc 1 930 8 is_stmt 0 discriminator 3 view .LVU639
ARM GAS  /tmp/ccoCXvoW.s 			page 71


 2017 0154 1368     		ldr	r3, [r2]
 2018 0156 03F00103 		and	r3, r3, #1
 930:Drivers/STM32L1xx_HAL_Driver/Src/stm32l1xx_hal_rcc.c ****     {
 2019              		.loc 1 930 7 discriminator 3 view .LVU640
 2020 015a A342     		cmp	r3, r4
 2021 015c 32D1     		bne	.L195
 2022              	.L181:
 937:Drivers/STM32L1xx_HAL_Driver/Src/stm32l1xx_hal_rcc.c ****   {
 2023              		.loc 1 937 3 is_stmt 1 view .LVU641
 937:Drivers/STM32L1xx_HAL_Driver/Src/stm32l1xx_hal_rcc.c ****   {
 2024              		.loc 1 937 25 is_stmt 0 view .LVU642
 2025 015e 2B68     		ldr	r3, [r5]
 937:Drivers/STM32L1xx_HAL_Driver/Src/stm32l1xx_hal_rcc.c ****   {
 2026              		.loc 1 937 5 view .LVU643
 2027 0160 13F0040F 		tst	r3, #4
 2028 0164 06D0     		beq	.L183
 939:Drivers/STM32L1xx_HAL_Driver/Src/stm32l1xx_hal_rcc.c ****     MODIFY_REG(RCC->CFGR, RCC_CFGR_PPRE1, RCC_ClkInitStruct->APB1CLKDivider);
 2029              		.loc 1 939 5 is_stmt 1 view .LVU644
 940:Drivers/STM32L1xx_HAL_Driver/Src/stm32l1xx_hal_rcc.c ****   }
 2030              		.loc 1 940 5 view .LVU645
 2031 0166 194A     		ldr	r2, .L208+4
 2032 0168 9368     		ldr	r3, [r2, #8]
 2033 016a 23F4E063 		bic	r3, r3, #1792
 2034 016e E968     		ldr	r1, [r5, #12]
 2035 0170 0B43     		orrs	r3, r3, r1
 2036 0172 9360     		str	r3, [r2, #8]
 2037              	.L183:
 944:Drivers/STM32L1xx_HAL_Driver/Src/stm32l1xx_hal_rcc.c ****   {
 2038              		.loc 1 944 3 view .LVU646
 944:Drivers/STM32L1xx_HAL_Driver/Src/stm32l1xx_hal_rcc.c ****   {
 2039              		.loc 1 944 25 is_stmt 0 view .LVU647
 2040 0174 2B68     		ldr	r3, [r5]
 944:Drivers/STM32L1xx_HAL_Driver/Src/stm32l1xx_hal_rcc.c ****   {
 2041              		.loc 1 944 5 view .LVU648
 2042 0176 13F0080F 		tst	r3, #8
 2043 017a 07D0     		beq	.L184
 946:Drivers/STM32L1xx_HAL_Driver/Src/stm32l1xx_hal_rcc.c ****     MODIFY_REG(RCC->CFGR, RCC_CFGR_PPRE2, ((RCC_ClkInitStruct->APB2CLKDivider) << 3U));
 2044              		.loc 1 946 5 is_stmt 1 view .LVU649
 947:Drivers/STM32L1xx_HAL_Driver/Src/stm32l1xx_hal_rcc.c ****   }
 2045              		.loc 1 947 5 view .LVU650
 2046 017c 134A     		ldr	r2, .L208+4
 2047 017e 9368     		ldr	r3, [r2, #8]
 2048 0180 23F46053 		bic	r3, r3, #14336
 2049 0184 2969     		ldr	r1, [r5, #16]
 2050 0186 43EAC103 		orr	r3, r3, r1, lsl #3
 2051 018a 9360     		str	r3, [r2, #8]
 2052              	.L184:
 951:Drivers/STM32L1xx_HAL_Driver/Src/stm32l1xx_hal_rcc.c **** 
 2053              		.loc 1 951 3 view .LVU651
 951:Drivers/STM32L1xx_HAL_Driver/Src/stm32l1xx_hal_rcc.c **** 
 2054              		.loc 1 951 21 is_stmt 0 view .LVU652
 2055 018c FFF7FEFF 		bl	HAL_RCC_GetSysClockFreq
 2056              	.LVL144:
 951:Drivers/STM32L1xx_HAL_Driver/Src/stm32l1xx_hal_rcc.c **** 
 2057              		.loc 1 951 68 view .LVU653
 2058 0190 0E4B     		ldr	r3, .L208+4
 2059 0192 9B68     		ldr	r3, [r3, #8]
ARM GAS  /tmp/ccoCXvoW.s 			page 72


 951:Drivers/STM32L1xx_HAL_Driver/Src/stm32l1xx_hal_rcc.c **** 
 2060              		.loc 1 951 91 view .LVU654
 2061 0194 C3F30313 		ubfx	r3, r3, #4, #4
 951:Drivers/STM32L1xx_HAL_Driver/Src/stm32l1xx_hal_rcc.c **** 
 2062              		.loc 1 951 63 view .LVU655
 2063 0198 0D4A     		ldr	r2, .L208+8
 2064 019a D35C     		ldrb	r3, [r2, r3]	@ zero_extendqisi2
 951:Drivers/STM32L1xx_HAL_Driver/Src/stm32l1xx_hal_rcc.c **** 
 2065              		.loc 1 951 47 view .LVU656
 2066 019c D840     		lsrs	r0, r0, r3
 951:Drivers/STM32L1xx_HAL_Driver/Src/stm32l1xx_hal_rcc.c **** 
 2067              		.loc 1 951 19 view .LVU657
 2068 019e 0D4B     		ldr	r3, .L208+12
 2069 01a0 1860     		str	r0, [r3]
 954:Drivers/STM32L1xx_HAL_Driver/Src/stm32l1xx_hal_rcc.c **** 
 2070              		.loc 1 954 3 is_stmt 1 view .LVU658
 954:Drivers/STM32L1xx_HAL_Driver/Src/stm32l1xx_hal_rcc.c **** 
 2071              		.loc 1 954 12 is_stmt 0 view .LVU659
 2072 01a2 0D4B     		ldr	r3, .L208+16
 2073 01a4 1868     		ldr	r0, [r3]
 2074 01a6 FFF7FEFF 		bl	HAL_InitTick
 2075              	.LVL145:
 956:Drivers/STM32L1xx_HAL_Driver/Src/stm32l1xx_hal_rcc.c **** }
 2076              		.loc 1 956 3 is_stmt 1 view .LVU660
 2077              	.L162:
 957:Drivers/STM32L1xx_HAL_Driver/Src/stm32l1xx_hal_rcc.c **** 
 2078              		.loc 1 957 1 is_stmt 0 view .LVU661
 2079 01aa 70BD     		pop	{r4, r5, r6, pc}
 2080              	.LVL146:
 2081              	.L207:
 926:Drivers/STM32L1xx_HAL_Driver/Src/stm32l1xx_hal_rcc.c **** 
 2082              		.loc 1 926 5 is_stmt 1 discriminator 1 view .LVU662
 2083 01ac 064A     		ldr	r2, .L208
 2084 01ae 1368     		ldr	r3, [r2]
 2085 01b0 43F00403 		orr	r3, r3, #4
 2086 01b4 1360     		str	r3, [r2]
 2087 01b6 C7E7     		b	.L182
 2088              	.LVL147:
 2089              	.L185:
 2090              	.LCFI17:
 2091              		.cfi_def_cfa_offset 0
 2092              		.cfi_restore 4
 2093              		.cfi_restore 5
 2094              		.cfi_restore 6
 2095              		.cfi_restore 14
 805:Drivers/STM32L1xx_HAL_Driver/Src/stm32l1xx_hal_rcc.c ****   }
 2096              		.loc 1 805 12 is_stmt 0 view .LVU663
 2097 01b8 0120     		movs	r0, #1
 2098              	.LVL148:
 957:Drivers/STM32L1xx_HAL_Driver/Src/stm32l1xx_hal_rcc.c **** 
 2099              		.loc 1 957 1 view .LVU664
 2100 01ba 7047     		bx	lr
 2101              	.LVL149:
 2102              	.L186:
 2103              	.LCFI18:
 2104              		.cfi_def_cfa_offset 16
 2105              		.cfi_offset 4, -16
ARM GAS  /tmp/ccoCXvoW.s 			page 73


 2106              		.cfi_offset 5, -12
 2107              		.cfi_offset 6, -8
 2108              		.cfi_offset 14, -4
 824:Drivers/STM32L1xx_HAL_Driver/Src/stm32l1xx_hal_rcc.c ****     }
 2109              		.loc 1 824 14 view .LVU665
 2110 01bc 0120     		movs	r0, #1
 2111              	.LVL150:
 824:Drivers/STM32L1xx_HAL_Driver/Src/stm32l1xx_hal_rcc.c ****     }
 2112              		.loc 1 824 14 view .LVU666
 2113 01be F4E7     		b	.L162
 2114              	.LVL151:
 2115              	.L206:
 846:Drivers/STM32L1xx_HAL_Driver/Src/stm32l1xx_hal_rcc.c ****       }
 2116              		.loc 1 846 16 view .LVU667
 2117 01c0 0120     		movs	r0, #1
 2118              	.LVL152:
 846:Drivers/STM32L1xx_HAL_Driver/Src/stm32l1xx_hal_rcc.c ****       }
 2119              		.loc 1 846 16 view .LVU668
 2120 01c2 F2E7     		b	.L162
 2121              	.L195:
 932:Drivers/STM32L1xx_HAL_Driver/Src/stm32l1xx_hal_rcc.c ****     }
 2122              		.loc 1 932 14 view .LVU669
 2123 01c4 0120     		movs	r0, #1
 2124 01c6 F0E7     		b	.L162
 2125              	.L209:
 2126              		.align	2
 2127              	.L208:
 2128 01c8 003C0240 		.word	1073888256
 2129 01cc 00380240 		.word	1073887232
 2130 01d0 00000000 		.word	AHBPrescTable
 2131 01d4 00000000 		.word	SystemCoreClock
 2132 01d8 00000000 		.word	uwTickPrio
 2133              		.cfi_endproc
 2134              	.LFE74:
 2136              		.section	.text.HAL_RCC_GetHCLKFreq,"ax",%progbits
 2137              		.align	1
 2138              		.global	HAL_RCC_GetHCLKFreq
 2139              		.syntax unified
 2140              		.thumb
 2141              		.thumb_func
 2143              	HAL_RCC_GetHCLKFreq:
 2144              	.LFB79:
1138:Drivers/STM32L1xx_HAL_Driver/Src/stm32l1xx_hal_rcc.c ****   return SystemCoreClock;
 2145              		.loc 1 1138 1 is_stmt 1 view -0
 2146              		.cfi_startproc
 2147              		@ args = 0, pretend = 0, frame = 0
 2148              		@ frame_needed = 0, uses_anonymous_args = 0
 2149              		@ link register save eliminated.
1139:Drivers/STM32L1xx_HAL_Driver/Src/stm32l1xx_hal_rcc.c **** }
 2150              		.loc 1 1139 3 view .LVU671
1140:Drivers/STM32L1xx_HAL_Driver/Src/stm32l1xx_hal_rcc.c **** 
 2151              		.loc 1 1140 1 is_stmt 0 view .LVU672
 2152 0000 014B     		ldr	r3, .L211
 2153 0002 1868     		ldr	r0, [r3]
 2154 0004 7047     		bx	lr
 2155              	.L212:
 2156 0006 00BF     		.align	2
ARM GAS  /tmp/ccoCXvoW.s 			page 74


 2157              	.L211:
 2158 0008 00000000 		.word	SystemCoreClock
 2159              		.cfi_endproc
 2160              	.LFE79:
 2162              		.section	.text.HAL_RCC_GetPCLK1Freq,"ax",%progbits
 2163              		.align	1
 2164              		.global	HAL_RCC_GetPCLK1Freq
 2165              		.syntax unified
 2166              		.thumb
 2167              		.thumb_func
 2169              	HAL_RCC_GetPCLK1Freq:
 2170              	.LFB80:
1149:Drivers/STM32L1xx_HAL_Driver/Src/stm32l1xx_hal_rcc.c ****   /* Get HCLK source and Compute PCLK1 frequency ---------------------------*/
 2171              		.loc 1 1149 1 is_stmt 1 view -0
 2172              		.cfi_startproc
 2173              		@ args = 0, pretend = 0, frame = 0
 2174              		@ frame_needed = 0, uses_anonymous_args = 0
 2175 0000 08B5     		push	{r3, lr}
 2176              	.LCFI19:
 2177              		.cfi_def_cfa_offset 8
 2178              		.cfi_offset 3, -8
 2179              		.cfi_offset 14, -4
1151:Drivers/STM32L1xx_HAL_Driver/Src/stm32l1xx_hal_rcc.c **** }
 2180              		.loc 1 1151 3 view .LVU674
1151:Drivers/STM32L1xx_HAL_Driver/Src/stm32l1xx_hal_rcc.c **** }
 2181              		.loc 1 1151 11 is_stmt 0 view .LVU675
 2182 0002 FFF7FEFF 		bl	HAL_RCC_GetHCLKFreq
 2183              	.LVL153:
1151:Drivers/STM32L1xx_HAL_Driver/Src/stm32l1xx_hal_rcc.c **** }
 2184              		.loc 1 1151 54 view .LVU676
 2185 0006 044B     		ldr	r3, .L215
 2186 0008 9B68     		ldr	r3, [r3, #8]
1151:Drivers/STM32L1xx_HAL_Driver/Src/stm32l1xx_hal_rcc.c **** }
 2187              		.loc 1 1151 79 view .LVU677
 2188 000a C3F30223 		ubfx	r3, r3, #8, #3
1151:Drivers/STM32L1xx_HAL_Driver/Src/stm32l1xx_hal_rcc.c **** }
 2189              		.loc 1 1151 49 view .LVU678
 2190 000e 034A     		ldr	r2, .L215+4
 2191 0010 D35C     		ldrb	r3, [r2, r3]	@ zero_extendqisi2
1152:Drivers/STM32L1xx_HAL_Driver/Src/stm32l1xx_hal_rcc.c **** 
 2192              		.loc 1 1152 1 view .LVU679
 2193 0012 D840     		lsrs	r0, r0, r3
 2194 0014 08BD     		pop	{r3, pc}
 2195              	.L216:
 2196 0016 00BF     		.align	2
 2197              	.L215:
 2198 0018 00380240 		.word	1073887232
 2199 001c 00000000 		.word	APBPrescTable
 2200              		.cfi_endproc
 2201              	.LFE80:
 2203              		.section	.text.HAL_RCC_GetPCLK2Freq,"ax",%progbits
 2204              		.align	1
 2205              		.global	HAL_RCC_GetPCLK2Freq
 2206              		.syntax unified
 2207              		.thumb
 2208              		.thumb_func
 2210              	HAL_RCC_GetPCLK2Freq:
ARM GAS  /tmp/ccoCXvoW.s 			page 75


 2211              	.LFB81:
1161:Drivers/STM32L1xx_HAL_Driver/Src/stm32l1xx_hal_rcc.c ****   /* Get HCLK source and Compute PCLK2 frequency ---------------------------*/
 2212              		.loc 1 1161 1 is_stmt 1 view -0
 2213              		.cfi_startproc
 2214              		@ args = 0, pretend = 0, frame = 0
 2215              		@ frame_needed = 0, uses_anonymous_args = 0
 2216 0000 08B5     		push	{r3, lr}
 2217              	.LCFI20:
 2218              		.cfi_def_cfa_offset 8
 2219              		.cfi_offset 3, -8
 2220              		.cfi_offset 14, -4
1163:Drivers/STM32L1xx_HAL_Driver/Src/stm32l1xx_hal_rcc.c **** }
 2221              		.loc 1 1163 3 view .LVU681
1163:Drivers/STM32L1xx_HAL_Driver/Src/stm32l1xx_hal_rcc.c **** }
 2222              		.loc 1 1163 11 is_stmt 0 view .LVU682
 2223 0002 FFF7FEFF 		bl	HAL_RCC_GetHCLKFreq
 2224              	.LVL154:
1163:Drivers/STM32L1xx_HAL_Driver/Src/stm32l1xx_hal_rcc.c **** }
 2225              		.loc 1 1163 53 view .LVU683
 2226 0006 044B     		ldr	r3, .L219
 2227 0008 9B68     		ldr	r3, [r3, #8]
1163:Drivers/STM32L1xx_HAL_Driver/Src/stm32l1xx_hal_rcc.c **** }
 2228              		.loc 1 1163 78 view .LVU684
 2229 000a C3F3C223 		ubfx	r3, r3, #11, #3
1163:Drivers/STM32L1xx_HAL_Driver/Src/stm32l1xx_hal_rcc.c **** }
 2230              		.loc 1 1163 48 view .LVU685
 2231 000e 034A     		ldr	r2, .L219+4
 2232 0010 D35C     		ldrb	r3, [r2, r3]	@ zero_extendqisi2
1164:Drivers/STM32L1xx_HAL_Driver/Src/stm32l1xx_hal_rcc.c **** 
 2233              		.loc 1 1164 1 view .LVU686
 2234 0012 D840     		lsrs	r0, r0, r3
 2235 0014 08BD     		pop	{r3, pc}
 2236              	.L220:
 2237 0016 00BF     		.align	2
 2238              	.L219:
 2239 0018 00380240 		.word	1073887232
 2240 001c 00000000 		.word	APBPrescTable
 2241              		.cfi_endproc
 2242              	.LFE81:
 2244              		.section	.text.HAL_RCC_GetOscConfig,"ax",%progbits
 2245              		.align	1
 2246              		.global	HAL_RCC_GetOscConfig
 2247              		.syntax unified
 2248              		.thumb
 2249              		.thumb_func
 2251              	HAL_RCC_GetOscConfig:
 2252              	.LVL155:
 2253              	.LFB82:
1174:Drivers/STM32L1xx_HAL_Driver/Src/stm32l1xx_hal_rcc.c ****   /* Check the parameters */
 2254              		.loc 1 1174 1 is_stmt 1 view -0
 2255              		.cfi_startproc
 2256              		@ args = 0, pretend = 0, frame = 0
 2257              		@ frame_needed = 0, uses_anonymous_args = 0
 2258              		@ link register save eliminated.
1176:Drivers/STM32L1xx_HAL_Driver/Src/stm32l1xx_hal_rcc.c **** 
 2259              		.loc 1 1176 3 view .LVU688
1179:Drivers/STM32L1xx_HAL_Driver/Src/stm32l1xx_hal_rcc.c ****                   | RCC_OSCILLATORTYPE_LSE | RCC_OSCILLATORTYPE_LSI | RCC_OSCILLATORTYPE_MSI;
ARM GAS  /tmp/ccoCXvoW.s 			page 76


 2260              		.loc 1 1179 3 view .LVU689
1179:Drivers/STM32L1xx_HAL_Driver/Src/stm32l1xx_hal_rcc.c ****                   | RCC_OSCILLATORTYPE_LSE | RCC_OSCILLATORTYPE_LSI | RCC_OSCILLATORTYPE_MSI;
 2261              		.loc 1 1179 37 is_stmt 0 view .LVU690
 2262 0000 1F23     		movs	r3, #31
 2263 0002 0360     		str	r3, [r0]
1184:Drivers/STM32L1xx_HAL_Driver/Src/stm32l1xx_hal_rcc.c ****   {
 2264              		.loc 1 1184 3 is_stmt 1 view .LVU691
1184:Drivers/STM32L1xx_HAL_Driver/Src/stm32l1xx_hal_rcc.c ****   {
 2265              		.loc 1 1184 10 is_stmt 0 view .LVU692
 2266 0004 324B     		ldr	r3, .L236
 2267 0006 1B68     		ldr	r3, [r3]
1184:Drivers/STM32L1xx_HAL_Driver/Src/stm32l1xx_hal_rcc.c ****   {
 2268              		.loc 1 1184 5 view .LVU693
 2269 0008 13F4802F 		tst	r3, #262144
 2270 000c 3DD0     		beq	.L222
1186:Drivers/STM32L1xx_HAL_Driver/Src/stm32l1xx_hal_rcc.c ****   }
 2271              		.loc 1 1186 5 is_stmt 1 view .LVU694
1186:Drivers/STM32L1xx_HAL_Driver/Src/stm32l1xx_hal_rcc.c ****   }
 2272              		.loc 1 1186 33 is_stmt 0 view .LVU695
 2273 000e 0523     		movs	r3, #5
 2274 0010 4360     		str	r3, [r0, #4]
 2275              	.L223:
1198:Drivers/STM32L1xx_HAL_Driver/Src/stm32l1xx_hal_rcc.c ****   {
 2276              		.loc 1 1198 3 is_stmt 1 view .LVU696
1198:Drivers/STM32L1xx_HAL_Driver/Src/stm32l1xx_hal_rcc.c ****   {
 2277              		.loc 1 1198 10 is_stmt 0 view .LVU697
 2278 0012 2F4B     		ldr	r3, .L236
 2279 0014 1B68     		ldr	r3, [r3]
1198:Drivers/STM32L1xx_HAL_Driver/Src/stm32l1xx_hal_rcc.c ****   {
 2280              		.loc 1 1198 5 view .LVU698
 2281 0016 13F0010F 		tst	r3, #1
 2282 001a 41D0     		beq	.L225
1200:Drivers/STM32L1xx_HAL_Driver/Src/stm32l1xx_hal_rcc.c ****   }
 2283              		.loc 1 1200 5 is_stmt 1 view .LVU699
1200:Drivers/STM32L1xx_HAL_Driver/Src/stm32l1xx_hal_rcc.c ****   }
 2284              		.loc 1 1200 33 is_stmt 0 view .LVU700
 2285 001c 0123     		movs	r3, #1
 2286 001e C360     		str	r3, [r0, #12]
 2287              	.L226:
1207:Drivers/STM32L1xx_HAL_Driver/Src/stm32l1xx_hal_rcc.c **** 
 2288              		.loc 1 1207 3 is_stmt 1 view .LVU701
1207:Drivers/STM32L1xx_HAL_Driver/Src/stm32l1xx_hal_rcc.c **** 
 2289              		.loc 1 1207 59 is_stmt 0 view .LVU702
 2290 0020 2B4A     		ldr	r2, .L236
 2291 0022 5368     		ldr	r3, [r2, #4]
1207:Drivers/STM32L1xx_HAL_Driver/Src/stm32l1xx_hal_rcc.c **** 
 2292              		.loc 1 1207 44 view .LVU703
 2293 0024 C3F30423 		ubfx	r3, r3, #8, #5
1207:Drivers/STM32L1xx_HAL_Driver/Src/stm32l1xx_hal_rcc.c **** 
 2294              		.loc 1 1207 42 view .LVU704
 2295 0028 0361     		str	r3, [r0, #16]
1210:Drivers/STM32L1xx_HAL_Driver/Src/stm32l1xx_hal_rcc.c ****   {
 2296              		.loc 1 1210 3 is_stmt 1 view .LVU705
1210:Drivers/STM32L1xx_HAL_Driver/Src/stm32l1xx_hal_rcc.c ****   {
 2297              		.loc 1 1210 10 is_stmt 0 view .LVU706
 2298 002a 1368     		ldr	r3, [r2]
1210:Drivers/STM32L1xx_HAL_Driver/Src/stm32l1xx_hal_rcc.c ****   {
ARM GAS  /tmp/ccoCXvoW.s 			page 77


 2299              		.loc 1 1210 5 view .LVU707
 2300 002c 13F4807F 		tst	r3, #256
 2301 0030 39D0     		beq	.L227
1212:Drivers/STM32L1xx_HAL_Driver/Src/stm32l1xx_hal_rcc.c ****   }
 2302              		.loc 1 1212 5 is_stmt 1 view .LVU708
1212:Drivers/STM32L1xx_HAL_Driver/Src/stm32l1xx_hal_rcc.c ****   }
 2303              		.loc 1 1212 33 is_stmt 0 view .LVU709
 2304 0032 0123     		movs	r3, #1
 2305 0034 8361     		str	r3, [r0, #24]
 2306              	.L228:
1219:Drivers/STM32L1xx_HAL_Driver/Src/stm32l1xx_hal_rcc.c ****   RCC_OscInitStruct->MSIClockRange = (uint32_t)((RCC->ICSCR & RCC_ICSCR_MSIRANGE));
 2307              		.loc 1 1219 3 is_stmt 1 view .LVU710
1219:Drivers/STM32L1xx_HAL_Driver/Src/stm32l1xx_hal_rcc.c ****   RCC_OscInitStruct->MSIClockRange = (uint32_t)((RCC->ICSCR & RCC_ICSCR_MSIRANGE));
 2308              		.loc 1 1219 59 is_stmt 0 view .LVU711
 2309 0036 264B     		ldr	r3, .L236
 2310 0038 5A68     		ldr	r2, [r3, #4]
1219:Drivers/STM32L1xx_HAL_Driver/Src/stm32l1xx_hal_rcc.c ****   RCC_OscInitStruct->MSIClockRange = (uint32_t)((RCC->ICSCR & RCC_ICSCR_MSIRANGE));
 2311              		.loc 1 1219 44 view .LVU712
 2312 003a 120E     		lsrs	r2, r2, #24
1219:Drivers/STM32L1xx_HAL_Driver/Src/stm32l1xx_hal_rcc.c ****   RCC_OscInitStruct->MSIClockRange = (uint32_t)((RCC->ICSCR & RCC_ICSCR_MSIRANGE));
 2313              		.loc 1 1219 42 view .LVU713
 2314 003c C261     		str	r2, [r0, #28]
1220:Drivers/STM32L1xx_HAL_Driver/Src/stm32l1xx_hal_rcc.c **** 
 2315              		.loc 1 1220 3 is_stmt 1 view .LVU714
1220:Drivers/STM32L1xx_HAL_Driver/Src/stm32l1xx_hal_rcc.c **** 
 2316              		.loc 1 1220 53 is_stmt 0 view .LVU715
 2317 003e 5A68     		ldr	r2, [r3, #4]
1220:Drivers/STM32L1xx_HAL_Driver/Src/stm32l1xx_hal_rcc.c **** 
 2318              		.loc 1 1220 38 view .LVU716
 2319 0040 02F46042 		and	r2, r2, #57344
1220:Drivers/STM32L1xx_HAL_Driver/Src/stm32l1xx_hal_rcc.c **** 
 2320              		.loc 1 1220 36 view .LVU717
 2321 0044 0262     		str	r2, [r0, #32]
1223:Drivers/STM32L1xx_HAL_Driver/Src/stm32l1xx_hal_rcc.c ****   {
 2322              		.loc 1 1223 3 is_stmt 1 view .LVU718
1223:Drivers/STM32L1xx_HAL_Driver/Src/stm32l1xx_hal_rcc.c ****   {
 2323              		.loc 1 1223 10 is_stmt 0 view .LVU719
 2324 0046 5B6B     		ldr	r3, [r3, #52]
1223:Drivers/STM32L1xx_HAL_Driver/Src/stm32l1xx_hal_rcc.c ****   {
 2325              		.loc 1 1223 5 view .LVU720
 2326 0048 13F4806F 		tst	r3, #1024
 2327 004c 2ED0     		beq	.L229
1225:Drivers/STM32L1xx_HAL_Driver/Src/stm32l1xx_hal_rcc.c ****   }
 2328              		.loc 1 1225 5 is_stmt 1 view .LVU721
1225:Drivers/STM32L1xx_HAL_Driver/Src/stm32l1xx_hal_rcc.c ****   }
 2329              		.loc 1 1225 33 is_stmt 0 view .LVU722
 2330 004e 0523     		movs	r3, #5
 2331 0050 8360     		str	r3, [r0, #8]
 2332              	.L230:
1237:Drivers/STM32L1xx_HAL_Driver/Src/stm32l1xx_hal_rcc.c ****   {
 2333              		.loc 1 1237 3 is_stmt 1 view .LVU723
1237:Drivers/STM32L1xx_HAL_Driver/Src/stm32l1xx_hal_rcc.c ****   {
 2334              		.loc 1 1237 10 is_stmt 0 view .LVU724
 2335 0052 1F4B     		ldr	r3, .L236
 2336 0054 5B6B     		ldr	r3, [r3, #52]
1237:Drivers/STM32L1xx_HAL_Driver/Src/stm32l1xx_hal_rcc.c ****   {
 2337              		.loc 1 1237 5 view .LVU725
ARM GAS  /tmp/ccoCXvoW.s 			page 78


 2338 0056 13F0010F 		tst	r3, #1
 2339 005a 32D0     		beq	.L232
1239:Drivers/STM32L1xx_HAL_Driver/Src/stm32l1xx_hal_rcc.c ****   }
 2340              		.loc 1 1239 5 is_stmt 1 view .LVU726
1239:Drivers/STM32L1xx_HAL_Driver/Src/stm32l1xx_hal_rcc.c ****   }
 2341              		.loc 1 1239 33 is_stmt 0 view .LVU727
 2342 005c 0123     		movs	r3, #1
 2343 005e 4361     		str	r3, [r0, #20]
 2344              	.L233:
1248:Drivers/STM32L1xx_HAL_Driver/Src/stm32l1xx_hal_rcc.c ****   {
 2345              		.loc 1 1248 3 is_stmt 1 view .LVU728
1248:Drivers/STM32L1xx_HAL_Driver/Src/stm32l1xx_hal_rcc.c ****   {
 2346              		.loc 1 1248 10 is_stmt 0 view .LVU729
 2347 0060 1B4B     		ldr	r3, .L236
 2348 0062 1B68     		ldr	r3, [r3]
1248:Drivers/STM32L1xx_HAL_Driver/Src/stm32l1xx_hal_rcc.c ****   {
 2349              		.loc 1 1248 5 view .LVU730
 2350 0064 13F0807F 		tst	r3, #16777216
 2351 0068 2ED0     		beq	.L234
1250:Drivers/STM32L1xx_HAL_Driver/Src/stm32l1xx_hal_rcc.c ****   }
 2352              		.loc 1 1250 5 is_stmt 1 view .LVU731
1250:Drivers/STM32L1xx_HAL_Driver/Src/stm32l1xx_hal_rcc.c ****   }
 2353              		.loc 1 1250 37 is_stmt 0 view .LVU732
 2354 006a 0223     		movs	r3, #2
 2355 006c 4362     		str	r3, [r0, #36]
 2356              	.L235:
1256:Drivers/STM32L1xx_HAL_Driver/Src/stm32l1xx_hal_rcc.c ****   RCC_OscInitStruct->PLL.PLLMUL = (uint32_t)(RCC->CFGR & RCC_CFGR_PLLMUL);
 2357              		.loc 1 1256 3 is_stmt 1 view .LVU733
1256:Drivers/STM32L1xx_HAL_Driver/Src/stm32l1xx_hal_rcc.c ****   RCC_OscInitStruct->PLL.PLLMUL = (uint32_t)(RCC->CFGR & RCC_CFGR_PLLMUL);
 2358              		.loc 1 1256 52 is_stmt 0 view .LVU734
 2359 006e 184B     		ldr	r3, .L236
 2360 0070 9A68     		ldr	r2, [r3, #8]
1256:Drivers/STM32L1xx_HAL_Driver/Src/stm32l1xx_hal_rcc.c ****   RCC_OscInitStruct->PLL.PLLMUL = (uint32_t)(RCC->CFGR & RCC_CFGR_PLLMUL);
 2361              		.loc 1 1256 38 view .LVU735
 2362 0072 02F48032 		and	r2, r2, #65536
1256:Drivers/STM32L1xx_HAL_Driver/Src/stm32l1xx_hal_rcc.c ****   RCC_OscInitStruct->PLL.PLLMUL = (uint32_t)(RCC->CFGR & RCC_CFGR_PLLMUL);
 2363              		.loc 1 1256 36 view .LVU736
 2364 0076 8262     		str	r2, [r0, #40]
1257:Drivers/STM32L1xx_HAL_Driver/Src/stm32l1xx_hal_rcc.c ****   RCC_OscInitStruct->PLL.PLLDIV = (uint32_t)(RCC->CFGR & RCC_CFGR_PLLDIV);
 2365              		.loc 1 1257 3 is_stmt 1 view .LVU737
1257:Drivers/STM32L1xx_HAL_Driver/Src/stm32l1xx_hal_rcc.c ****   RCC_OscInitStruct->PLL.PLLDIV = (uint32_t)(RCC->CFGR & RCC_CFGR_PLLDIV);
 2366              		.loc 1 1257 49 is_stmt 0 view .LVU738
 2367 0078 9A68     		ldr	r2, [r3, #8]
1257:Drivers/STM32L1xx_HAL_Driver/Src/stm32l1xx_hal_rcc.c ****   RCC_OscInitStruct->PLL.PLLDIV = (uint32_t)(RCC->CFGR & RCC_CFGR_PLLDIV);
 2368              		.loc 1 1257 35 view .LVU739
 2369 007a 02F47012 		and	r2, r2, #3932160
1257:Drivers/STM32L1xx_HAL_Driver/Src/stm32l1xx_hal_rcc.c ****   RCC_OscInitStruct->PLL.PLLDIV = (uint32_t)(RCC->CFGR & RCC_CFGR_PLLDIV);
 2370              		.loc 1 1257 33 view .LVU740
 2371 007e C262     		str	r2, [r0, #44]
1258:Drivers/STM32L1xx_HAL_Driver/Src/stm32l1xx_hal_rcc.c **** }
 2372              		.loc 1 1258 3 is_stmt 1 view .LVU741
1258:Drivers/STM32L1xx_HAL_Driver/Src/stm32l1xx_hal_rcc.c **** }
 2373              		.loc 1 1258 49 is_stmt 0 view .LVU742
 2374 0080 9B68     		ldr	r3, [r3, #8]
1258:Drivers/STM32L1xx_HAL_Driver/Src/stm32l1xx_hal_rcc.c **** }
 2375              		.loc 1 1258 35 view .LVU743
 2376 0082 03F44003 		and	r3, r3, #12582912
ARM GAS  /tmp/ccoCXvoW.s 			page 79


1258:Drivers/STM32L1xx_HAL_Driver/Src/stm32l1xx_hal_rcc.c **** }
 2377              		.loc 1 1258 33 view .LVU744
 2378 0086 0363     		str	r3, [r0, #48]
1259:Drivers/STM32L1xx_HAL_Driver/Src/stm32l1xx_hal_rcc.c **** 
 2379              		.loc 1 1259 1 view .LVU745
 2380 0088 7047     		bx	lr
 2381              	.L222:
1188:Drivers/STM32L1xx_HAL_Driver/Src/stm32l1xx_hal_rcc.c ****   {
 2382              		.loc 1 1188 8 is_stmt 1 view .LVU746
1188:Drivers/STM32L1xx_HAL_Driver/Src/stm32l1xx_hal_rcc.c ****   {
 2383              		.loc 1 1188 15 is_stmt 0 view .LVU747
 2384 008a 114B     		ldr	r3, .L236
 2385 008c 1B68     		ldr	r3, [r3]
1188:Drivers/STM32L1xx_HAL_Driver/Src/stm32l1xx_hal_rcc.c ****   {
 2386              		.loc 1 1188 10 view .LVU748
 2387 008e 13F4803F 		tst	r3, #65536
 2388 0092 02D0     		beq	.L224
1190:Drivers/STM32L1xx_HAL_Driver/Src/stm32l1xx_hal_rcc.c ****   }
 2389              		.loc 1 1190 5 is_stmt 1 view .LVU749
1190:Drivers/STM32L1xx_HAL_Driver/Src/stm32l1xx_hal_rcc.c ****   }
 2390              		.loc 1 1190 33 is_stmt 0 view .LVU750
 2391 0094 0123     		movs	r3, #1
 2392 0096 4360     		str	r3, [r0, #4]
 2393 0098 BBE7     		b	.L223
 2394              	.L224:
1194:Drivers/STM32L1xx_HAL_Driver/Src/stm32l1xx_hal_rcc.c ****   }
 2395              		.loc 1 1194 5 is_stmt 1 view .LVU751
1194:Drivers/STM32L1xx_HAL_Driver/Src/stm32l1xx_hal_rcc.c ****   }
 2396              		.loc 1 1194 33 is_stmt 0 view .LVU752
 2397 009a 0023     		movs	r3, #0
 2398 009c 4360     		str	r3, [r0, #4]
 2399 009e B8E7     		b	.L223
 2400              	.L225:
1204:Drivers/STM32L1xx_HAL_Driver/Src/stm32l1xx_hal_rcc.c ****   }
 2401              		.loc 1 1204 5 is_stmt 1 view .LVU753
1204:Drivers/STM32L1xx_HAL_Driver/Src/stm32l1xx_hal_rcc.c ****   }
 2402              		.loc 1 1204 33 is_stmt 0 view .LVU754
 2403 00a0 0023     		movs	r3, #0
 2404 00a2 C360     		str	r3, [r0, #12]
 2405 00a4 BCE7     		b	.L226
 2406              	.L227:
1216:Drivers/STM32L1xx_HAL_Driver/Src/stm32l1xx_hal_rcc.c ****   }
 2407              		.loc 1 1216 5 is_stmt 1 view .LVU755
1216:Drivers/STM32L1xx_HAL_Driver/Src/stm32l1xx_hal_rcc.c ****   }
 2408              		.loc 1 1216 33 is_stmt 0 view .LVU756
 2409 00a6 0023     		movs	r3, #0
 2410 00a8 8361     		str	r3, [r0, #24]
 2411 00aa C4E7     		b	.L228
 2412              	.L229:
1227:Drivers/STM32L1xx_HAL_Driver/Src/stm32l1xx_hal_rcc.c ****   {
 2413              		.loc 1 1227 8 is_stmt 1 view .LVU757
1227:Drivers/STM32L1xx_HAL_Driver/Src/stm32l1xx_hal_rcc.c ****   {
 2414              		.loc 1 1227 15 is_stmt 0 view .LVU758
 2415 00ac 084B     		ldr	r3, .L236
 2416 00ae 5B6B     		ldr	r3, [r3, #52]
1227:Drivers/STM32L1xx_HAL_Driver/Src/stm32l1xx_hal_rcc.c ****   {
 2417              		.loc 1 1227 10 view .LVU759
ARM GAS  /tmp/ccoCXvoW.s 			page 80


 2418 00b0 13F4807F 		tst	r3, #256
 2419 00b4 02D0     		beq	.L231
1229:Drivers/STM32L1xx_HAL_Driver/Src/stm32l1xx_hal_rcc.c ****   }
 2420              		.loc 1 1229 5 is_stmt 1 view .LVU760
1229:Drivers/STM32L1xx_HAL_Driver/Src/stm32l1xx_hal_rcc.c ****   }
 2421              		.loc 1 1229 33 is_stmt 0 view .LVU761
 2422 00b6 0123     		movs	r3, #1
 2423 00b8 8360     		str	r3, [r0, #8]
 2424 00ba CAE7     		b	.L230
 2425              	.L231:
1233:Drivers/STM32L1xx_HAL_Driver/Src/stm32l1xx_hal_rcc.c ****   }
 2426              		.loc 1 1233 5 is_stmt 1 view .LVU762
1233:Drivers/STM32L1xx_HAL_Driver/Src/stm32l1xx_hal_rcc.c ****   }
 2427              		.loc 1 1233 33 is_stmt 0 view .LVU763
 2428 00bc 0023     		movs	r3, #0
 2429 00be 8360     		str	r3, [r0, #8]
 2430 00c0 C7E7     		b	.L230
 2431              	.L232:
1243:Drivers/STM32L1xx_HAL_Driver/Src/stm32l1xx_hal_rcc.c ****   }
 2432              		.loc 1 1243 5 is_stmt 1 view .LVU764
1243:Drivers/STM32L1xx_HAL_Driver/Src/stm32l1xx_hal_rcc.c ****   }
 2433              		.loc 1 1243 33 is_stmt 0 view .LVU765
 2434 00c2 0023     		movs	r3, #0
 2435 00c4 4361     		str	r3, [r0, #20]
 2436 00c6 CBE7     		b	.L233
 2437              	.L234:
1254:Drivers/STM32L1xx_HAL_Driver/Src/stm32l1xx_hal_rcc.c ****   }
 2438              		.loc 1 1254 5 is_stmt 1 view .LVU766
1254:Drivers/STM32L1xx_HAL_Driver/Src/stm32l1xx_hal_rcc.c ****   }
 2439              		.loc 1 1254 37 is_stmt 0 view .LVU767
 2440 00c8 0123     		movs	r3, #1
 2441 00ca 4362     		str	r3, [r0, #36]
 2442 00cc CFE7     		b	.L235
 2443              	.L237:
 2444 00ce 00BF     		.align	2
 2445              	.L236:
 2446 00d0 00380240 		.word	1073887232
 2447              		.cfi_endproc
 2448              	.LFE82:
 2450              		.section	.text.HAL_RCC_GetClockConfig,"ax",%progbits
 2451              		.align	1
 2452              		.global	HAL_RCC_GetClockConfig
 2453              		.syntax unified
 2454              		.thumb
 2455              		.thumb_func
 2457              	HAL_RCC_GetClockConfig:
 2458              	.LVL156:
 2459              	.LFB83:
1270:Drivers/STM32L1xx_HAL_Driver/Src/stm32l1xx_hal_rcc.c ****   /* Check the parameters */
 2460              		.loc 1 1270 1 is_stmt 1 view -0
 2461              		.cfi_startproc
 2462              		@ args = 0, pretend = 0, frame = 0
 2463              		@ frame_needed = 0, uses_anonymous_args = 0
 2464              		@ link register save eliminated.
1272:Drivers/STM32L1xx_HAL_Driver/Src/stm32l1xx_hal_rcc.c ****   assert_param(pFLatency != (void *)NULL);
 2465              		.loc 1 1272 3 view .LVU769
1273:Drivers/STM32L1xx_HAL_Driver/Src/stm32l1xx_hal_rcc.c **** 
ARM GAS  /tmp/ccoCXvoW.s 			page 81


 2466              		.loc 1 1273 3 view .LVU770
1276:Drivers/STM32L1xx_HAL_Driver/Src/stm32l1xx_hal_rcc.c **** 
 2467              		.loc 1 1276 3 view .LVU771
1276:Drivers/STM32L1xx_HAL_Driver/Src/stm32l1xx_hal_rcc.c **** 
 2468              		.loc 1 1276 32 is_stmt 0 view .LVU772
 2469 0000 0F23     		movs	r3, #15
 2470 0002 0360     		str	r3, [r0]
1279:Drivers/STM32L1xx_HAL_Driver/Src/stm32l1xx_hal_rcc.c **** 
 2471              		.loc 1 1279 3 is_stmt 1 view .LVU773
1279:Drivers/STM32L1xx_HAL_Driver/Src/stm32l1xx_hal_rcc.c **** 
 2472              		.loc 1 1279 51 is_stmt 0 view .LVU774
 2473 0004 0B4B     		ldr	r3, .L239
 2474 0006 9A68     		ldr	r2, [r3, #8]
1279:Drivers/STM32L1xx_HAL_Driver/Src/stm32l1xx_hal_rcc.c **** 
 2475              		.loc 1 1279 37 view .LVU775
 2476 0008 02F00302 		and	r2, r2, #3
1279:Drivers/STM32L1xx_HAL_Driver/Src/stm32l1xx_hal_rcc.c **** 
 2477              		.loc 1 1279 35 view .LVU776
 2478 000c 4260     		str	r2, [r0, #4]
1282:Drivers/STM32L1xx_HAL_Driver/Src/stm32l1xx_hal_rcc.c **** 
 2479              		.loc 1 1282 3 is_stmt 1 view .LVU777
1282:Drivers/STM32L1xx_HAL_Driver/Src/stm32l1xx_hal_rcc.c **** 
 2480              		.loc 1 1282 52 is_stmt 0 view .LVU778
 2481 000e 9A68     		ldr	r2, [r3, #8]
1282:Drivers/STM32L1xx_HAL_Driver/Src/stm32l1xx_hal_rcc.c **** 
 2482              		.loc 1 1282 38 view .LVU779
 2483 0010 02F0F002 		and	r2, r2, #240
1282:Drivers/STM32L1xx_HAL_Driver/Src/stm32l1xx_hal_rcc.c **** 
 2484              		.loc 1 1282 36 view .LVU780
 2485 0014 8260     		str	r2, [r0, #8]
1285:Drivers/STM32L1xx_HAL_Driver/Src/stm32l1xx_hal_rcc.c **** 
 2486              		.loc 1 1285 3 is_stmt 1 view .LVU781
1285:Drivers/STM32L1xx_HAL_Driver/Src/stm32l1xx_hal_rcc.c **** 
 2487              		.loc 1 1285 53 is_stmt 0 view .LVU782
 2488 0016 9A68     		ldr	r2, [r3, #8]
1285:Drivers/STM32L1xx_HAL_Driver/Src/stm32l1xx_hal_rcc.c **** 
 2489              		.loc 1 1285 39 view .LVU783
 2490 0018 02F4E062 		and	r2, r2, #1792
1285:Drivers/STM32L1xx_HAL_Driver/Src/stm32l1xx_hal_rcc.c **** 
 2491              		.loc 1 1285 37 view .LVU784
 2492 001c C260     		str	r2, [r0, #12]
1288:Drivers/STM32L1xx_HAL_Driver/Src/stm32l1xx_hal_rcc.c **** 
 2493              		.loc 1 1288 3 is_stmt 1 view .LVU785
1288:Drivers/STM32L1xx_HAL_Driver/Src/stm32l1xx_hal_rcc.c **** 
 2494              		.loc 1 1288 54 is_stmt 0 view .LVU786
 2495 001e 9B68     		ldr	r3, [r3, #8]
1288:Drivers/STM32L1xx_HAL_Driver/Src/stm32l1xx_hal_rcc.c **** 
 2496              		.loc 1 1288 39 view .LVU787
 2497 0020 DB08     		lsrs	r3, r3, #3
 2498 0022 03F4E063 		and	r3, r3, #1792
1288:Drivers/STM32L1xx_HAL_Driver/Src/stm32l1xx_hal_rcc.c **** 
 2499              		.loc 1 1288 37 view .LVU788
 2500 0026 0361     		str	r3, [r0, #16]
1291:Drivers/STM32L1xx_HAL_Driver/Src/stm32l1xx_hal_rcc.c **** }
 2501              		.loc 1 1291 3 is_stmt 1 view .LVU789
1291:Drivers/STM32L1xx_HAL_Driver/Src/stm32l1xx_hal_rcc.c **** }
 2502              		.loc 1 1291 16 is_stmt 0 view .LVU790
ARM GAS  /tmp/ccoCXvoW.s 			page 82


 2503 0028 034B     		ldr	r3, .L239+4
 2504 002a 1B68     		ldr	r3, [r3]
 2505 002c 03F00103 		and	r3, r3, #1
1291:Drivers/STM32L1xx_HAL_Driver/Src/stm32l1xx_hal_rcc.c **** }
 2506              		.loc 1 1291 14 view .LVU791
 2507 0030 0B60     		str	r3, [r1]
1292:Drivers/STM32L1xx_HAL_Driver/Src/stm32l1xx_hal_rcc.c **** 
 2508              		.loc 1 1292 1 view .LVU792
 2509 0032 7047     		bx	lr
 2510              	.L240:
 2511              		.align	2
 2512              	.L239:
 2513 0034 00380240 		.word	1073887232
 2514 0038 003C0240 		.word	1073888256
 2515              		.cfi_endproc
 2516              	.LFE83:
 2518              		.section	.text.HAL_RCC_CSSCallback,"ax",%progbits
 2519              		.align	1
 2520              		.weak	HAL_RCC_CSSCallback
 2521              		.syntax unified
 2522              		.thumb
 2523              		.thumb_func
 2525              	HAL_RCC_CSSCallback:
 2526              	.LFB85:
1317:Drivers/STM32L1xx_HAL_Driver/Src/stm32l1xx_hal_rcc.c ****   /* NOTE : This function Should not be modified, when the callback is needed,
 2527              		.loc 1 1317 1 is_stmt 1 view -0
 2528              		.cfi_startproc
 2529              		@ args = 0, pretend = 0, frame = 0
 2530              		@ frame_needed = 0, uses_anonymous_args = 0
 2531              		@ link register save eliminated.
1321:Drivers/STM32L1xx_HAL_Driver/Src/stm32l1xx_hal_rcc.c **** 
 2532              		.loc 1 1321 1 view .LVU794
 2533 0000 7047     		bx	lr
 2534              		.cfi_endproc
 2535              	.LFE85:
 2537              		.section	.text.HAL_RCC_NMI_IRQHandler,"ax",%progbits
 2538              		.align	1
 2539              		.global	HAL_RCC_NMI_IRQHandler
 2540              		.syntax unified
 2541              		.thumb
 2542              		.thumb_func
 2544              	HAL_RCC_NMI_IRQHandler:
 2545              	.LFB84:
1300:Drivers/STM32L1xx_HAL_Driver/Src/stm32l1xx_hal_rcc.c ****   /* Check RCC CSSF flag  */
 2546              		.loc 1 1300 1 view -0
 2547              		.cfi_startproc
 2548              		@ args = 0, pretend = 0, frame = 0
 2549              		@ frame_needed = 0, uses_anonymous_args = 0
 2550 0000 08B5     		push	{r3, lr}
 2551              	.LCFI21:
 2552              		.cfi_def_cfa_offset 8
 2553              		.cfi_offset 3, -8
 2554              		.cfi_offset 14, -4
1302:Drivers/STM32L1xx_HAL_Driver/Src/stm32l1xx_hal_rcc.c ****   {
 2555              		.loc 1 1302 3 view .LVU796
1302:Drivers/STM32L1xx_HAL_Driver/Src/stm32l1xx_hal_rcc.c ****   {
 2556              		.loc 1 1302 6 is_stmt 0 view .LVU797
ARM GAS  /tmp/ccoCXvoW.s 			page 83


 2557 0002 064B     		ldr	r3, .L246
 2558 0004 DB68     		ldr	r3, [r3, #12]
1302:Drivers/STM32L1xx_HAL_Driver/Src/stm32l1xx_hal_rcc.c ****   {
 2559              		.loc 1 1302 5 view .LVU798
 2560 0006 13F0800F 		tst	r3, #128
 2561 000a 00D1     		bne	.L245
 2562              	.L242:
1310:Drivers/STM32L1xx_HAL_Driver/Src/stm32l1xx_hal_rcc.c **** 
 2563              		.loc 1 1310 1 view .LVU799
 2564 000c 08BD     		pop	{r3, pc}
 2565              	.L245:
1305:Drivers/STM32L1xx_HAL_Driver/Src/stm32l1xx_hal_rcc.c **** 
 2566              		.loc 1 1305 5 is_stmt 1 view .LVU800
 2567 000e FFF7FEFF 		bl	HAL_RCC_CSSCallback
 2568              	.LVL157:
1308:Drivers/STM32L1xx_HAL_Driver/Src/stm32l1xx_hal_rcc.c ****   }
 2569              		.loc 1 1308 5 view .LVU801
 2570 0012 024B     		ldr	r3, .L246
 2571 0014 8022     		movs	r2, #128
 2572 0016 9A73     		strb	r2, [r3, #14]
1310:Drivers/STM32L1xx_HAL_Driver/Src/stm32l1xx_hal_rcc.c **** 
 2573              		.loc 1 1310 1 is_stmt 0 view .LVU802
 2574 0018 F8E7     		b	.L242
 2575              	.L247:
 2576 001a 00BF     		.align	2
 2577              	.L246:
 2578 001c 00380240 		.word	1073887232
 2579              		.cfi_endproc
 2580              	.LFE84:
 2582              		.text
 2583              	.Letext0:
 2584              		.file 2 "/home/seradya/toolchains/gcc-arm-none-eabi-10.3-2021.10/arm-none-eabi/include/machine/_de
 2585              		.file 3 "/home/seradya/toolchains/gcc-arm-none-eabi-10.3-2021.10/arm-none-eabi/include/sys/_stdint
 2586              		.file 4 "Drivers/CMSIS/Device/ST/STM32L1xx/Include/system_stm32l1xx.h"
 2587              		.file 5 "Drivers/CMSIS/Device/ST/STM32L1xx/Include/stm32l152xc.h"
 2588              		.file 6 "Drivers/CMSIS/Device/ST/STM32L1xx/Include/stm32l1xx.h"
 2589              		.file 7 "Drivers/STM32L1xx_HAL_Driver/Inc/stm32l1xx_hal_def.h"
 2590              		.file 8 "Drivers/STM32L1xx_HAL_Driver/Inc/stm32l1xx_hal_rcc.h"
 2591              		.file 9 "Drivers/STM32L1xx_HAL_Driver/Inc/stm32l1xx_hal_gpio.h"
 2592              		.file 10 "Drivers/STM32L1xx_HAL_Driver/Inc/stm32l1xx_hal.h"
ARM GAS  /tmp/ccoCXvoW.s 			page 84


DEFINED SYMBOLS
                            *ABS*:0000000000000000 stm32l1xx_hal_rcc.c
     /tmp/ccoCXvoW.s:18     .text.RCC_SetFlashLatencyFromMSIRange:0000000000000000 $t
     /tmp/ccoCXvoW.s:23     .text.RCC_SetFlashLatencyFromMSIRange:0000000000000000 RCC_SetFlashLatencyFromMSIRange
     /tmp/ccoCXvoW.s:163    .text.RCC_SetFlashLatencyFromMSIRange:0000000000000084 $d
     /tmp/ccoCXvoW.s:170    .text.HAL_RCC_DeInit:0000000000000000 $t
     /tmp/ccoCXvoW.s:176    .text.HAL_RCC_DeInit:0000000000000000 HAL_RCC_DeInit
     /tmp/ccoCXvoW.s:341    .text.HAL_RCC_DeInit:00000000000000c0 $d
     /tmp/ccoCXvoW.s:349    .text.HAL_RCC_OscConfig:0000000000000000 $t
     /tmp/ccoCXvoW.s:355    .text.HAL_RCC_OscConfig:0000000000000000 HAL_RCC_OscConfig
     /tmp/ccoCXvoW.s:886    .text.HAL_RCC_OscConfig:0000000000000298 $d
     /tmp/ccoCXvoW.s:894    .text.HAL_RCC_OscConfig:00000000000002ac $t
     /tmp/ccoCXvoW.s:1425   .text.HAL_RCC_OscConfig:00000000000004ec $d
     /tmp/ccoCXvoW.s:1432   .text.HAL_RCC_MCOConfig:0000000000000000 $t
     /tmp/ccoCXvoW.s:1438   .text.HAL_RCC_MCOConfig:0000000000000000 HAL_RCC_MCOConfig
     /tmp/ccoCXvoW.s:1524   .text.HAL_RCC_MCOConfig:0000000000000048 $d
     /tmp/ccoCXvoW.s:1530   .text.HAL_RCC_EnableCSS:0000000000000000 $t
     /tmp/ccoCXvoW.s:1536   .text.HAL_RCC_EnableCSS:0000000000000000 HAL_RCC_EnableCSS
     /tmp/ccoCXvoW.s:1553   .text.HAL_RCC_EnableCSS:0000000000000008 $d
     /tmp/ccoCXvoW.s:1558   .text.HAL_RCC_DisableCSS:0000000000000000 $t
     /tmp/ccoCXvoW.s:1564   .text.HAL_RCC_DisableCSS:0000000000000000 HAL_RCC_DisableCSS
     /tmp/ccoCXvoW.s:1581   .text.HAL_RCC_DisableCSS:0000000000000008 $d
     /tmp/ccoCXvoW.s:1587   .text.HAL_RCC_GetSysClockFreq:0000000000000000 $t
     /tmp/ccoCXvoW.s:1593   .text.HAL_RCC_GetSysClockFreq:0000000000000000 HAL_RCC_GetSysClockFreq
     /tmp/ccoCXvoW.s:1715   .text.HAL_RCC_GetSysClockFreq:0000000000000098 $d
     /tmp/ccoCXvoW.s:1723   .text.HAL_RCC_ClockConfig:0000000000000000 $t
     /tmp/ccoCXvoW.s:1729   .text.HAL_RCC_ClockConfig:0000000000000000 HAL_RCC_ClockConfig
     /tmp/ccoCXvoW.s:2128   .text.HAL_RCC_ClockConfig:00000000000001c8 $d
     /tmp/ccoCXvoW.s:2137   .text.HAL_RCC_GetHCLKFreq:0000000000000000 $t
     /tmp/ccoCXvoW.s:2143   .text.HAL_RCC_GetHCLKFreq:0000000000000000 HAL_RCC_GetHCLKFreq
     /tmp/ccoCXvoW.s:2158   .text.HAL_RCC_GetHCLKFreq:0000000000000008 $d
     /tmp/ccoCXvoW.s:2163   .text.HAL_RCC_GetPCLK1Freq:0000000000000000 $t
     /tmp/ccoCXvoW.s:2169   .text.HAL_RCC_GetPCLK1Freq:0000000000000000 HAL_RCC_GetPCLK1Freq
     /tmp/ccoCXvoW.s:2198   .text.HAL_RCC_GetPCLK1Freq:0000000000000018 $d
     /tmp/ccoCXvoW.s:2204   .text.HAL_RCC_GetPCLK2Freq:0000000000000000 $t
     /tmp/ccoCXvoW.s:2210   .text.HAL_RCC_GetPCLK2Freq:0000000000000000 HAL_RCC_GetPCLK2Freq
     /tmp/ccoCXvoW.s:2239   .text.HAL_RCC_GetPCLK2Freq:0000000000000018 $d
     /tmp/ccoCXvoW.s:2245   .text.HAL_RCC_GetOscConfig:0000000000000000 $t
     /tmp/ccoCXvoW.s:2251   .text.HAL_RCC_GetOscConfig:0000000000000000 HAL_RCC_GetOscConfig
     /tmp/ccoCXvoW.s:2446   .text.HAL_RCC_GetOscConfig:00000000000000d0 $d
     /tmp/ccoCXvoW.s:2451   .text.HAL_RCC_GetClockConfig:0000000000000000 $t
     /tmp/ccoCXvoW.s:2457   .text.HAL_RCC_GetClockConfig:0000000000000000 HAL_RCC_GetClockConfig
     /tmp/ccoCXvoW.s:2513   .text.HAL_RCC_GetClockConfig:0000000000000034 $d
     /tmp/ccoCXvoW.s:2519   .text.HAL_RCC_CSSCallback:0000000000000000 $t
     /tmp/ccoCXvoW.s:2525   .text.HAL_RCC_CSSCallback:0000000000000000 HAL_RCC_CSSCallback
     /tmp/ccoCXvoW.s:2538   .text.HAL_RCC_NMI_IRQHandler:0000000000000000 $t
     /tmp/ccoCXvoW.s:2544   .text.HAL_RCC_NMI_IRQHandler:0000000000000000 HAL_RCC_NMI_IRQHandler
     /tmp/ccoCXvoW.s:2578   .text.HAL_RCC_NMI_IRQHandler:000000000000001c $d

UNDEFINED SYMBOLS
HAL_GetTick
HAL_InitTick
SystemCoreClock
uwTickPrio
AHBPrescTable
HAL_GPIO_Init
__aeabi_uldivmod
ARM GAS  /tmp/ccoCXvoW.s 			page 85


PLLMulTable
APBPrescTable
