ARM GAS  /tmp/ccH7MirZ.s 			page 1


   1              		.cpu cortex-m3
   2              		.arch armv7-m
   3              		.fpu softvfp
   4              		.eabi_attribute 20, 1
   5              		.eabi_attribute 21, 1
   6              		.eabi_attribute 23, 3
   7              		.eabi_attribute 24, 1
   8              		.eabi_attribute 25, 1
   9              		.eabi_attribute 26, 1
  10              		.eabi_attribute 30, 1
  11              		.eabi_attribute 34, 1
  12              		.eabi_attribute 18, 4
  13              		.file	"stm32l1xx_hal_gpio.c"
  14              		.text
  15              	.Ltext0:
  16              		.cfi_sections	.debug_frame
  17              		.section	.text.HAL_GPIO_Init,"ax",%progbits
  18              		.align	1
  19              		.global	HAL_GPIO_Init
  20              		.syntax unified
  21              		.thumb
  22              		.thumb_func
  24              	HAL_GPIO_Init:
  25              	.LVL0:
  26              	.LFB72:
  27              		.file 1 "Drivers/STM32L1xx_HAL_Driver/Src/stm32l1xx_hal_gpio.c"
   1:Drivers/STM32L1xx_HAL_Driver/Src/stm32l1xx_hal_gpio.c **** /**
   2:Drivers/STM32L1xx_HAL_Driver/Src/stm32l1xx_hal_gpio.c ****   ******************************************************************************
   3:Drivers/STM32L1xx_HAL_Driver/Src/stm32l1xx_hal_gpio.c ****   * @file    stm32l1xx_hal_gpio.c
   4:Drivers/STM32L1xx_HAL_Driver/Src/stm32l1xx_hal_gpio.c ****   * @author  MCD Application Team
   5:Drivers/STM32L1xx_HAL_Driver/Src/stm32l1xx_hal_gpio.c ****   * @brief   GPIO HAL module driver.
   6:Drivers/STM32L1xx_HAL_Driver/Src/stm32l1xx_hal_gpio.c ****   *          This file provides firmware functions to manage the following
   7:Drivers/STM32L1xx_HAL_Driver/Src/stm32l1xx_hal_gpio.c ****   *          functionalities of the General Purpose Input/Output (GPIO) peripheral:
   8:Drivers/STM32L1xx_HAL_Driver/Src/stm32l1xx_hal_gpio.c ****   *           + Initialization and de-initialization functions
   9:Drivers/STM32L1xx_HAL_Driver/Src/stm32l1xx_hal_gpio.c ****   *           + IO operation functions
  10:Drivers/STM32L1xx_HAL_Driver/Src/stm32l1xx_hal_gpio.c ****   *
  11:Drivers/STM32L1xx_HAL_Driver/Src/stm32l1xx_hal_gpio.c ****   ******************************************************************************
  12:Drivers/STM32L1xx_HAL_Driver/Src/stm32l1xx_hal_gpio.c ****   * @attention
  13:Drivers/STM32L1xx_HAL_Driver/Src/stm32l1xx_hal_gpio.c ****   *
  14:Drivers/STM32L1xx_HAL_Driver/Src/stm32l1xx_hal_gpio.c ****   * Copyright (c) 2017 STMicroelectronics.
  15:Drivers/STM32L1xx_HAL_Driver/Src/stm32l1xx_hal_gpio.c ****   * All rights reserved.
  16:Drivers/STM32L1xx_HAL_Driver/Src/stm32l1xx_hal_gpio.c ****   *
  17:Drivers/STM32L1xx_HAL_Driver/Src/stm32l1xx_hal_gpio.c ****   * This software is licensed under terms that can be found in the LICENSE file
  18:Drivers/STM32L1xx_HAL_Driver/Src/stm32l1xx_hal_gpio.c ****   * in the root directory of this software component.
  19:Drivers/STM32L1xx_HAL_Driver/Src/stm32l1xx_hal_gpio.c ****   * If no LICENSE file comes with this software, it is provided AS-IS.
  20:Drivers/STM32L1xx_HAL_Driver/Src/stm32l1xx_hal_gpio.c ****   *
  21:Drivers/STM32L1xx_HAL_Driver/Src/stm32l1xx_hal_gpio.c ****   ******************************************************************************
  22:Drivers/STM32L1xx_HAL_Driver/Src/stm32l1xx_hal_gpio.c ****   @verbatim
  23:Drivers/STM32L1xx_HAL_Driver/Src/stm32l1xx_hal_gpio.c ****   ==============================================================================
  24:Drivers/STM32L1xx_HAL_Driver/Src/stm32l1xx_hal_gpio.c ****                     ##### GPIO Peripheral features #####
  25:Drivers/STM32L1xx_HAL_Driver/Src/stm32l1xx_hal_gpio.c ****   ==============================================================================
  26:Drivers/STM32L1xx_HAL_Driver/Src/stm32l1xx_hal_gpio.c ****   [..]
  27:Drivers/STM32L1xx_HAL_Driver/Src/stm32l1xx_hal_gpio.c ****   Each port bit of the general-purpose I/O (GPIO) ports can be individually
  28:Drivers/STM32L1xx_HAL_Driver/Src/stm32l1xx_hal_gpio.c ****   configured by software in several modes:
  29:Drivers/STM32L1xx_HAL_Driver/Src/stm32l1xx_hal_gpio.c ****   (+) Input mode
  30:Drivers/STM32L1xx_HAL_Driver/Src/stm32l1xx_hal_gpio.c ****   (+) Analog mode
  31:Drivers/STM32L1xx_HAL_Driver/Src/stm32l1xx_hal_gpio.c ****   (+) Output mode
ARM GAS  /tmp/ccH7MirZ.s 			page 2


  32:Drivers/STM32L1xx_HAL_Driver/Src/stm32l1xx_hal_gpio.c ****   (+) Alternate function mode
  33:Drivers/STM32L1xx_HAL_Driver/Src/stm32l1xx_hal_gpio.c ****   (+) External interrupt/event lines
  34:Drivers/STM32L1xx_HAL_Driver/Src/stm32l1xx_hal_gpio.c **** 
  35:Drivers/STM32L1xx_HAL_Driver/Src/stm32l1xx_hal_gpio.c ****   [..]
  36:Drivers/STM32L1xx_HAL_Driver/Src/stm32l1xx_hal_gpio.c ****   During and just after reset, the alternate functions and external interrupt
  37:Drivers/STM32L1xx_HAL_Driver/Src/stm32l1xx_hal_gpio.c ****   lines are not active and the I/O ports are configured in input floating mode.
  38:Drivers/STM32L1xx_HAL_Driver/Src/stm32l1xx_hal_gpio.c **** 
  39:Drivers/STM32L1xx_HAL_Driver/Src/stm32l1xx_hal_gpio.c ****   [..]
  40:Drivers/STM32L1xx_HAL_Driver/Src/stm32l1xx_hal_gpio.c ****   All GPIO pins have weak internal pull-up and pull-down resistors, which can be
  41:Drivers/STM32L1xx_HAL_Driver/Src/stm32l1xx_hal_gpio.c ****   activated or not.
  42:Drivers/STM32L1xx_HAL_Driver/Src/stm32l1xx_hal_gpio.c **** 
  43:Drivers/STM32L1xx_HAL_Driver/Src/stm32l1xx_hal_gpio.c ****   [..]
  44:Drivers/STM32L1xx_HAL_Driver/Src/stm32l1xx_hal_gpio.c ****   In Output or Alternate mode, each IO can be configured on open-drain or push-pull
  45:Drivers/STM32L1xx_HAL_Driver/Src/stm32l1xx_hal_gpio.c ****   type and the IO speed can be selected depending on the VDD value.
  46:Drivers/STM32L1xx_HAL_Driver/Src/stm32l1xx_hal_gpio.c **** 
  47:Drivers/STM32L1xx_HAL_Driver/Src/stm32l1xx_hal_gpio.c ****   [..]
  48:Drivers/STM32L1xx_HAL_Driver/Src/stm32l1xx_hal_gpio.c ****   The microcontroller IO pins are connected to onboard peripherals/modules through a
  49:Drivers/STM32L1xx_HAL_Driver/Src/stm32l1xx_hal_gpio.c ****   multiplexer that allows only one peripheral s alternate function (AF) connected
  50:Drivers/STM32L1xx_HAL_Driver/Src/stm32l1xx_hal_gpio.c ****   to an IO pin at a time. In this way, there can be no conflict between peripherals
  51:Drivers/STM32L1xx_HAL_Driver/Src/stm32l1xx_hal_gpio.c ****   sharing the same IO pin.
  52:Drivers/STM32L1xx_HAL_Driver/Src/stm32l1xx_hal_gpio.c **** 
  53:Drivers/STM32L1xx_HAL_Driver/Src/stm32l1xx_hal_gpio.c ****   [..]
  54:Drivers/STM32L1xx_HAL_Driver/Src/stm32l1xx_hal_gpio.c ****   All ports have external interrupt/event capability. To use external interrupt
  55:Drivers/STM32L1xx_HAL_Driver/Src/stm32l1xx_hal_gpio.c ****   lines, the port must be configured in input mode. All available GPIO pins are
  56:Drivers/STM32L1xx_HAL_Driver/Src/stm32l1xx_hal_gpio.c ****   connected to the 16 external interrupt/event lines from EXTI0 to EXTI15.
  57:Drivers/STM32L1xx_HAL_Driver/Src/stm32l1xx_hal_gpio.c **** 
  58:Drivers/STM32L1xx_HAL_Driver/Src/stm32l1xx_hal_gpio.c ****   [..]
  59:Drivers/STM32L1xx_HAL_Driver/Src/stm32l1xx_hal_gpio.c ****   The external interrupt/event controller consists of up to 28 edge detectors
  60:Drivers/STM32L1xx_HAL_Driver/Src/stm32l1xx_hal_gpio.c ****   (depending on products 16 lines are connected to GPIO) for generating event/interrupt
  61:Drivers/STM32L1xx_HAL_Driver/Src/stm32l1xx_hal_gpio.c ****   requests (each input line can be independently configured to select the type
  62:Drivers/STM32L1xx_HAL_Driver/Src/stm32l1xx_hal_gpio.c ****   (interrupt or event) and the corresponding trigger event (rising or falling or both).
  63:Drivers/STM32L1xx_HAL_Driver/Src/stm32l1xx_hal_gpio.c ****   Each line can also be masked independently.
  64:Drivers/STM32L1xx_HAL_Driver/Src/stm32l1xx_hal_gpio.c **** 
  65:Drivers/STM32L1xx_HAL_Driver/Src/stm32l1xx_hal_gpio.c ****             ##### How to use this driver #####
  66:Drivers/STM32L1xx_HAL_Driver/Src/stm32l1xx_hal_gpio.c ****   ==============================================================================
  67:Drivers/STM32L1xx_HAL_Driver/Src/stm32l1xx_hal_gpio.c ****   [..]
  68:Drivers/STM32L1xx_HAL_Driver/Src/stm32l1xx_hal_gpio.c ****    (#) Enable the GPIO AHB clock using the following function : __GPIOx_CLK_ENABLE().
  69:Drivers/STM32L1xx_HAL_Driver/Src/stm32l1xx_hal_gpio.c **** 
  70:Drivers/STM32L1xx_HAL_Driver/Src/stm32l1xx_hal_gpio.c ****    (#) Configure the GPIO pin(s) using HAL_GPIO_Init().
  71:Drivers/STM32L1xx_HAL_Driver/Src/stm32l1xx_hal_gpio.c ****        (++) Configure the IO mode using "Mode" member from GPIO_InitTypeDef structure
  72:Drivers/STM32L1xx_HAL_Driver/Src/stm32l1xx_hal_gpio.c ****        (++) Activate Pull-up, Pull-down resistor using "Pull" member from GPIO_InitTypeDef
  73:Drivers/STM32L1xx_HAL_Driver/Src/stm32l1xx_hal_gpio.c ****             structure.
  74:Drivers/STM32L1xx_HAL_Driver/Src/stm32l1xx_hal_gpio.c ****        (++) In case of Output or alternate function mode selection: the speed is
  75:Drivers/STM32L1xx_HAL_Driver/Src/stm32l1xx_hal_gpio.c ****             configured through "Speed" member from GPIO_InitTypeDef structure,
  76:Drivers/STM32L1xx_HAL_Driver/Src/stm32l1xx_hal_gpio.c ****             the speed is configurable: Low, Medium and High.
  77:Drivers/STM32L1xx_HAL_Driver/Src/stm32l1xx_hal_gpio.c ****        (++) If alternate mode is selected, the alternate function connected to the IO
  78:Drivers/STM32L1xx_HAL_Driver/Src/stm32l1xx_hal_gpio.c ****             is configured through "Alternate" member from GPIO_InitTypeDef structure
  79:Drivers/STM32L1xx_HAL_Driver/Src/stm32l1xx_hal_gpio.c ****        (++) Analog mode is required when a pin is to be used as ADC channel
  80:Drivers/STM32L1xx_HAL_Driver/Src/stm32l1xx_hal_gpio.c ****             or DAC output.
  81:Drivers/STM32L1xx_HAL_Driver/Src/stm32l1xx_hal_gpio.c ****        (++) In case of external interrupt/event selection the "Mode" member from
  82:Drivers/STM32L1xx_HAL_Driver/Src/stm32l1xx_hal_gpio.c ****             GPIO_InitTypeDef structure select the type (interrupt or event) and
  83:Drivers/STM32L1xx_HAL_Driver/Src/stm32l1xx_hal_gpio.c ****             the corresponding trigger event (rising or falling or both).
  84:Drivers/STM32L1xx_HAL_Driver/Src/stm32l1xx_hal_gpio.c **** 
  85:Drivers/STM32L1xx_HAL_Driver/Src/stm32l1xx_hal_gpio.c ****    (#) In case of external interrupt/event mode selection, configure NVIC IRQ priority
  86:Drivers/STM32L1xx_HAL_Driver/Src/stm32l1xx_hal_gpio.c ****        mapped to the EXTI line using HAL_NVIC_SetPriority() and enable it using
  87:Drivers/STM32L1xx_HAL_Driver/Src/stm32l1xx_hal_gpio.c ****        HAL_NVIC_EnableIRQ().
  88:Drivers/STM32L1xx_HAL_Driver/Src/stm32l1xx_hal_gpio.c **** 
ARM GAS  /tmp/ccH7MirZ.s 			page 3


  89:Drivers/STM32L1xx_HAL_Driver/Src/stm32l1xx_hal_gpio.c ****    (#) HAL_GPIO_DeInit allows to set register values to their reset value. It's also
  90:Drivers/STM32L1xx_HAL_Driver/Src/stm32l1xx_hal_gpio.c ****        recommended to use it to unconfigure pin which was used as an external interrupt
  91:Drivers/STM32L1xx_HAL_Driver/Src/stm32l1xx_hal_gpio.c ****        or in event mode. That's the only way to reset corresponding bit in EXTI & SYSCFG
  92:Drivers/STM32L1xx_HAL_Driver/Src/stm32l1xx_hal_gpio.c ****        registers.
  93:Drivers/STM32L1xx_HAL_Driver/Src/stm32l1xx_hal_gpio.c **** 
  94:Drivers/STM32L1xx_HAL_Driver/Src/stm32l1xx_hal_gpio.c ****    (#) To get the level of a pin configured in input mode use HAL_GPIO_ReadPin().
  95:Drivers/STM32L1xx_HAL_Driver/Src/stm32l1xx_hal_gpio.c **** 
  96:Drivers/STM32L1xx_HAL_Driver/Src/stm32l1xx_hal_gpio.c ****    (#) To set/reset the level of a pin configured in output mode use
  97:Drivers/STM32L1xx_HAL_Driver/Src/stm32l1xx_hal_gpio.c ****        HAL_GPIO_WritePin()/HAL_GPIO_TogglePin().
  98:Drivers/STM32L1xx_HAL_Driver/Src/stm32l1xx_hal_gpio.c **** 
  99:Drivers/STM32L1xx_HAL_Driver/Src/stm32l1xx_hal_gpio.c ****    (#) To lock pin configuration until next reset use HAL_GPIO_LockPin().
 100:Drivers/STM32L1xx_HAL_Driver/Src/stm32l1xx_hal_gpio.c **** 
 101:Drivers/STM32L1xx_HAL_Driver/Src/stm32l1xx_hal_gpio.c ****    (#) During and just after reset, the alternate functions are not
 102:Drivers/STM32L1xx_HAL_Driver/Src/stm32l1xx_hal_gpio.c ****        active and the GPIO pins are configured in input floating mode (except JTAG
 103:Drivers/STM32L1xx_HAL_Driver/Src/stm32l1xx_hal_gpio.c ****        pins).
 104:Drivers/STM32L1xx_HAL_Driver/Src/stm32l1xx_hal_gpio.c **** 
 105:Drivers/STM32L1xx_HAL_Driver/Src/stm32l1xx_hal_gpio.c ****    (#) The LSE oscillator pins OSC32_IN and OSC32_OUT can be used as general purpose
 106:Drivers/STM32L1xx_HAL_Driver/Src/stm32l1xx_hal_gpio.c ****        (PC14 and PC15, respectively) when the LSE oscillator is off. The LSE has
 107:Drivers/STM32L1xx_HAL_Driver/Src/stm32l1xx_hal_gpio.c ****        priority over the GPIO function.
 108:Drivers/STM32L1xx_HAL_Driver/Src/stm32l1xx_hal_gpio.c **** 
 109:Drivers/STM32L1xx_HAL_Driver/Src/stm32l1xx_hal_gpio.c ****    (#) The HSE oscillator pins OSC_IN/OSC_OUT can be used as
 110:Drivers/STM32L1xx_HAL_Driver/Src/stm32l1xx_hal_gpio.c ****        general purpose PH0 and PH1, respectively, when the HSE oscillator is off.
 111:Drivers/STM32L1xx_HAL_Driver/Src/stm32l1xx_hal_gpio.c ****        The HSE has priority over the GPIO function.
 112:Drivers/STM32L1xx_HAL_Driver/Src/stm32l1xx_hal_gpio.c **** 
 113:Drivers/STM32L1xx_HAL_Driver/Src/stm32l1xx_hal_gpio.c ****   @endverbatim
 114:Drivers/STM32L1xx_HAL_Driver/Src/stm32l1xx_hal_gpio.c ****   ******************************************************************************
 115:Drivers/STM32L1xx_HAL_Driver/Src/stm32l1xx_hal_gpio.c ****   */
 116:Drivers/STM32L1xx_HAL_Driver/Src/stm32l1xx_hal_gpio.c **** 
 117:Drivers/STM32L1xx_HAL_Driver/Src/stm32l1xx_hal_gpio.c **** /* Includes ------------------------------------------------------------------*/
 118:Drivers/STM32L1xx_HAL_Driver/Src/stm32l1xx_hal_gpio.c **** #include "stm32l1xx_hal.h"
 119:Drivers/STM32L1xx_HAL_Driver/Src/stm32l1xx_hal_gpio.c **** 
 120:Drivers/STM32L1xx_HAL_Driver/Src/stm32l1xx_hal_gpio.c **** /** @addtogroup STM32L1xx_HAL_Driver
 121:Drivers/STM32L1xx_HAL_Driver/Src/stm32l1xx_hal_gpio.c ****   * @{
 122:Drivers/STM32L1xx_HAL_Driver/Src/stm32l1xx_hal_gpio.c ****   */
 123:Drivers/STM32L1xx_HAL_Driver/Src/stm32l1xx_hal_gpio.c **** 
 124:Drivers/STM32L1xx_HAL_Driver/Src/stm32l1xx_hal_gpio.c **** /** @addtogroup GPIO
 125:Drivers/STM32L1xx_HAL_Driver/Src/stm32l1xx_hal_gpio.c ****   * @brief GPIO HAL module driver
 126:Drivers/STM32L1xx_HAL_Driver/Src/stm32l1xx_hal_gpio.c ****   * @{
 127:Drivers/STM32L1xx_HAL_Driver/Src/stm32l1xx_hal_gpio.c ****   */
 128:Drivers/STM32L1xx_HAL_Driver/Src/stm32l1xx_hal_gpio.c **** 
 129:Drivers/STM32L1xx_HAL_Driver/Src/stm32l1xx_hal_gpio.c **** #ifdef HAL_GPIO_MODULE_ENABLED
 130:Drivers/STM32L1xx_HAL_Driver/Src/stm32l1xx_hal_gpio.c **** 
 131:Drivers/STM32L1xx_HAL_Driver/Src/stm32l1xx_hal_gpio.c **** /* Private typedef -----------------------------------------------------------*/
 132:Drivers/STM32L1xx_HAL_Driver/Src/stm32l1xx_hal_gpio.c **** /* Private define ------------------------------------------------------------*/
 133:Drivers/STM32L1xx_HAL_Driver/Src/stm32l1xx_hal_gpio.c **** /** @addtogroup GPIO_Private_Constants
 134:Drivers/STM32L1xx_HAL_Driver/Src/stm32l1xx_hal_gpio.c ****   * @{
 135:Drivers/STM32L1xx_HAL_Driver/Src/stm32l1xx_hal_gpio.c ****   */
 136:Drivers/STM32L1xx_HAL_Driver/Src/stm32l1xx_hal_gpio.c **** #define GPIO_NUMBER           (16U)
 137:Drivers/STM32L1xx_HAL_Driver/Src/stm32l1xx_hal_gpio.c **** 
 138:Drivers/STM32L1xx_HAL_Driver/Src/stm32l1xx_hal_gpio.c **** /**
 139:Drivers/STM32L1xx_HAL_Driver/Src/stm32l1xx_hal_gpio.c ****   * @}
 140:Drivers/STM32L1xx_HAL_Driver/Src/stm32l1xx_hal_gpio.c ****   */
 141:Drivers/STM32L1xx_HAL_Driver/Src/stm32l1xx_hal_gpio.c **** 
 142:Drivers/STM32L1xx_HAL_Driver/Src/stm32l1xx_hal_gpio.c **** /* Private macro -------------------------------------------------------------*/
 143:Drivers/STM32L1xx_HAL_Driver/Src/stm32l1xx_hal_gpio.c **** /* Private variables ---------------------------------------------------------*/
 144:Drivers/STM32L1xx_HAL_Driver/Src/stm32l1xx_hal_gpio.c **** /* Private function prototypes -----------------------------------------------*/
 145:Drivers/STM32L1xx_HAL_Driver/Src/stm32l1xx_hal_gpio.c **** /* Exported functions ---------------------------------------------------------*/
ARM GAS  /tmp/ccH7MirZ.s 			page 4


 146:Drivers/STM32L1xx_HAL_Driver/Src/stm32l1xx_hal_gpio.c **** 
 147:Drivers/STM32L1xx_HAL_Driver/Src/stm32l1xx_hal_gpio.c **** /** @addtogroup GPIO_Exported_Functions
 148:Drivers/STM32L1xx_HAL_Driver/Src/stm32l1xx_hal_gpio.c ****   * @{
 149:Drivers/STM32L1xx_HAL_Driver/Src/stm32l1xx_hal_gpio.c ****   */
 150:Drivers/STM32L1xx_HAL_Driver/Src/stm32l1xx_hal_gpio.c **** 
 151:Drivers/STM32L1xx_HAL_Driver/Src/stm32l1xx_hal_gpio.c **** /** @addtogroup GPIO_Exported_Functions_Group1
 152:Drivers/STM32L1xx_HAL_Driver/Src/stm32l1xx_hal_gpio.c ****  *  @brief    Initialization and Configuration functions
 153:Drivers/STM32L1xx_HAL_Driver/Src/stm32l1xx_hal_gpio.c ****  *
 154:Drivers/STM32L1xx_HAL_Driver/Src/stm32l1xx_hal_gpio.c **** @verbatim
 155:Drivers/STM32L1xx_HAL_Driver/Src/stm32l1xx_hal_gpio.c ****  ===============================================================================
 156:Drivers/STM32L1xx_HAL_Driver/Src/stm32l1xx_hal_gpio.c ****               ##### Initialization and Configuration functions #####
 157:Drivers/STM32L1xx_HAL_Driver/Src/stm32l1xx_hal_gpio.c ****  ===============================================================================
 158:Drivers/STM32L1xx_HAL_Driver/Src/stm32l1xx_hal_gpio.c **** 
 159:Drivers/STM32L1xx_HAL_Driver/Src/stm32l1xx_hal_gpio.c **** @endverbatim
 160:Drivers/STM32L1xx_HAL_Driver/Src/stm32l1xx_hal_gpio.c ****   * @{
 161:Drivers/STM32L1xx_HAL_Driver/Src/stm32l1xx_hal_gpio.c ****   */
 162:Drivers/STM32L1xx_HAL_Driver/Src/stm32l1xx_hal_gpio.c **** 
 163:Drivers/STM32L1xx_HAL_Driver/Src/stm32l1xx_hal_gpio.c **** /**
 164:Drivers/STM32L1xx_HAL_Driver/Src/stm32l1xx_hal_gpio.c ****   * @brief  Initializes the GPIOx peripheral according to the specified parameters in the GPIO_Init
 165:Drivers/STM32L1xx_HAL_Driver/Src/stm32l1xx_hal_gpio.c ****   * @param  GPIOx where x can be (A..G depending on device used) to select the GPIO peripheral for 
 166:Drivers/STM32L1xx_HAL_Driver/Src/stm32l1xx_hal_gpio.c ****   * @param  GPIO_Init pointer to a GPIO_InitTypeDef structure that contains
 167:Drivers/STM32L1xx_HAL_Driver/Src/stm32l1xx_hal_gpio.c ****   *         the configuration information for the specified GPIO peripheral.
 168:Drivers/STM32L1xx_HAL_Driver/Src/stm32l1xx_hal_gpio.c ****   * @retval None
 169:Drivers/STM32L1xx_HAL_Driver/Src/stm32l1xx_hal_gpio.c ****   */
 170:Drivers/STM32L1xx_HAL_Driver/Src/stm32l1xx_hal_gpio.c **** void HAL_GPIO_Init(GPIO_TypeDef  *GPIOx, GPIO_InitTypeDef *GPIO_Init)
 171:Drivers/STM32L1xx_HAL_Driver/Src/stm32l1xx_hal_gpio.c **** {
  28              		.loc 1 171 1 view -0
  29              		.cfi_startproc
  30              		@ args = 0, pretend = 0, frame = 8
  31              		@ frame_needed = 0, uses_anonymous_args = 0
  32              		.loc 1 171 1 is_stmt 0 view .LVU1
  33 0000 70B5     		push	{r4, r5, r6, lr}
  34              	.LCFI0:
  35              		.cfi_def_cfa_offset 16
  36              		.cfi_offset 4, -16
  37              		.cfi_offset 5, -12
  38              		.cfi_offset 6, -8
  39              		.cfi_offset 14, -4
  40 0002 82B0     		sub	sp, sp, #8
  41              	.LCFI1:
  42              		.cfi_def_cfa_offset 24
 172:Drivers/STM32L1xx_HAL_Driver/Src/stm32l1xx_hal_gpio.c ****   uint32_t position = 0x00;
  43              		.loc 1 172 3 is_stmt 1 view .LVU2
  44              	.LVL1:
 173:Drivers/STM32L1xx_HAL_Driver/Src/stm32l1xx_hal_gpio.c ****   uint32_t iocurrent = 0x00;
  45              		.loc 1 173 3 view .LVU3
 174:Drivers/STM32L1xx_HAL_Driver/Src/stm32l1xx_hal_gpio.c ****   uint32_t temp = 0x00;
  46              		.loc 1 174 3 view .LVU4
 175:Drivers/STM32L1xx_HAL_Driver/Src/stm32l1xx_hal_gpio.c **** 
 176:Drivers/STM32L1xx_HAL_Driver/Src/stm32l1xx_hal_gpio.c ****   /* Check the parameters */
 177:Drivers/STM32L1xx_HAL_Driver/Src/stm32l1xx_hal_gpio.c ****   assert_param(IS_GPIO_ALL_INSTANCE(GPIOx));
  47              		.loc 1 177 3 view .LVU5
 178:Drivers/STM32L1xx_HAL_Driver/Src/stm32l1xx_hal_gpio.c ****   assert_param(IS_GPIO_PIN(GPIO_Init->Pin));
  48              		.loc 1 178 3 view .LVU6
 179:Drivers/STM32L1xx_HAL_Driver/Src/stm32l1xx_hal_gpio.c ****   assert_param(IS_GPIO_MODE(GPIO_Init->Mode));
  49              		.loc 1 179 3 view .LVU7
 180:Drivers/STM32L1xx_HAL_Driver/Src/stm32l1xx_hal_gpio.c **** 
ARM GAS  /tmp/ccH7MirZ.s 			page 5


 181:Drivers/STM32L1xx_HAL_Driver/Src/stm32l1xx_hal_gpio.c ****   /* Configure the port pins */
 182:Drivers/STM32L1xx_HAL_Driver/Src/stm32l1xx_hal_gpio.c ****   while (((GPIO_Init->Pin) >> position) != 0)
  50              		.loc 1 182 3 view .LVU8
 172:Drivers/STM32L1xx_HAL_Driver/Src/stm32l1xx_hal_gpio.c ****   uint32_t iocurrent = 0x00;
  51              		.loc 1 172 12 is_stmt 0 view .LVU9
  52 0004 0023     		movs	r3, #0
  53              		.loc 1 182 9 view .LVU10
  54 0006 65E0     		b	.L2
  55              	.LVL2:
  56              	.L20:
 183:Drivers/STM32L1xx_HAL_Driver/Src/stm32l1xx_hal_gpio.c ****   {
 184:Drivers/STM32L1xx_HAL_Driver/Src/stm32l1xx_hal_gpio.c ****     /* Get current io position */
 185:Drivers/STM32L1xx_HAL_Driver/Src/stm32l1xx_hal_gpio.c ****     iocurrent = (GPIO_Init->Pin) & (1U << position);
 186:Drivers/STM32L1xx_HAL_Driver/Src/stm32l1xx_hal_gpio.c **** 
 187:Drivers/STM32L1xx_HAL_Driver/Src/stm32l1xx_hal_gpio.c ****     if (iocurrent)
 188:Drivers/STM32L1xx_HAL_Driver/Src/stm32l1xx_hal_gpio.c ****     {
 189:Drivers/STM32L1xx_HAL_Driver/Src/stm32l1xx_hal_gpio.c ****       /*--------------------- GPIO Mode Configuration ------------------------*/
 190:Drivers/STM32L1xx_HAL_Driver/Src/stm32l1xx_hal_gpio.c ****       /* In case of Output or Alternate function mode selection */
 191:Drivers/STM32L1xx_HAL_Driver/Src/stm32l1xx_hal_gpio.c ****       if (((GPIO_Init->Mode & GPIO_MODE) == MODE_OUTPUT) ||
 192:Drivers/STM32L1xx_HAL_Driver/Src/stm32l1xx_hal_gpio.c ****           ((GPIO_Init->Mode & GPIO_MODE) == MODE_AF))
 193:Drivers/STM32L1xx_HAL_Driver/Src/stm32l1xx_hal_gpio.c ****       {
 194:Drivers/STM32L1xx_HAL_Driver/Src/stm32l1xx_hal_gpio.c ****         /* Check the Speed parameter */
 195:Drivers/STM32L1xx_HAL_Driver/Src/stm32l1xx_hal_gpio.c ****         assert_param(IS_GPIO_SPEED(GPIO_Init->Speed));
  57              		.loc 1 195 9 is_stmt 1 view .LVU11
 196:Drivers/STM32L1xx_HAL_Driver/Src/stm32l1xx_hal_gpio.c ****         /* Configure the IO Speed */
 197:Drivers/STM32L1xx_HAL_Driver/Src/stm32l1xx_hal_gpio.c ****         temp = GPIOx->OSPEEDR;
  58              		.loc 1 197 9 view .LVU12
  59              		.loc 1 197 14 is_stmt 0 view .LVU13
  60 0008 8568     		ldr	r5, [r0, #8]
  61              	.LVL3:
 198:Drivers/STM32L1xx_HAL_Driver/Src/stm32l1xx_hal_gpio.c ****         CLEAR_BIT(temp, GPIO_OSPEEDER_OSPEEDR0 << (position * 2));
  62              		.loc 1 198 9 is_stmt 1 view .LVU14
  63 000a 5E00     		lsls	r6, r3, #1
  64 000c 0324     		movs	r4, #3
  65 000e B440     		lsls	r4, r4, r6
  66 0010 25EA0405 		bic	r5, r5, r4
  67              	.LVL4:
 199:Drivers/STM32L1xx_HAL_Driver/Src/stm32l1xx_hal_gpio.c ****         SET_BIT(temp, GPIO_Init->Speed << (position * 2));
  68              		.loc 1 199 9 view .LVU15
  69 0014 CC68     		ldr	r4, [r1, #12]
  70 0016 B440     		lsls	r4, r4, r6
  71 0018 2C43     		orrs	r4, r4, r5
  72              	.LVL5:
 200:Drivers/STM32L1xx_HAL_Driver/Src/stm32l1xx_hal_gpio.c ****         GPIOx->OSPEEDR = temp;
  73              		.loc 1 200 9 view .LVU16
  74              		.loc 1 200 24 is_stmt 0 view .LVU17
  75 001a 8460     		str	r4, [r0, #8]
 201:Drivers/STM32L1xx_HAL_Driver/Src/stm32l1xx_hal_gpio.c **** 
 202:Drivers/STM32L1xx_HAL_Driver/Src/stm32l1xx_hal_gpio.c ****         /* Configure the IO Output Type */
 203:Drivers/STM32L1xx_HAL_Driver/Src/stm32l1xx_hal_gpio.c ****         temp = GPIOx->OTYPER;
  76              		.loc 1 203 9 is_stmt 1 view .LVU18
  77              		.loc 1 203 14 is_stmt 0 view .LVU19
  78 001c 4468     		ldr	r4, [r0, #4]
  79              	.LVL6:
 204:Drivers/STM32L1xx_HAL_Driver/Src/stm32l1xx_hal_gpio.c ****         CLEAR_BIT(temp, GPIO_OTYPER_OT_0 << position) ;
  80              		.loc 1 204 9 is_stmt 1 view .LVU20
  81 001e 24EA0C0C 		bic	ip, r4, ip
ARM GAS  /tmp/ccH7MirZ.s 			page 6


  82              	.LVL7:
 205:Drivers/STM32L1xx_HAL_Driver/Src/stm32l1xx_hal_gpio.c ****         SET_BIT(temp, ((GPIO_Init->Mode & OUTPUT_TYPE) >> OUTPUT_TYPE_Pos) << position);
  83              		.loc 1 205 9 view .LVU21
  84 0022 4C68     		ldr	r4, [r1, #4]
  85 0024 C4F30014 		ubfx	r4, r4, #4, #1
  86 0028 9C40     		lsls	r4, r4, r3
  87 002a 44EA0C04 		orr	r4, r4, ip
  88              	.LVL8:
 206:Drivers/STM32L1xx_HAL_Driver/Src/stm32l1xx_hal_gpio.c ****         GPIOx->OTYPER = temp;
  89              		.loc 1 206 9 view .LVU22
  90              		.loc 1 206 23 is_stmt 0 view .LVU23
  91 002e 4460     		str	r4, [r0, #4]
  92 0030 61E0     		b	.L4
  93              	.LVL9:
  94              	.L21:
 207:Drivers/STM32L1xx_HAL_Driver/Src/stm32l1xx_hal_gpio.c ****       }
 208:Drivers/STM32L1xx_HAL_Driver/Src/stm32l1xx_hal_gpio.c **** 
 209:Drivers/STM32L1xx_HAL_Driver/Src/stm32l1xx_hal_gpio.c ****       if ((GPIO_Init->Mode & GPIO_MODE) != MODE_ANALOG)
 210:Drivers/STM32L1xx_HAL_Driver/Src/stm32l1xx_hal_gpio.c ****       {
 211:Drivers/STM32L1xx_HAL_Driver/Src/stm32l1xx_hal_gpio.c ****         /* Check the Pull parameter */
 212:Drivers/STM32L1xx_HAL_Driver/Src/stm32l1xx_hal_gpio.c ****         assert_param(IS_GPIO_PULL(GPIO_Init->Pull));
 213:Drivers/STM32L1xx_HAL_Driver/Src/stm32l1xx_hal_gpio.c **** 
 214:Drivers/STM32L1xx_HAL_Driver/Src/stm32l1xx_hal_gpio.c ****         /* Activate the Pull-up or Pull down resistor for the current IO */
 215:Drivers/STM32L1xx_HAL_Driver/Src/stm32l1xx_hal_gpio.c ****         temp = GPIOx->PUPDR;
 216:Drivers/STM32L1xx_HAL_Driver/Src/stm32l1xx_hal_gpio.c ****         CLEAR_BIT(temp, GPIO_PUPDR_PUPDR0 << (position * 2));
 217:Drivers/STM32L1xx_HAL_Driver/Src/stm32l1xx_hal_gpio.c ****         SET_BIT(temp, (GPIO_Init->Pull) << (position * 2));
 218:Drivers/STM32L1xx_HAL_Driver/Src/stm32l1xx_hal_gpio.c ****         GPIOx->PUPDR = temp;
 219:Drivers/STM32L1xx_HAL_Driver/Src/stm32l1xx_hal_gpio.c ****       }
 220:Drivers/STM32L1xx_HAL_Driver/Src/stm32l1xx_hal_gpio.c **** 
 221:Drivers/STM32L1xx_HAL_Driver/Src/stm32l1xx_hal_gpio.c ****       /* In case of Alternate function mode selection */
 222:Drivers/STM32L1xx_HAL_Driver/Src/stm32l1xx_hal_gpio.c ****       if ((GPIO_Init->Mode & GPIO_MODE) == MODE_AF)
 223:Drivers/STM32L1xx_HAL_Driver/Src/stm32l1xx_hal_gpio.c ****       {
 224:Drivers/STM32L1xx_HAL_Driver/Src/stm32l1xx_hal_gpio.c ****         /* Check the Alternate function parameters */
 225:Drivers/STM32L1xx_HAL_Driver/Src/stm32l1xx_hal_gpio.c ****         assert_param(IS_GPIO_AF_INSTANCE(GPIOx));
  95              		.loc 1 225 9 is_stmt 1 view .LVU24
 226:Drivers/STM32L1xx_HAL_Driver/Src/stm32l1xx_hal_gpio.c ****         assert_param(IS_GPIO_AF(GPIO_Init->Alternate));
  96              		.loc 1 226 9 view .LVU25
 227:Drivers/STM32L1xx_HAL_Driver/Src/stm32l1xx_hal_gpio.c **** 
 228:Drivers/STM32L1xx_HAL_Driver/Src/stm32l1xx_hal_gpio.c ****         /* Configure Alternate function mapped with the current IO */
 229:Drivers/STM32L1xx_HAL_Driver/Src/stm32l1xx_hal_gpio.c ****         /* Identify AFRL or AFRH register based on IO position*/
 230:Drivers/STM32L1xx_HAL_Driver/Src/stm32l1xx_hal_gpio.c ****         temp = GPIOx->AFR[position >> 3];
  97              		.loc 1 230 9 view .LVU26
  98              		.loc 1 230 36 is_stmt 0 view .LVU27
  99 0032 DD08     		lsrs	r5, r3, #3
 100              		.loc 1 230 14 view .LVU28
 101 0034 0835     		adds	r5, r5, #8
 102 0036 50F82560 		ldr	r6, [r0, r5, lsl #2]
 103              	.LVL10:
 231:Drivers/STM32L1xx_HAL_Driver/Src/stm32l1xx_hal_gpio.c ****         CLEAR_BIT(temp, 0xFU << ((uint32_t)(position & 0x07U) * 4));
 104              		.loc 1 231 9 is_stmt 1 view .LVU29
 105 003a 03F00704 		and	r4, r3, #7
 106 003e 4FEA840C 		lsl	ip, r4, #2
 107 0042 0F24     		movs	r4, #15
 108 0044 04FA0CF4 		lsl	r4, r4, ip
 109 0048 26EA040E 		bic	lr, r6, r4
 110              	.LVL11:
 232:Drivers/STM32L1xx_HAL_Driver/Src/stm32l1xx_hal_gpio.c ****         SET_BIT(temp, (uint32_t)(GPIO_Init->Alternate) << (((uint32_t)position & 0x07U) * 4));
ARM GAS  /tmp/ccH7MirZ.s 			page 7


 111              		.loc 1 232 9 view .LVU30
 112 004c 0C69     		ldr	r4, [r1, #16]
 113 004e 04FA0CF4 		lsl	r4, r4, ip
 114 0052 44EA0E04 		orr	r4, r4, lr
 115              	.LVL12:
 233:Drivers/STM32L1xx_HAL_Driver/Src/stm32l1xx_hal_gpio.c ****         GPIOx->AFR[position >> 3] = temp;
 116              		.loc 1 233 9 view .LVU31
 117              		.loc 1 233 35 is_stmt 0 view .LVU32
 118 0056 40F82540 		str	r4, [r0, r5, lsl #2]
 119 005a 63E0     		b	.L6
 120              	.LVL13:
 121              	.L22:
 234:Drivers/STM32L1xx_HAL_Driver/Src/stm32l1xx_hal_gpio.c ****       }
 235:Drivers/STM32L1xx_HAL_Driver/Src/stm32l1xx_hal_gpio.c **** 
 236:Drivers/STM32L1xx_HAL_Driver/Src/stm32l1xx_hal_gpio.c ****       /* Configure IO Direction mode (Input, Output, Alternate or Analog) */
 237:Drivers/STM32L1xx_HAL_Driver/Src/stm32l1xx_hal_gpio.c ****       temp = GPIOx->MODER;
 238:Drivers/STM32L1xx_HAL_Driver/Src/stm32l1xx_hal_gpio.c ****       CLEAR_BIT(temp, GPIO_MODER_MODER0 << (position * 2));
 239:Drivers/STM32L1xx_HAL_Driver/Src/stm32l1xx_hal_gpio.c ****       SET_BIT(temp, (GPIO_Init->Mode & GPIO_MODE) << (position * 2));
 240:Drivers/STM32L1xx_HAL_Driver/Src/stm32l1xx_hal_gpio.c ****       GPIOx->MODER = temp;
 241:Drivers/STM32L1xx_HAL_Driver/Src/stm32l1xx_hal_gpio.c **** 
 242:Drivers/STM32L1xx_HAL_Driver/Src/stm32l1xx_hal_gpio.c ****       /*--------------------- EXTI Mode Configuration ------------------------*/
 243:Drivers/STM32L1xx_HAL_Driver/Src/stm32l1xx_hal_gpio.c ****       /* Configure the External Interrupt or event for the current IO */
 244:Drivers/STM32L1xx_HAL_Driver/Src/stm32l1xx_hal_gpio.c ****       if ((GPIO_Init->Mode & EXTI_MODE) != 0x00U)
 245:Drivers/STM32L1xx_HAL_Driver/Src/stm32l1xx_hal_gpio.c ****       {
 246:Drivers/STM32L1xx_HAL_Driver/Src/stm32l1xx_hal_gpio.c ****         /* Enable SYSCFG Clock */
 247:Drivers/STM32L1xx_HAL_Driver/Src/stm32l1xx_hal_gpio.c ****         __HAL_RCC_SYSCFG_CLK_ENABLE();
 248:Drivers/STM32L1xx_HAL_Driver/Src/stm32l1xx_hal_gpio.c **** 
 249:Drivers/STM32L1xx_HAL_Driver/Src/stm32l1xx_hal_gpio.c ****         temp = SYSCFG->EXTICR[position >> 2];
 250:Drivers/STM32L1xx_HAL_Driver/Src/stm32l1xx_hal_gpio.c ****         CLEAR_BIT(temp, (0x0FU) << (4 * (position & 0x03)));
 251:Drivers/STM32L1xx_HAL_Driver/Src/stm32l1xx_hal_gpio.c ****         SET_BIT(temp, (GPIO_GET_INDEX(GPIOx)) << (4 * (position & 0x03)));
 122              		.loc 1 251 9 view .LVU33
 123 005c 0424     		movs	r4, #4
 124 005e 00E0     		b	.L7
 125              	.L13:
 126 0060 0024     		movs	r4, #0
 127              	.L7:
 128              		.loc 1 251 9 discriminator 20 view .LVU34
 129 0062 04FA0EF4 		lsl	r4, r4, lr
 130 0066 2C43     		orrs	r4, r4, r5
 131              	.LVL14:
 252:Drivers/STM32L1xx_HAL_Driver/Src/stm32l1xx_hal_gpio.c ****         SYSCFG->EXTICR[position >> 2] = temp;
 132              		.loc 1 252 9 is_stmt 1 discriminator 20 view .LVU35
 133              		.loc 1 252 39 is_stmt 0 discriminator 20 view .LVU36
 134 0068 0CF1020C 		add	ip, ip, #2
 135 006c 544D     		ldr	r5, .L23
 136 006e 45F82C40 		str	r4, [r5, ip, lsl #2]
 253:Drivers/STM32L1xx_HAL_Driver/Src/stm32l1xx_hal_gpio.c **** 
 254:Drivers/STM32L1xx_HAL_Driver/Src/stm32l1xx_hal_gpio.c ****         /* Clear Rising Falling edge configuration */
 255:Drivers/STM32L1xx_HAL_Driver/Src/stm32l1xx_hal_gpio.c ****         temp = EXTI->RTSR;
 137              		.loc 1 255 9 is_stmt 1 discriminator 20 view .LVU37
 138              		.loc 1 255 14 is_stmt 0 discriminator 20 view .LVU38
 139 0072 544C     		ldr	r4, .L23+4
 140              	.LVL15:
 141              		.loc 1 255 14 discriminator 20 view .LVU39
 142 0074 A568     		ldr	r5, [r4, #8]
 143              	.LVL16:
 256:Drivers/STM32L1xx_HAL_Driver/Src/stm32l1xx_hal_gpio.c ****         CLEAR_BIT(temp, (uint32_t)iocurrent);
ARM GAS  /tmp/ccH7MirZ.s 			page 8


 144              		.loc 1 256 9 is_stmt 1 discriminator 20 view .LVU40
 145 0076 D443     		mvns	r4, r2
 146 0078 25EA0206 		bic	r6, r5, r2
 147              	.LVL17:
 257:Drivers/STM32L1xx_HAL_Driver/Src/stm32l1xx_hal_gpio.c ****         if ((GPIO_Init->Mode & TRIGGER_RISING) != 0x00U)
 148              		.loc 1 257 9 discriminator 20 view .LVU41
 149              		.loc 1 257 12 is_stmt 0 discriminator 20 view .LVU42
 150 007c D1F804C0 		ldr	ip, [r1, #4]
 151 0080 1CF4801F 		tst	ip, #1048576
 152 0084 01D0     		beq	.L8
 258:Drivers/STM32L1xx_HAL_Driver/Src/stm32l1xx_hal_gpio.c ****         {
 259:Drivers/STM32L1xx_HAL_Driver/Src/stm32l1xx_hal_gpio.c ****           SET_BIT(temp, iocurrent);
 153              		.loc 1 259 11 is_stmt 1 view .LVU43
 154 0086 42EA0506 		orr	r6, r2, r5
 155              	.LVL18:
 156              	.L8:
 260:Drivers/STM32L1xx_HAL_Driver/Src/stm32l1xx_hal_gpio.c ****         }
 261:Drivers/STM32L1xx_HAL_Driver/Src/stm32l1xx_hal_gpio.c ****         EXTI->RTSR = temp;
 157              		.loc 1 261 9 view .LVU44
 158              		.loc 1 261 20 is_stmt 0 view .LVU45
 159 008a 4E4D     		ldr	r5, .L23+4
 160 008c AE60     		str	r6, [r5, #8]
 262:Drivers/STM32L1xx_HAL_Driver/Src/stm32l1xx_hal_gpio.c **** 
 263:Drivers/STM32L1xx_HAL_Driver/Src/stm32l1xx_hal_gpio.c ****         temp = EXTI->FTSR;
 161              		.loc 1 263 9 is_stmt 1 view .LVU46
 162              		.loc 1 263 14 is_stmt 0 view .LVU47
 163 008e ED68     		ldr	r5, [r5, #12]
 164              	.LVL19:
 264:Drivers/STM32L1xx_HAL_Driver/Src/stm32l1xx_hal_gpio.c ****         CLEAR_BIT(temp, (uint32_t)iocurrent);
 165              		.loc 1 264 9 is_stmt 1 view .LVU48
 166 0090 04EA0506 		and	r6, r4, r5
 167              	.LVL20:
 265:Drivers/STM32L1xx_HAL_Driver/Src/stm32l1xx_hal_gpio.c ****         if ((GPIO_Init->Mode & TRIGGER_FALLING) != 0x00U)
 168              		.loc 1 265 9 view .LVU49
 169              		.loc 1 265 12 is_stmt 0 view .LVU50
 170 0094 D1F804C0 		ldr	ip, [r1, #4]
 171 0098 1CF4001F 		tst	ip, #2097152
 172 009c 01D0     		beq	.L9
 266:Drivers/STM32L1xx_HAL_Driver/Src/stm32l1xx_hal_gpio.c ****         {
 267:Drivers/STM32L1xx_HAL_Driver/Src/stm32l1xx_hal_gpio.c ****           SET_BIT(temp, iocurrent);
 173              		.loc 1 267 11 is_stmt 1 view .LVU51
 174 009e 42EA0506 		orr	r6, r2, r5
 175              	.LVL21:
 176              	.L9:
 268:Drivers/STM32L1xx_HAL_Driver/Src/stm32l1xx_hal_gpio.c ****         }
 269:Drivers/STM32L1xx_HAL_Driver/Src/stm32l1xx_hal_gpio.c ****         EXTI->FTSR = temp;
 177              		.loc 1 269 9 view .LVU52
 178              		.loc 1 269 20 is_stmt 0 view .LVU53
 179 00a2 484D     		ldr	r5, .L23+4
 180 00a4 EE60     		str	r6, [r5, #12]
 270:Drivers/STM32L1xx_HAL_Driver/Src/stm32l1xx_hal_gpio.c **** 
 271:Drivers/STM32L1xx_HAL_Driver/Src/stm32l1xx_hal_gpio.c ****         temp = EXTI->EMR;
 181              		.loc 1 271 9 is_stmt 1 view .LVU54
 182              		.loc 1 271 14 is_stmt 0 view .LVU55
 183 00a6 6D68     		ldr	r5, [r5, #4]
 184              	.LVL22:
 272:Drivers/STM32L1xx_HAL_Driver/Src/stm32l1xx_hal_gpio.c ****         CLEAR_BIT(temp, (uint32_t)iocurrent);
ARM GAS  /tmp/ccH7MirZ.s 			page 9


 185              		.loc 1 272 9 is_stmt 1 view .LVU56
 186 00a8 04EA0506 		and	r6, r4, r5
 187              	.LVL23:
 273:Drivers/STM32L1xx_HAL_Driver/Src/stm32l1xx_hal_gpio.c ****         if ((GPIO_Init->Mode & EXTI_EVT) != 0x00U)
 188              		.loc 1 273 9 view .LVU57
 189              		.loc 1 273 12 is_stmt 0 view .LVU58
 190 00ac D1F804C0 		ldr	ip, [r1, #4]
 191 00b0 1CF4003F 		tst	ip, #131072
 192 00b4 01D0     		beq	.L10
 274:Drivers/STM32L1xx_HAL_Driver/Src/stm32l1xx_hal_gpio.c ****         {
 275:Drivers/STM32L1xx_HAL_Driver/Src/stm32l1xx_hal_gpio.c ****           SET_BIT(temp, iocurrent);
 193              		.loc 1 275 11 is_stmt 1 view .LVU59
 194 00b6 42EA0506 		orr	r6, r2, r5
 195              	.LVL24:
 196              	.L10:
 276:Drivers/STM32L1xx_HAL_Driver/Src/stm32l1xx_hal_gpio.c ****         }
 277:Drivers/STM32L1xx_HAL_Driver/Src/stm32l1xx_hal_gpio.c ****         EXTI->EMR = temp;
 197              		.loc 1 277 9 view .LVU60
 198              		.loc 1 277 19 is_stmt 0 view .LVU61
 199 00ba 424D     		ldr	r5, .L23+4
 200 00bc 6E60     		str	r6, [r5, #4]
 278:Drivers/STM32L1xx_HAL_Driver/Src/stm32l1xx_hal_gpio.c **** 
 279:Drivers/STM32L1xx_HAL_Driver/Src/stm32l1xx_hal_gpio.c ****         /* Clear EXTI line configuration */
 280:Drivers/STM32L1xx_HAL_Driver/Src/stm32l1xx_hal_gpio.c ****         temp = EXTI->IMR;
 201              		.loc 1 280 9 is_stmt 1 view .LVU62
 202              		.loc 1 280 14 is_stmt 0 view .LVU63
 203 00be 2D68     		ldr	r5, [r5]
 204              	.LVL25:
 281:Drivers/STM32L1xx_HAL_Driver/Src/stm32l1xx_hal_gpio.c ****         CLEAR_BIT(temp, (uint32_t)iocurrent);
 205              		.loc 1 281 9 is_stmt 1 view .LVU64
 206 00c0 2C40     		ands	r4, r4, r5
 207              	.LVL26:
 282:Drivers/STM32L1xx_HAL_Driver/Src/stm32l1xx_hal_gpio.c ****         if ((GPIO_Init->Mode & EXTI_IT) != 0x00U)
 208              		.loc 1 282 9 view .LVU65
 209              		.loc 1 282 23 is_stmt 0 view .LVU66
 210 00c2 4E68     		ldr	r6, [r1, #4]
 211              		.loc 1 282 12 view .LVU67
 212 00c4 16F4803F 		tst	r6, #65536
 213 00c8 01D0     		beq	.L11
 283:Drivers/STM32L1xx_HAL_Driver/Src/stm32l1xx_hal_gpio.c ****         {
 284:Drivers/STM32L1xx_HAL_Driver/Src/stm32l1xx_hal_gpio.c ****           SET_BIT(temp, iocurrent);
 214              		.loc 1 284 11 is_stmt 1 view .LVU68
 215 00ca 42EA0504 		orr	r4, r2, r5
 216              	.LVL27:
 217              	.L11:
 285:Drivers/STM32L1xx_HAL_Driver/Src/stm32l1xx_hal_gpio.c ****         }
 286:Drivers/STM32L1xx_HAL_Driver/Src/stm32l1xx_hal_gpio.c ****         EXTI->IMR = temp;
 218              		.loc 1 286 9 view .LVU69
 219              		.loc 1 286 19 is_stmt 0 view .LVU70
 220 00ce 3D4A     		ldr	r2, .L23+4
 221              	.LVL28:
 222              		.loc 1 286 19 view .LVU71
 223 00d0 1460     		str	r4, [r2]
 224              	.LVL29:
 225              	.L3:
 287:Drivers/STM32L1xx_HAL_Driver/Src/stm32l1xx_hal_gpio.c ****       }
 288:Drivers/STM32L1xx_HAL_Driver/Src/stm32l1xx_hal_gpio.c ****     }
ARM GAS  /tmp/ccH7MirZ.s 			page 10


 289:Drivers/STM32L1xx_HAL_Driver/Src/stm32l1xx_hal_gpio.c **** 
 290:Drivers/STM32L1xx_HAL_Driver/Src/stm32l1xx_hal_gpio.c ****     position++;
 226              		.loc 1 290 5 is_stmt 1 view .LVU72
 227              		.loc 1 290 13 is_stmt 0 view .LVU73
 228 00d2 0133     		adds	r3, r3, #1
 229              	.LVL30:
 230              	.L2:
 182:Drivers/STM32L1xx_HAL_Driver/Src/stm32l1xx_hal_gpio.c ****   {
 231              		.loc 1 182 9 is_stmt 1 view .LVU74
 182:Drivers/STM32L1xx_HAL_Driver/Src/stm32l1xx_hal_gpio.c ****   {
 232              		.loc 1 182 21 is_stmt 0 view .LVU75
 233 00d4 0A68     		ldr	r2, [r1]
 182:Drivers/STM32L1xx_HAL_Driver/Src/stm32l1xx_hal_gpio.c ****   {
 234              		.loc 1 182 9 view .LVU76
 235 00d6 32FA03F4 		lsrs	r4, r2, r3
 236 00da 6FD0     		beq	.L19
 185:Drivers/STM32L1xx_HAL_Driver/Src/stm32l1xx_hal_gpio.c **** 
 237              		.loc 1 185 5 is_stmt 1 view .LVU77
 185:Drivers/STM32L1xx_HAL_Driver/Src/stm32l1xx_hal_gpio.c **** 
 238              		.loc 1 185 40 is_stmt 0 view .LVU78
 239 00dc 4FF0010C 		mov	ip, #1
 240 00e0 0CFA03FC 		lsl	ip, ip, r3
 241              	.LVL31:
 187:Drivers/STM32L1xx_HAL_Driver/Src/stm32l1xx_hal_gpio.c ****     {
 242              		.loc 1 187 5 is_stmt 1 view .LVU79
 187:Drivers/STM32L1xx_HAL_Driver/Src/stm32l1xx_hal_gpio.c ****     {
 243              		.loc 1 187 8 is_stmt 0 view .LVU80
 244 00e4 1CEA0202 		ands	r2, ip, r2
 245              	.LVL32:
 187:Drivers/STM32L1xx_HAL_Driver/Src/stm32l1xx_hal_gpio.c ****     {
 246              		.loc 1 187 8 view .LVU81
 247 00e8 F3D0     		beq	.L3
 191:Drivers/STM32L1xx_HAL_Driver/Src/stm32l1xx_hal_gpio.c ****           ((GPIO_Init->Mode & GPIO_MODE) == MODE_AF))
 248              		.loc 1 191 7 is_stmt 1 view .LVU82
 191:Drivers/STM32L1xx_HAL_Driver/Src/stm32l1xx_hal_gpio.c ****           ((GPIO_Init->Mode & GPIO_MODE) == MODE_AF))
 249              		.loc 1 191 22 is_stmt 0 view .LVU83
 250 00ea 4C68     		ldr	r4, [r1, #4]
 191:Drivers/STM32L1xx_HAL_Driver/Src/stm32l1xx_hal_gpio.c ****           ((GPIO_Init->Mode & GPIO_MODE) == MODE_AF))
 251              		.loc 1 191 29 view .LVU84
 252 00ec 04F00304 		and	r4, r4, #3
 191:Drivers/STM32L1xx_HAL_Driver/Src/stm32l1xx_hal_gpio.c ****           ((GPIO_Init->Mode & GPIO_MODE) == MODE_AF))
 253              		.loc 1 191 58 view .LVU85
 254 00f0 013C     		subs	r4, r4, #1
 191:Drivers/STM32L1xx_HAL_Driver/Src/stm32l1xx_hal_gpio.c ****           ((GPIO_Init->Mode & GPIO_MODE) == MODE_AF))
 255              		.loc 1 191 10 view .LVU86
 256 00f2 012C     		cmp	r4, #1
 257 00f4 88D9     		bls	.L20
 258              	.L4:
 209:Drivers/STM32L1xx_HAL_Driver/Src/stm32l1xx_hal_gpio.c ****       {
 259              		.loc 1 209 7 is_stmt 1 view .LVU87
 209:Drivers/STM32L1xx_HAL_Driver/Src/stm32l1xx_hal_gpio.c ****       {
 260              		.loc 1 209 21 is_stmt 0 view .LVU88
 261 00f6 4C68     		ldr	r4, [r1, #4]
 209:Drivers/STM32L1xx_HAL_Driver/Src/stm32l1xx_hal_gpio.c ****       {
 262              		.loc 1 209 28 view .LVU89
 263 00f8 04F00304 		and	r4, r4, #3
 209:Drivers/STM32L1xx_HAL_Driver/Src/stm32l1xx_hal_gpio.c ****       {
ARM GAS  /tmp/ccH7MirZ.s 			page 11


 264              		.loc 1 209 10 view .LVU90
 265 00fc 032C     		cmp	r4, #3
 266 00fe 0CD0     		beq	.L5
 212:Drivers/STM32L1xx_HAL_Driver/Src/stm32l1xx_hal_gpio.c **** 
 267              		.loc 1 212 9 is_stmt 1 view .LVU91
 215:Drivers/STM32L1xx_HAL_Driver/Src/stm32l1xx_hal_gpio.c ****         CLEAR_BIT(temp, GPIO_PUPDR_PUPDR0 << (position * 2));
 268              		.loc 1 215 9 view .LVU92
 215:Drivers/STM32L1xx_HAL_Driver/Src/stm32l1xx_hal_gpio.c ****         CLEAR_BIT(temp, GPIO_PUPDR_PUPDR0 << (position * 2));
 269              		.loc 1 215 14 is_stmt 0 view .LVU93
 270 0100 C468     		ldr	r4, [r0, #12]
 271              	.LVL33:
 216:Drivers/STM32L1xx_HAL_Driver/Src/stm32l1xx_hal_gpio.c ****         SET_BIT(temp, (GPIO_Init->Pull) << (position * 2));
 272              		.loc 1 216 9 is_stmt 1 view .LVU94
 273 0102 5D00     		lsls	r5, r3, #1
 274 0104 4FF0030C 		mov	ip, #3
 275 0108 0CFA05FC 		lsl	ip, ip, r5
 276 010c 24EA0C0C 		bic	ip, r4, ip
 277              	.LVL34:
 217:Drivers/STM32L1xx_HAL_Driver/Src/stm32l1xx_hal_gpio.c ****         GPIOx->PUPDR = temp;
 278              		.loc 1 217 9 view .LVU95
 279 0110 8C68     		ldr	r4, [r1, #8]
 280 0112 AC40     		lsls	r4, r4, r5
 281 0114 44EA0C04 		orr	r4, r4, ip
 282              	.LVL35:
 218:Drivers/STM32L1xx_HAL_Driver/Src/stm32l1xx_hal_gpio.c ****       }
 283              		.loc 1 218 9 view .LVU96
 218:Drivers/STM32L1xx_HAL_Driver/Src/stm32l1xx_hal_gpio.c ****       }
 284              		.loc 1 218 22 is_stmt 0 view .LVU97
 285 0118 C460     		str	r4, [r0, #12]
 286              	.LVL36:
 287              	.L5:
 222:Drivers/STM32L1xx_HAL_Driver/Src/stm32l1xx_hal_gpio.c ****       {
 288              		.loc 1 222 7 is_stmt 1 view .LVU98
 222:Drivers/STM32L1xx_HAL_Driver/Src/stm32l1xx_hal_gpio.c ****       {
 289              		.loc 1 222 21 is_stmt 0 view .LVU99
 290 011a 4C68     		ldr	r4, [r1, #4]
 222:Drivers/STM32L1xx_HAL_Driver/Src/stm32l1xx_hal_gpio.c ****       {
 291              		.loc 1 222 28 view .LVU100
 292 011c 04F00304 		and	r4, r4, #3
 222:Drivers/STM32L1xx_HAL_Driver/Src/stm32l1xx_hal_gpio.c ****       {
 293              		.loc 1 222 10 view .LVU101
 294 0120 022C     		cmp	r4, #2
 295 0122 86D0     		beq	.L21
 296              	.L6:
 237:Drivers/STM32L1xx_HAL_Driver/Src/stm32l1xx_hal_gpio.c ****       CLEAR_BIT(temp, GPIO_MODER_MODER0 << (position * 2));
 297              		.loc 1 237 7 is_stmt 1 view .LVU102
 237:Drivers/STM32L1xx_HAL_Driver/Src/stm32l1xx_hal_gpio.c ****       CLEAR_BIT(temp, GPIO_MODER_MODER0 << (position * 2));
 298              		.loc 1 237 12 is_stmt 0 view .LVU103
 299 0124 0468     		ldr	r4, [r0]
 300              	.LVL37:
 238:Drivers/STM32L1xx_HAL_Driver/Src/stm32l1xx_hal_gpio.c ****       SET_BIT(temp, (GPIO_Init->Mode & GPIO_MODE) << (position * 2));
 301              		.loc 1 238 7 is_stmt 1 view .LVU104
 302 0126 4FEA430E 		lsl	lr, r3, #1
 303 012a 4FF0030C 		mov	ip, #3
 304 012e 0CFA0EFC 		lsl	ip, ip, lr
 305 0132 24EA0C0C 		bic	ip, r4, ip
 306              	.LVL38:
ARM GAS  /tmp/ccH7MirZ.s 			page 12


 239:Drivers/STM32L1xx_HAL_Driver/Src/stm32l1xx_hal_gpio.c ****       GPIOx->MODER = temp;
 307              		.loc 1 239 7 view .LVU105
 308 0136 4C68     		ldr	r4, [r1, #4]
 309 0138 04F00304 		and	r4, r4, #3
 310 013c 04FA0EF4 		lsl	r4, r4, lr
 311 0140 44EA0C04 		orr	r4, r4, ip
 312              	.LVL39:
 240:Drivers/STM32L1xx_HAL_Driver/Src/stm32l1xx_hal_gpio.c **** 
 313              		.loc 1 240 7 view .LVU106
 240:Drivers/STM32L1xx_HAL_Driver/Src/stm32l1xx_hal_gpio.c **** 
 314              		.loc 1 240 20 is_stmt 0 view .LVU107
 315 0144 0460     		str	r4, [r0]
 244:Drivers/STM32L1xx_HAL_Driver/Src/stm32l1xx_hal_gpio.c ****       {
 316              		.loc 1 244 7 is_stmt 1 view .LVU108
 244:Drivers/STM32L1xx_HAL_Driver/Src/stm32l1xx_hal_gpio.c ****       {
 317              		.loc 1 244 21 is_stmt 0 view .LVU109
 318 0146 4C68     		ldr	r4, [r1, #4]
 319              	.LVL40:
 244:Drivers/STM32L1xx_HAL_Driver/Src/stm32l1xx_hal_gpio.c ****       {
 320              		.loc 1 244 10 view .LVU110
 321 0148 14F4403F 		tst	r4, #196608
 322 014c C1D0     		beq	.L3
 247:Drivers/STM32L1xx_HAL_Driver/Src/stm32l1xx_hal_gpio.c **** 
 323              		.loc 1 247 9 is_stmt 1 view .LVU111
 324              	.LBB2:
 247:Drivers/STM32L1xx_HAL_Driver/Src/stm32l1xx_hal_gpio.c **** 
 325              		.loc 1 247 9 view .LVU112
 247:Drivers/STM32L1xx_HAL_Driver/Src/stm32l1xx_hal_gpio.c **** 
 326              		.loc 1 247 9 view .LVU113
 327 014e 1E4C     		ldr	r4, .L23+8
 328 0150 256A     		ldr	r5, [r4, #32]
 329 0152 45F00105 		orr	r5, r5, #1
 330 0156 2562     		str	r5, [r4, #32]
 331              	.LVL41:
 247:Drivers/STM32L1xx_HAL_Driver/Src/stm32l1xx_hal_gpio.c **** 
 332              		.loc 1 247 9 view .LVU114
 333 0158 246A     		ldr	r4, [r4, #32]
 334 015a 04F00104 		and	r4, r4, #1
 335 015e 0194     		str	r4, [sp, #4]
 247:Drivers/STM32L1xx_HAL_Driver/Src/stm32l1xx_hal_gpio.c **** 
 336              		.loc 1 247 9 view .LVU115
 337 0160 019C     		ldr	r4, [sp, #4]
 338              	.LBE2:
 247:Drivers/STM32L1xx_HAL_Driver/Src/stm32l1xx_hal_gpio.c **** 
 339              		.loc 1 247 9 view .LVU116
 249:Drivers/STM32L1xx_HAL_Driver/Src/stm32l1xx_hal_gpio.c ****         CLEAR_BIT(temp, (0x0FU) << (4 * (position & 0x03)));
 340              		.loc 1 249 9 view .LVU117
 249:Drivers/STM32L1xx_HAL_Driver/Src/stm32l1xx_hal_gpio.c ****         CLEAR_BIT(temp, (0x0FU) << (4 * (position & 0x03)));
 341              		.loc 1 249 40 is_stmt 0 view .LVU118
 342 0162 4FEA930C 		lsr	ip, r3, #2
 249:Drivers/STM32L1xx_HAL_Driver/Src/stm32l1xx_hal_gpio.c ****         CLEAR_BIT(temp, (0x0FU) << (4 * (position & 0x03)));
 343              		.loc 1 249 14 view .LVU119
 344 0166 0CF10205 		add	r5, ip, #2
 345 016a 154C     		ldr	r4, .L23
 346 016c 54F82550 		ldr	r5, [r4, r5, lsl #2]
 347              	.LVL42:
 250:Drivers/STM32L1xx_HAL_Driver/Src/stm32l1xx_hal_gpio.c ****         SET_BIT(temp, (GPIO_GET_INDEX(GPIOx)) << (4 * (position & 0x03)));
ARM GAS  /tmp/ccH7MirZ.s 			page 13


 348              		.loc 1 250 9 is_stmt 1 view .LVU120
 349 0170 03F00304 		and	r4, r3, #3
 350 0174 4FEA840E 		lsl	lr, r4, #2
 351 0178 0F24     		movs	r4, #15
 352 017a 04FA0EF4 		lsl	r4, r4, lr
 353 017e 25EA0405 		bic	r5, r5, r4
 354              	.LVL43:
 251:Drivers/STM32L1xx_HAL_Driver/Src/stm32l1xx_hal_gpio.c ****         SYSCFG->EXTICR[position >> 2] = temp;
 355              		.loc 1 251 9 view .LVU121
 356 0182 124C     		ldr	r4, .L23+12
 357 0184 A042     		cmp	r0, r4
 358 0186 3FF46BAF 		beq	.L13
 251:Drivers/STM32L1xx_HAL_Driver/Src/stm32l1xx_hal_gpio.c ****         SYSCFG->EXTICR[position >> 2] = temp;
 359              		.loc 1 251 9 is_stmt 0 discriminator 1 view .LVU122
 360 018a 04F58064 		add	r4, r4, #1024
 361 018e A042     		cmp	r0, r4
 362 0190 0ED0     		beq	.L14
 251:Drivers/STM32L1xx_HAL_Driver/Src/stm32l1xx_hal_gpio.c ****         SYSCFG->EXTICR[position >> 2] = temp;
 363              		.loc 1 251 9 discriminator 3 view .LVU123
 364 0192 04F58064 		add	r4, r4, #1024
 365 0196 A042     		cmp	r0, r4
 366 0198 0CD0     		beq	.L15
 251:Drivers/STM32L1xx_HAL_Driver/Src/stm32l1xx_hal_gpio.c ****         SYSCFG->EXTICR[position >> 2] = temp;
 367              		.loc 1 251 9 discriminator 5 view .LVU124
 368 019a 04F58064 		add	r4, r4, #1024
 369 019e A042     		cmp	r0, r4
 370 01a0 0AD0     		beq	.L16
 251:Drivers/STM32L1xx_HAL_Driver/Src/stm32l1xx_hal_gpio.c ****         SYSCFG->EXTICR[position >> 2] = temp;
 371              		.loc 1 251 9 discriminator 7 view .LVU125
 372 01a2 04F58064 		add	r4, r4, #1024
 373 01a6 A042     		cmp	r0, r4
 374 01a8 3FF458AF 		beq	.L22
 251:Drivers/STM32L1xx_HAL_Driver/Src/stm32l1xx_hal_gpio.c ****         SYSCFG->EXTICR[position >> 2] = temp;
 375              		.loc 1 251 9 view .LVU126
 376 01ac 0524     		movs	r4, #5
 377 01ae 58E7     		b	.L7
 378              	.L14:
 379 01b0 0124     		movs	r4, #1
 380 01b2 56E7     		b	.L7
 381              	.L15:
 382 01b4 0224     		movs	r4, #2
 383 01b6 54E7     		b	.L7
 384              	.L16:
 385 01b8 0324     		movs	r4, #3
 386 01ba 52E7     		b	.L7
 387              	.LVL44:
 388              	.L19:
 291:Drivers/STM32L1xx_HAL_Driver/Src/stm32l1xx_hal_gpio.c ****   }
 292:Drivers/STM32L1xx_HAL_Driver/Src/stm32l1xx_hal_gpio.c **** }
 389              		.loc 1 292 1 view .LVU127
 390 01bc 02B0     		add	sp, sp, #8
 391              	.LCFI2:
 392              		.cfi_def_cfa_offset 16
 393              		@ sp needed
 394 01be 70BD     		pop	{r4, r5, r6, pc}
 395              	.L24:
 396              		.align	2
ARM GAS  /tmp/ccH7MirZ.s 			page 14


 397              	.L23:
 398 01c0 00000140 		.word	1073807360
 399 01c4 00040140 		.word	1073808384
 400 01c8 00380240 		.word	1073887232
 401 01cc 00000240 		.word	1073872896
 402              		.cfi_endproc
 403              	.LFE72:
 405              		.section	.text.HAL_GPIO_DeInit,"ax",%progbits
 406              		.align	1
 407              		.global	HAL_GPIO_DeInit
 408              		.syntax unified
 409              		.thumb
 410              		.thumb_func
 412              	HAL_GPIO_DeInit:
 413              	.LVL45:
 414              	.LFB73:
 293:Drivers/STM32L1xx_HAL_Driver/Src/stm32l1xx_hal_gpio.c **** 
 294:Drivers/STM32L1xx_HAL_Driver/Src/stm32l1xx_hal_gpio.c **** /**
 295:Drivers/STM32L1xx_HAL_Driver/Src/stm32l1xx_hal_gpio.c ****   * @brief  De-initializes the GPIOx peripheral registers to their default reset values.
 296:Drivers/STM32L1xx_HAL_Driver/Src/stm32l1xx_hal_gpio.c ****   * @param  GPIOx where x can be (A..G depending on device used) to select the GPIO peripheral for 
 297:Drivers/STM32L1xx_HAL_Driver/Src/stm32l1xx_hal_gpio.c ****   * @param  GPIO_Pin specifies the port bit to be written.
 298:Drivers/STM32L1xx_HAL_Driver/Src/stm32l1xx_hal_gpio.c ****   *         This parameter can be one of GPIO_PIN_x where x can be (0..15).
 299:Drivers/STM32L1xx_HAL_Driver/Src/stm32l1xx_hal_gpio.c ****   * @retval None
 300:Drivers/STM32L1xx_HAL_Driver/Src/stm32l1xx_hal_gpio.c ****   */
 301:Drivers/STM32L1xx_HAL_Driver/Src/stm32l1xx_hal_gpio.c **** void HAL_GPIO_DeInit(GPIO_TypeDef  *GPIOx, uint32_t GPIO_Pin)
 302:Drivers/STM32L1xx_HAL_Driver/Src/stm32l1xx_hal_gpio.c **** {
 415              		.loc 1 302 1 is_stmt 1 view -0
 416              		.cfi_startproc
 417              		@ args = 0, pretend = 0, frame = 0
 418              		@ frame_needed = 0, uses_anonymous_args = 0
 303:Drivers/STM32L1xx_HAL_Driver/Src/stm32l1xx_hal_gpio.c ****   uint32_t position = 0x00;
 419              		.loc 1 303 3 view .LVU129
 304:Drivers/STM32L1xx_HAL_Driver/Src/stm32l1xx_hal_gpio.c ****   uint32_t iocurrent = 0x00;
 420              		.loc 1 304 3 view .LVU130
 305:Drivers/STM32L1xx_HAL_Driver/Src/stm32l1xx_hal_gpio.c ****   uint32_t tmp = 0x00;
 421              		.loc 1 305 3 view .LVU131
 306:Drivers/STM32L1xx_HAL_Driver/Src/stm32l1xx_hal_gpio.c **** 
 307:Drivers/STM32L1xx_HAL_Driver/Src/stm32l1xx_hal_gpio.c ****   /* Check the parameters */
 308:Drivers/STM32L1xx_HAL_Driver/Src/stm32l1xx_hal_gpio.c ****   assert_param(IS_GPIO_ALL_INSTANCE(GPIOx));
 422              		.loc 1 308 3 view .LVU132
 309:Drivers/STM32L1xx_HAL_Driver/Src/stm32l1xx_hal_gpio.c ****   assert_param(IS_GPIO_PIN(GPIO_Pin));
 423              		.loc 1 309 3 view .LVU133
 310:Drivers/STM32L1xx_HAL_Driver/Src/stm32l1xx_hal_gpio.c **** 
 311:Drivers/STM32L1xx_HAL_Driver/Src/stm32l1xx_hal_gpio.c ****   /* Configure the port pins */
 312:Drivers/STM32L1xx_HAL_Driver/Src/stm32l1xx_hal_gpio.c ****   while ((GPIO_Pin >> position) != 0)
 424              		.loc 1 312 3 view .LVU134
 303:Drivers/STM32L1xx_HAL_Driver/Src/stm32l1xx_hal_gpio.c ****   uint32_t iocurrent = 0x00;
 425              		.loc 1 303 12 is_stmt 0 view .LVU135
 426 0000 0023     		movs	r3, #0
 427              	.LVL46:
 428              		.loc 1 312 9 is_stmt 1 view .LVU136
 429 0002 31FA03F2 		lsrs	r2, r1, r3
 430 0006 79D0     		beq	.L39
 302:Drivers/STM32L1xx_HAL_Driver/Src/stm32l1xx_hal_gpio.c ****   uint32_t position = 0x00;
 431              		.loc 1 302 1 is_stmt 0 view .LVU137
 432 0008 F0B5     		push	{r4, r5, r6, r7, lr}
 433              	.LCFI3:
ARM GAS  /tmp/ccH7MirZ.s 			page 15


 434              		.cfi_def_cfa_offset 20
 435              		.cfi_offset 4, -20
 436              		.cfi_offset 5, -16
 437              		.cfi_offset 6, -12
 438              		.cfi_offset 7, -8
 439              		.cfi_offset 14, -4
 440 000a 2EE0     		b	.L30
 441              	.LVL47:
 442              	.L42:
 313:Drivers/STM32L1xx_HAL_Driver/Src/stm32l1xx_hal_gpio.c ****   {
 314:Drivers/STM32L1xx_HAL_Driver/Src/stm32l1xx_hal_gpio.c ****     /* Get current io position */
 315:Drivers/STM32L1xx_HAL_Driver/Src/stm32l1xx_hal_gpio.c ****     iocurrent = (GPIO_Pin) & (1U << position);
 316:Drivers/STM32L1xx_HAL_Driver/Src/stm32l1xx_hal_gpio.c **** 
 317:Drivers/STM32L1xx_HAL_Driver/Src/stm32l1xx_hal_gpio.c ****     if (iocurrent)
 318:Drivers/STM32L1xx_HAL_Driver/Src/stm32l1xx_hal_gpio.c ****     {
 319:Drivers/STM32L1xx_HAL_Driver/Src/stm32l1xx_hal_gpio.c ****       /*------------------------- EXTI Mode Configuration --------------------*/
 320:Drivers/STM32L1xx_HAL_Driver/Src/stm32l1xx_hal_gpio.c ****       /* Clear the External Interrupt or Event for the current IO */
 321:Drivers/STM32L1xx_HAL_Driver/Src/stm32l1xx_hal_gpio.c **** 
 322:Drivers/STM32L1xx_HAL_Driver/Src/stm32l1xx_hal_gpio.c ****       tmp = SYSCFG->EXTICR[position >> 2];
 323:Drivers/STM32L1xx_HAL_Driver/Src/stm32l1xx_hal_gpio.c ****       tmp &= ((0x0FU) << (4 * (position & 0x03)));
 324:Drivers/STM32L1xx_HAL_Driver/Src/stm32l1xx_hal_gpio.c ****       if (tmp == (GPIO_GET_INDEX(GPIOx) << (4 * (position & 0x03))))
 443              		.loc 1 324 19 view .LVU138
 444 000c 0425     		movs	r5, #4
 445 000e 00E0     		b	.L28
 446              	.L31:
 447 0010 0025     		movs	r5, #0
 448              	.L28:
 449              		.loc 1 324 41 discriminator 20 view .LVU139
 450 0012 05FA0CFC 		lsl	ip, r5, ip
 451              		.loc 1 324 10 discriminator 20 view .LVU140
 452 0016 A445     		cmp	ip, r4
 453 0018 54D0     		beq	.L40
 454              	.LVL48:
 455              	.L29:
 325:Drivers/STM32L1xx_HAL_Driver/Src/stm32l1xx_hal_gpio.c ****       {
 326:Drivers/STM32L1xx_HAL_Driver/Src/stm32l1xx_hal_gpio.c ****         /* Clear EXTI line configuration */
 327:Drivers/STM32L1xx_HAL_Driver/Src/stm32l1xx_hal_gpio.c ****         CLEAR_BIT(EXTI->IMR, (uint32_t)iocurrent);
 328:Drivers/STM32L1xx_HAL_Driver/Src/stm32l1xx_hal_gpio.c ****         CLEAR_BIT(EXTI->EMR, (uint32_t)iocurrent);
 329:Drivers/STM32L1xx_HAL_Driver/Src/stm32l1xx_hal_gpio.c **** 
 330:Drivers/STM32L1xx_HAL_Driver/Src/stm32l1xx_hal_gpio.c ****         /* Clear Rising Falling edge configuration */
 331:Drivers/STM32L1xx_HAL_Driver/Src/stm32l1xx_hal_gpio.c ****         CLEAR_BIT(EXTI->FTSR, (uint32_t)iocurrent);
 332:Drivers/STM32L1xx_HAL_Driver/Src/stm32l1xx_hal_gpio.c ****         CLEAR_BIT(EXTI->RTSR, (uint32_t)iocurrent);
 333:Drivers/STM32L1xx_HAL_Driver/Src/stm32l1xx_hal_gpio.c **** 
 334:Drivers/STM32L1xx_HAL_Driver/Src/stm32l1xx_hal_gpio.c ****         tmp = (0x0FU) << (4 * (position & 0x03));
 335:Drivers/STM32L1xx_HAL_Driver/Src/stm32l1xx_hal_gpio.c ****         CLEAR_BIT(SYSCFG->EXTICR[position >> 2], tmp);
 336:Drivers/STM32L1xx_HAL_Driver/Src/stm32l1xx_hal_gpio.c ****       }
 337:Drivers/STM32L1xx_HAL_Driver/Src/stm32l1xx_hal_gpio.c **** 
 338:Drivers/STM32L1xx_HAL_Driver/Src/stm32l1xx_hal_gpio.c ****       /*------------------------- GPIO Mode Configuration --------------------*/
 339:Drivers/STM32L1xx_HAL_Driver/Src/stm32l1xx_hal_gpio.c ****       /* Configure IO Direction in Input Floating Mode */
 340:Drivers/STM32L1xx_HAL_Driver/Src/stm32l1xx_hal_gpio.c ****       CLEAR_BIT(GPIOx->MODER, GPIO_MODER_MODER0 << (position * 2));
 456              		.loc 1 340 7 is_stmt 1 view .LVU141
 457 001a 0468     		ldr	r4, [r0]
 458 001c 5D00     		lsls	r5, r3, #1
 459 001e 4FF0030C 		mov	ip, #3
 460 0022 0CFA05FC 		lsl	ip, ip, r5
 461 0026 24EA0C04 		bic	r4, r4, ip
 462 002a 0460     		str	r4, [r0]
ARM GAS  /tmp/ccH7MirZ.s 			page 16


 341:Drivers/STM32L1xx_HAL_Driver/Src/stm32l1xx_hal_gpio.c **** 
 342:Drivers/STM32L1xx_HAL_Driver/Src/stm32l1xx_hal_gpio.c ****       /* Configure the default Alternate Function in current IO */
 343:Drivers/STM32L1xx_HAL_Driver/Src/stm32l1xx_hal_gpio.c ****       CLEAR_BIT(GPIOx->AFR[position >> 3], 0xFU << ((uint32_t)(position & 0x07U) * 4)) ;
 463              		.loc 1 343 7 view .LVU142
 464 002c 4FEAD30E 		lsr	lr, r3, #3
 465              	.LVL49:
 466              		.loc 1 343 7 is_stmt 0 view .LVU143
 467 0030 0EF1080E 		add	lr, lr, #8
 468 0034 50F82E40 		ldr	r4, [r0, lr, lsl #2]
 469 0038 03F00705 		and	r5, r3, #7
 470 003c AE00     		lsls	r6, r5, #2
 471 003e 0F25     		movs	r5, #15
 472 0040 B540     		lsls	r5, r5, r6
 473 0042 24EA0504 		bic	r4, r4, r5
 474 0046 40F82E40 		str	r4, [r0, lr, lsl #2]
 344:Drivers/STM32L1xx_HAL_Driver/Src/stm32l1xx_hal_gpio.c ****       /* Deactivate the Pull-up oand Pull-down resistor for the current IO */
 345:Drivers/STM32L1xx_HAL_Driver/Src/stm32l1xx_hal_gpio.c ****       CLEAR_BIT(GPIOx->PUPDR, GPIO_PUPDR_PUPDR0 << (position * 2));
 475              		.loc 1 345 7 is_stmt 1 view .LVU144
 476 004a C468     		ldr	r4, [r0, #12]
 477 004c 24EA0C04 		bic	r4, r4, ip
 478 0050 C460     		str	r4, [r0, #12]
 346:Drivers/STM32L1xx_HAL_Driver/Src/stm32l1xx_hal_gpio.c **** 
 347:Drivers/STM32L1xx_HAL_Driver/Src/stm32l1xx_hal_gpio.c ****       /* Configure the default value IO Output Type */
 348:Drivers/STM32L1xx_HAL_Driver/Src/stm32l1xx_hal_gpio.c ****       CLEAR_BIT(GPIOx->OTYPER, GPIO_OTYPER_OT_0 << position) ;
 479              		.loc 1 348 7 view .LVU145
 480 0052 4468     		ldr	r4, [r0, #4]
 481 0054 24EA0202 		bic	r2, r4, r2
 482              	.LVL50:
 483              		.loc 1 348 7 is_stmt 0 view .LVU146
 484 0058 4260     		str	r2, [r0, #4]
 349:Drivers/STM32L1xx_HAL_Driver/Src/stm32l1xx_hal_gpio.c **** 
 350:Drivers/STM32L1xx_HAL_Driver/Src/stm32l1xx_hal_gpio.c ****       /* Configure the default value for IO Speed */
 351:Drivers/STM32L1xx_HAL_Driver/Src/stm32l1xx_hal_gpio.c ****       CLEAR_BIT(GPIOx->OSPEEDR, GPIO_OSPEEDER_OSPEEDR0 << (position * 2));
 485              		.loc 1 351 7 is_stmt 1 view .LVU147
 486 005a 8268     		ldr	r2, [r0, #8]
 487 005c 22EA0C02 		bic	r2, r2, ip
 488 0060 8260     		str	r2, [r0, #8]
 489              	.L27:
 352:Drivers/STM32L1xx_HAL_Driver/Src/stm32l1xx_hal_gpio.c ****     }
 353:Drivers/STM32L1xx_HAL_Driver/Src/stm32l1xx_hal_gpio.c **** 
 354:Drivers/STM32L1xx_HAL_Driver/Src/stm32l1xx_hal_gpio.c ****     position++;
 490              		.loc 1 354 5 view .LVU148
 491              		.loc 1 354 13 is_stmt 0 view .LVU149
 492 0062 0133     		adds	r3, r3, #1
 493              	.LVL51:
 312:Drivers/STM32L1xx_HAL_Driver/Src/stm32l1xx_hal_gpio.c ****   {
 494              		.loc 1 312 9 is_stmt 1 view .LVU150
 495 0064 31FA03F2 		lsrs	r2, r1, r3
 496 0068 47D0     		beq	.L41
 497              	.LVL52:
 498              	.L30:
 315:Drivers/STM32L1xx_HAL_Driver/Src/stm32l1xx_hal_gpio.c **** 
 499              		.loc 1 315 5 view .LVU151
 315:Drivers/STM32L1xx_HAL_Driver/Src/stm32l1xx_hal_gpio.c **** 
 500              		.loc 1 315 34 is_stmt 0 view .LVU152
 501 006a 0122     		movs	r2, #1
 502 006c 9A40     		lsls	r2, r2, r3
ARM GAS  /tmp/ccH7MirZ.s 			page 17


 503              	.LVL53:
 317:Drivers/STM32L1xx_HAL_Driver/Src/stm32l1xx_hal_gpio.c ****     {
 504              		.loc 1 317 5 is_stmt 1 view .LVU153
 317:Drivers/STM32L1xx_HAL_Driver/Src/stm32l1xx_hal_gpio.c ****     {
 505              		.loc 1 317 8 is_stmt 0 view .LVU154
 506 006e 12EA010E 		ands	lr, r2, r1
 507              	.LVL54:
 317:Drivers/STM32L1xx_HAL_Driver/Src/stm32l1xx_hal_gpio.c ****     {
 508              		.loc 1 317 8 view .LVU155
 509 0072 F6D0     		beq	.L27
 322:Drivers/STM32L1xx_HAL_Driver/Src/stm32l1xx_hal_gpio.c ****       tmp &= ((0x0FU) << (4 * (position & 0x03)));
 510              		.loc 1 322 7 is_stmt 1 view .LVU156
 322:Drivers/STM32L1xx_HAL_Driver/Src/stm32l1xx_hal_gpio.c ****       tmp &= ((0x0FU) << (4 * (position & 0x03)));
 511              		.loc 1 322 37 is_stmt 0 view .LVU157
 512 0074 9E08     		lsrs	r6, r3, #2
 322:Drivers/STM32L1xx_HAL_Driver/Src/stm32l1xx_hal_gpio.c ****       tmp &= ((0x0FU) << (4 * (position & 0x03)));
 513              		.loc 1 322 11 view .LVU158
 514 0076 B51C     		adds	r5, r6, #2
 515 0078 214C     		ldr	r4, .L43
 516 007a 54F82540 		ldr	r4, [r4, r5, lsl #2]
 517              	.LVL55:
 323:Drivers/STM32L1xx_HAL_Driver/Src/stm32l1xx_hal_gpio.c ****       if (tmp == (GPIO_GET_INDEX(GPIOx) << (4 * (position & 0x03))))
 518              		.loc 1 323 7 is_stmt 1 view .LVU159
 323:Drivers/STM32L1xx_HAL_Driver/Src/stm32l1xx_hal_gpio.c ****       if (tmp == (GPIO_GET_INDEX(GPIOx) << (4 * (position & 0x03))))
 519              		.loc 1 323 41 is_stmt 0 view .LVU160
 520 007e 03F0030C 		and	ip, r3, #3
 323:Drivers/STM32L1xx_HAL_Driver/Src/stm32l1xx_hal_gpio.c ****       if (tmp == (GPIO_GET_INDEX(GPIOx) << (4 * (position & 0x03))))
 521              		.loc 1 323 29 view .LVU161
 522 0082 4FEA8C0C 		lsl	ip, ip, #2
 323:Drivers/STM32L1xx_HAL_Driver/Src/stm32l1xx_hal_gpio.c ****       if (tmp == (GPIO_GET_INDEX(GPIOx) << (4 * (position & 0x03))))
 523              		.loc 1 323 23 view .LVU162
 524 0086 0F25     		movs	r5, #15
 525 0088 05FA0CF7 		lsl	r7, r5, ip
 323:Drivers/STM32L1xx_HAL_Driver/Src/stm32l1xx_hal_gpio.c ****       if (tmp == (GPIO_GET_INDEX(GPIOx) << (4 * (position & 0x03))))
 526              		.loc 1 323 11 view .LVU163
 527 008c 3C40     		ands	r4, r4, r7
 528              	.LVL56:
 324:Drivers/STM32L1xx_HAL_Driver/Src/stm32l1xx_hal_gpio.c ****       {
 529              		.loc 1 324 7 is_stmt 1 view .LVU164
 324:Drivers/STM32L1xx_HAL_Driver/Src/stm32l1xx_hal_gpio.c ****       {
 530              		.loc 1 324 19 is_stmt 0 view .LVU165
 531 008e 1D4D     		ldr	r5, .L43+4
 532 0090 A842     		cmp	r0, r5
 533 0092 BDD0     		beq	.L31
 324:Drivers/STM32L1xx_HAL_Driver/Src/stm32l1xx_hal_gpio.c ****       {
 534              		.loc 1 324 19 discriminator 1 view .LVU166
 535 0094 05F58065 		add	r5, r5, #1024
 536 0098 A842     		cmp	r0, r5
 537 009a 0DD0     		beq	.L32
 324:Drivers/STM32L1xx_HAL_Driver/Src/stm32l1xx_hal_gpio.c ****       {
 538              		.loc 1 324 19 discriminator 3 view .LVU167
 539 009c 05F58065 		add	r5, r5, #1024
 540 00a0 A842     		cmp	r0, r5
 541 00a2 0BD0     		beq	.L33
 324:Drivers/STM32L1xx_HAL_Driver/Src/stm32l1xx_hal_gpio.c ****       {
 542              		.loc 1 324 19 discriminator 5 view .LVU168
 543 00a4 05F58065 		add	r5, r5, #1024
ARM GAS  /tmp/ccH7MirZ.s 			page 18


 544 00a8 A842     		cmp	r0, r5
 545 00aa 09D0     		beq	.L34
 324:Drivers/STM32L1xx_HAL_Driver/Src/stm32l1xx_hal_gpio.c ****       {
 546              		.loc 1 324 19 discriminator 7 view .LVU169
 547 00ac 05F58065 		add	r5, r5, #1024
 548 00b0 A842     		cmp	r0, r5
 549 00b2 ABD0     		beq	.L42
 324:Drivers/STM32L1xx_HAL_Driver/Src/stm32l1xx_hal_gpio.c ****       {
 550              		.loc 1 324 19 view .LVU170
 551 00b4 0525     		movs	r5, #5
 552 00b6 ACE7     		b	.L28
 553              	.L32:
 554 00b8 0125     		movs	r5, #1
 555 00ba AAE7     		b	.L28
 556              	.L33:
 557 00bc 0225     		movs	r5, #2
 558 00be A8E7     		b	.L28
 559              	.L34:
 560 00c0 0325     		movs	r5, #3
 561 00c2 A6E7     		b	.L28
 562              	.L40:
 327:Drivers/STM32L1xx_HAL_Driver/Src/stm32l1xx_hal_gpio.c ****         CLEAR_BIT(EXTI->EMR, (uint32_t)iocurrent);
 563              		.loc 1 327 9 is_stmt 1 view .LVU171
 564 00c4 104C     		ldr	r4, .L43+8
 565              	.LVL57:
 327:Drivers/STM32L1xx_HAL_Driver/Src/stm32l1xx_hal_gpio.c ****         CLEAR_BIT(EXTI->EMR, (uint32_t)iocurrent);
 566              		.loc 1 327 9 is_stmt 0 view .LVU172
 567 00c6 2568     		ldr	r5, [r4]
 568 00c8 25EA0E05 		bic	r5, r5, lr
 569 00cc 2560     		str	r5, [r4]
 328:Drivers/STM32L1xx_HAL_Driver/Src/stm32l1xx_hal_gpio.c **** 
 570              		.loc 1 328 9 is_stmt 1 view .LVU173
 571 00ce 6568     		ldr	r5, [r4, #4]
 572 00d0 25EA0E05 		bic	r5, r5, lr
 573 00d4 6560     		str	r5, [r4, #4]
 331:Drivers/STM32L1xx_HAL_Driver/Src/stm32l1xx_hal_gpio.c ****         CLEAR_BIT(EXTI->RTSR, (uint32_t)iocurrent);
 574              		.loc 1 331 9 view .LVU174
 575 00d6 E568     		ldr	r5, [r4, #12]
 576 00d8 25EA0E05 		bic	r5, r5, lr
 577 00dc E560     		str	r5, [r4, #12]
 332:Drivers/STM32L1xx_HAL_Driver/Src/stm32l1xx_hal_gpio.c **** 
 578              		.loc 1 332 9 view .LVU175
 579 00de A568     		ldr	r5, [r4, #8]
 580 00e0 25EA0E05 		bic	r5, r5, lr
 581 00e4 A560     		str	r5, [r4, #8]
 334:Drivers/STM32L1xx_HAL_Driver/Src/stm32l1xx_hal_gpio.c ****         CLEAR_BIT(SYSCFG->EXTICR[position >> 2], tmp);
 582              		.loc 1 334 9 view .LVU176
 583              	.LVL58:
 335:Drivers/STM32L1xx_HAL_Driver/Src/stm32l1xx_hal_gpio.c ****       }
 584              		.loc 1 335 9 view .LVU177
 585 00e6 DFF818C0 		ldr	ip, .L43
 586 00ea B41C     		adds	r4, r6, #2
 587 00ec 5CF82450 		ldr	r5, [ip, r4, lsl #2]
 588 00f0 25EA0705 		bic	r5, r5, r7
 589 00f4 4CF82450 		str	r5, [ip, r4, lsl #2]
 590 00f8 8FE7     		b	.L29
 591              	.LVL59:
ARM GAS  /tmp/ccH7MirZ.s 			page 19


 592              	.L41:
 355:Drivers/STM32L1xx_HAL_Driver/Src/stm32l1xx_hal_gpio.c ****   }
 356:Drivers/STM32L1xx_HAL_Driver/Src/stm32l1xx_hal_gpio.c **** }
 593              		.loc 1 356 1 is_stmt 0 view .LVU178
 594 00fa F0BD     		pop	{r4, r5, r6, r7, pc}
 595              	.LVL60:
 596              	.L39:
 597              	.LCFI4:
 598              		.cfi_def_cfa_offset 0
 599              		.cfi_restore 4
 600              		.cfi_restore 5
 601              		.cfi_restore 6
 602              		.cfi_restore 7
 603              		.cfi_restore 14
 604              		.loc 1 356 1 view .LVU179
 605 00fc 7047     		bx	lr
 606              	.L44:
 607 00fe 00BF     		.align	2
 608              	.L43:
 609 0100 00000140 		.word	1073807360
 610 0104 00000240 		.word	1073872896
 611 0108 00040140 		.word	1073808384
 612              		.cfi_endproc
 613              	.LFE73:
 615              		.section	.text.HAL_GPIO_ReadPin,"ax",%progbits
 616              		.align	1
 617              		.global	HAL_GPIO_ReadPin
 618              		.syntax unified
 619              		.thumb
 620              		.thumb_func
 622              	HAL_GPIO_ReadPin:
 623              	.LVL61:
 624              	.LFB74:
 357:Drivers/STM32L1xx_HAL_Driver/Src/stm32l1xx_hal_gpio.c **** 
 358:Drivers/STM32L1xx_HAL_Driver/Src/stm32l1xx_hal_gpio.c **** /**
 359:Drivers/STM32L1xx_HAL_Driver/Src/stm32l1xx_hal_gpio.c ****   * @}
 360:Drivers/STM32L1xx_HAL_Driver/Src/stm32l1xx_hal_gpio.c ****   */
 361:Drivers/STM32L1xx_HAL_Driver/Src/stm32l1xx_hal_gpio.c **** 
 362:Drivers/STM32L1xx_HAL_Driver/Src/stm32l1xx_hal_gpio.c **** /** @addtogroup GPIO_Exported_Functions_Group2
 363:Drivers/STM32L1xx_HAL_Driver/Src/stm32l1xx_hal_gpio.c ****  *  @brief GPIO Read, Write, Toggle, Lock and EXTI management functions.
 364:Drivers/STM32L1xx_HAL_Driver/Src/stm32l1xx_hal_gpio.c ****  *
 365:Drivers/STM32L1xx_HAL_Driver/Src/stm32l1xx_hal_gpio.c **** @verbatim
 366:Drivers/STM32L1xx_HAL_Driver/Src/stm32l1xx_hal_gpio.c ****  ===============================================================================
 367:Drivers/STM32L1xx_HAL_Driver/Src/stm32l1xx_hal_gpio.c ****                        ##### IO operation functions #####
 368:Drivers/STM32L1xx_HAL_Driver/Src/stm32l1xx_hal_gpio.c ****  ===============================================================================
 369:Drivers/STM32L1xx_HAL_Driver/Src/stm32l1xx_hal_gpio.c **** 
 370:Drivers/STM32L1xx_HAL_Driver/Src/stm32l1xx_hal_gpio.c **** @endverbatim
 371:Drivers/STM32L1xx_HAL_Driver/Src/stm32l1xx_hal_gpio.c ****   * @{
 372:Drivers/STM32L1xx_HAL_Driver/Src/stm32l1xx_hal_gpio.c ****   */
 373:Drivers/STM32L1xx_HAL_Driver/Src/stm32l1xx_hal_gpio.c **** 
 374:Drivers/STM32L1xx_HAL_Driver/Src/stm32l1xx_hal_gpio.c **** /**
 375:Drivers/STM32L1xx_HAL_Driver/Src/stm32l1xx_hal_gpio.c ****   * @brief  Reads the specified input port pin.
 376:Drivers/STM32L1xx_HAL_Driver/Src/stm32l1xx_hal_gpio.c ****   * @param  GPIOx where x can be (A..G depending on device used) to select the GPIO peripheral for 
 377:Drivers/STM32L1xx_HAL_Driver/Src/stm32l1xx_hal_gpio.c ****   * @param  GPIO_Pin specifies the port bit to read.
 378:Drivers/STM32L1xx_HAL_Driver/Src/stm32l1xx_hal_gpio.c ****   *         This parameter can be GPIO_PIN_x where x can be (0..15).
 379:Drivers/STM32L1xx_HAL_Driver/Src/stm32l1xx_hal_gpio.c ****   * @retval The input port pin value.
 380:Drivers/STM32L1xx_HAL_Driver/Src/stm32l1xx_hal_gpio.c ****   */
ARM GAS  /tmp/ccH7MirZ.s 			page 20


 381:Drivers/STM32L1xx_HAL_Driver/Src/stm32l1xx_hal_gpio.c **** GPIO_PinState HAL_GPIO_ReadPin(GPIO_TypeDef *GPIOx, uint16_t GPIO_Pin)
 382:Drivers/STM32L1xx_HAL_Driver/Src/stm32l1xx_hal_gpio.c **** {
 625              		.loc 1 382 1 is_stmt 1 view -0
 626              		.cfi_startproc
 627              		@ args = 0, pretend = 0, frame = 0
 628              		@ frame_needed = 0, uses_anonymous_args = 0
 629              		@ link register save eliminated.
 383:Drivers/STM32L1xx_HAL_Driver/Src/stm32l1xx_hal_gpio.c ****   GPIO_PinState bitstatus;
 630              		.loc 1 383 3 view .LVU181
 384:Drivers/STM32L1xx_HAL_Driver/Src/stm32l1xx_hal_gpio.c **** 
 385:Drivers/STM32L1xx_HAL_Driver/Src/stm32l1xx_hal_gpio.c ****   /* Check the parameters */
 386:Drivers/STM32L1xx_HAL_Driver/Src/stm32l1xx_hal_gpio.c ****   assert_param(IS_GPIO_PIN(GPIO_Pin));
 631              		.loc 1 386 3 view .LVU182
 387:Drivers/STM32L1xx_HAL_Driver/Src/stm32l1xx_hal_gpio.c **** 
 388:Drivers/STM32L1xx_HAL_Driver/Src/stm32l1xx_hal_gpio.c ****   if ((GPIOx->IDR & GPIO_Pin) != (uint32_t)GPIO_PIN_RESET)
 632              		.loc 1 388 3 view .LVU183
 633              		.loc 1 388 13 is_stmt 0 view .LVU184
 634 0000 0369     		ldr	r3, [r0, #16]
 635              		.loc 1 388 6 view .LVU185
 636 0002 1942     		tst	r1, r3
 637 0004 01D0     		beq	.L47
 389:Drivers/STM32L1xx_HAL_Driver/Src/stm32l1xx_hal_gpio.c ****   {
 390:Drivers/STM32L1xx_HAL_Driver/Src/stm32l1xx_hal_gpio.c ****     bitstatus = GPIO_PIN_SET;
 638              		.loc 1 390 15 view .LVU186
 639 0006 0120     		movs	r0, #1
 640              	.LVL62:
 641              		.loc 1 390 15 view .LVU187
 642 0008 7047     		bx	lr
 643              	.LVL63:
 644              	.L47:
 391:Drivers/STM32L1xx_HAL_Driver/Src/stm32l1xx_hal_gpio.c ****   }
 392:Drivers/STM32L1xx_HAL_Driver/Src/stm32l1xx_hal_gpio.c ****   else
 393:Drivers/STM32L1xx_HAL_Driver/Src/stm32l1xx_hal_gpio.c ****   {
 394:Drivers/STM32L1xx_HAL_Driver/Src/stm32l1xx_hal_gpio.c ****     bitstatus = GPIO_PIN_RESET;
 645              		.loc 1 394 15 view .LVU188
 646 000a 0020     		movs	r0, #0
 647              	.LVL64:
 395:Drivers/STM32L1xx_HAL_Driver/Src/stm32l1xx_hal_gpio.c ****   }
 396:Drivers/STM32L1xx_HAL_Driver/Src/stm32l1xx_hal_gpio.c ****   return bitstatus;
 648              		.loc 1 396 3 is_stmt 1 view .LVU189
 397:Drivers/STM32L1xx_HAL_Driver/Src/stm32l1xx_hal_gpio.c **** }
 649              		.loc 1 397 1 is_stmt 0 view .LVU190
 650 000c 7047     		bx	lr
 651              		.cfi_endproc
 652              	.LFE74:
 654              		.section	.text.HAL_GPIO_WritePin,"ax",%progbits
 655              		.align	1
 656              		.global	HAL_GPIO_WritePin
 657              		.syntax unified
 658              		.thumb
 659              		.thumb_func
 661              	HAL_GPIO_WritePin:
 662              	.LVL65:
 663              	.LFB75:
 398:Drivers/STM32L1xx_HAL_Driver/Src/stm32l1xx_hal_gpio.c **** 
 399:Drivers/STM32L1xx_HAL_Driver/Src/stm32l1xx_hal_gpio.c **** /**
 400:Drivers/STM32L1xx_HAL_Driver/Src/stm32l1xx_hal_gpio.c ****   * @brief  Sets or clears the selected data port bit.
ARM GAS  /tmp/ccH7MirZ.s 			page 21


 401:Drivers/STM32L1xx_HAL_Driver/Src/stm32l1xx_hal_gpio.c ****   * @note   This function uses GPIOx_BSRR register to allow atomic read/modify
 402:Drivers/STM32L1xx_HAL_Driver/Src/stm32l1xx_hal_gpio.c ****   *         accesses. In this way, there is no risk of an IRQ occurring between
 403:Drivers/STM32L1xx_HAL_Driver/Src/stm32l1xx_hal_gpio.c ****   *         the read and the modify access.
 404:Drivers/STM32L1xx_HAL_Driver/Src/stm32l1xx_hal_gpio.c ****   * @param  GPIOx where x can be (A..G depending on device used) to select the GPIO peripheral for 
 405:Drivers/STM32L1xx_HAL_Driver/Src/stm32l1xx_hal_gpio.c ****   * @param  GPIO_Pin specifies the port bit to be written.
 406:Drivers/STM32L1xx_HAL_Driver/Src/stm32l1xx_hal_gpio.c ****   *          This parameter can be one of GPIO_PIN_x where x can be (0..15).
 407:Drivers/STM32L1xx_HAL_Driver/Src/stm32l1xx_hal_gpio.c ****   * @param  PinState specifies the value to be written to the selected bit.
 408:Drivers/STM32L1xx_HAL_Driver/Src/stm32l1xx_hal_gpio.c ****   *          This parameter can be one of the GPIO_PinState enum values:
 409:Drivers/STM32L1xx_HAL_Driver/Src/stm32l1xx_hal_gpio.c ****   *            @arg GPIO_PIN_RESET: to clear the port pin
 410:Drivers/STM32L1xx_HAL_Driver/Src/stm32l1xx_hal_gpio.c ****   *            @arg GPIO_PIN_SET: to set the port pin
 411:Drivers/STM32L1xx_HAL_Driver/Src/stm32l1xx_hal_gpio.c ****   * @retval None
 412:Drivers/STM32L1xx_HAL_Driver/Src/stm32l1xx_hal_gpio.c ****   */
 413:Drivers/STM32L1xx_HAL_Driver/Src/stm32l1xx_hal_gpio.c **** void HAL_GPIO_WritePin(GPIO_TypeDef *GPIOx, uint16_t GPIO_Pin, GPIO_PinState PinState)
 414:Drivers/STM32L1xx_HAL_Driver/Src/stm32l1xx_hal_gpio.c **** {
 664              		.loc 1 414 1 is_stmt 1 view -0
 665              		.cfi_startproc
 666              		@ args = 0, pretend = 0, frame = 0
 667              		@ frame_needed = 0, uses_anonymous_args = 0
 668              		@ link register save eliminated.
 415:Drivers/STM32L1xx_HAL_Driver/Src/stm32l1xx_hal_gpio.c ****   /* Check the parameters */
 416:Drivers/STM32L1xx_HAL_Driver/Src/stm32l1xx_hal_gpio.c ****   assert_param(IS_GPIO_PIN(GPIO_Pin));
 669              		.loc 1 416 3 view .LVU192
 417:Drivers/STM32L1xx_HAL_Driver/Src/stm32l1xx_hal_gpio.c ****   assert_param(IS_GPIO_PIN_ACTION(PinState));
 670              		.loc 1 417 3 view .LVU193
 418:Drivers/STM32L1xx_HAL_Driver/Src/stm32l1xx_hal_gpio.c **** 
 419:Drivers/STM32L1xx_HAL_Driver/Src/stm32l1xx_hal_gpio.c ****   if (PinState != GPIO_PIN_RESET)
 671              		.loc 1 419 3 view .LVU194
 672              		.loc 1 419 6 is_stmt 0 view .LVU195
 673 0000 0AB1     		cbz	r2, .L49
 420:Drivers/STM32L1xx_HAL_Driver/Src/stm32l1xx_hal_gpio.c ****   {
 421:Drivers/STM32L1xx_HAL_Driver/Src/stm32l1xx_hal_gpio.c ****     GPIOx->BSRR = (uint32_t)GPIO_Pin;
 674              		.loc 1 421 5 is_stmt 1 view .LVU196
 675              		.loc 1 421 17 is_stmt 0 view .LVU197
 676 0002 8161     		str	r1, [r0, #24]
 677 0004 7047     		bx	lr
 678              	.L49:
 422:Drivers/STM32L1xx_HAL_Driver/Src/stm32l1xx_hal_gpio.c ****   }
 423:Drivers/STM32L1xx_HAL_Driver/Src/stm32l1xx_hal_gpio.c ****   else
 424:Drivers/STM32L1xx_HAL_Driver/Src/stm32l1xx_hal_gpio.c ****   {
 425:Drivers/STM32L1xx_HAL_Driver/Src/stm32l1xx_hal_gpio.c ****     GPIOx->BSRR = (uint32_t)GPIO_Pin << 16 ;
 679              		.loc 1 425 5 is_stmt 1 view .LVU198
 680              		.loc 1 425 38 is_stmt 0 view .LVU199
 681 0006 0904     		lsls	r1, r1, #16
 682              	.LVL66:
 683              		.loc 1 425 17 view .LVU200
 684 0008 8161     		str	r1, [r0, #24]
 426:Drivers/STM32L1xx_HAL_Driver/Src/stm32l1xx_hal_gpio.c ****   }
 427:Drivers/STM32L1xx_HAL_Driver/Src/stm32l1xx_hal_gpio.c **** }
 685              		.loc 1 427 1 view .LVU201
 686 000a 7047     		bx	lr
 687              		.cfi_endproc
 688              	.LFE75:
 690              		.section	.text.HAL_GPIO_TogglePin,"ax",%progbits
 691              		.align	1
 692              		.global	HAL_GPIO_TogglePin
 693              		.syntax unified
 694              		.thumb
ARM GAS  /tmp/ccH7MirZ.s 			page 22


 695              		.thumb_func
 697              	HAL_GPIO_TogglePin:
 698              	.LVL67:
 699              	.LFB76:
 428:Drivers/STM32L1xx_HAL_Driver/Src/stm32l1xx_hal_gpio.c **** 
 429:Drivers/STM32L1xx_HAL_Driver/Src/stm32l1xx_hal_gpio.c **** /**
 430:Drivers/STM32L1xx_HAL_Driver/Src/stm32l1xx_hal_gpio.c ****   * @brief  Toggles the specified GPIO pin
 431:Drivers/STM32L1xx_HAL_Driver/Src/stm32l1xx_hal_gpio.c ****   * @param  GPIOx where x can be (A..G depending on device used) to select the GPIO peripheral for 
 432:Drivers/STM32L1xx_HAL_Driver/Src/stm32l1xx_hal_gpio.c ****   * @param  GPIO_Pin specifies the pins to be toggled.
 433:Drivers/STM32L1xx_HAL_Driver/Src/stm32l1xx_hal_gpio.c ****   * @retval None
 434:Drivers/STM32L1xx_HAL_Driver/Src/stm32l1xx_hal_gpio.c ****   */
 435:Drivers/STM32L1xx_HAL_Driver/Src/stm32l1xx_hal_gpio.c **** void HAL_GPIO_TogglePin(GPIO_TypeDef *GPIOx, uint16_t GPIO_Pin)
 436:Drivers/STM32L1xx_HAL_Driver/Src/stm32l1xx_hal_gpio.c **** {
 700              		.loc 1 436 1 is_stmt 1 view -0
 701              		.cfi_startproc
 702              		@ args = 0, pretend = 0, frame = 0
 703              		@ frame_needed = 0, uses_anonymous_args = 0
 704              		@ link register save eliminated.
 437:Drivers/STM32L1xx_HAL_Driver/Src/stm32l1xx_hal_gpio.c ****   uint32_t odr;
 705              		.loc 1 437 3 view .LVU203
 438:Drivers/STM32L1xx_HAL_Driver/Src/stm32l1xx_hal_gpio.c **** 
 439:Drivers/STM32L1xx_HAL_Driver/Src/stm32l1xx_hal_gpio.c ****   /* Check the parameters */
 440:Drivers/STM32L1xx_HAL_Driver/Src/stm32l1xx_hal_gpio.c ****   assert_param(IS_GPIO_PIN(GPIO_Pin));
 706              		.loc 1 440 3 view .LVU204
 441:Drivers/STM32L1xx_HAL_Driver/Src/stm32l1xx_hal_gpio.c **** 
 442:Drivers/STM32L1xx_HAL_Driver/Src/stm32l1xx_hal_gpio.c ****   /* get current Output Data Register value */
 443:Drivers/STM32L1xx_HAL_Driver/Src/stm32l1xx_hal_gpio.c ****   odr = GPIOx->ODR;
 707              		.loc 1 443 3 view .LVU205
 708              		.loc 1 443 7 is_stmt 0 view .LVU206
 709 0000 4369     		ldr	r3, [r0, #20]
 710              	.LVL68:
 444:Drivers/STM32L1xx_HAL_Driver/Src/stm32l1xx_hal_gpio.c **** 
 445:Drivers/STM32L1xx_HAL_Driver/Src/stm32l1xx_hal_gpio.c ****   /* Set selected pins that were at low level, and reset ones that were high */
 446:Drivers/STM32L1xx_HAL_Driver/Src/stm32l1xx_hal_gpio.c ****   GPIOx->BSRR = ((odr & GPIO_Pin) << GPIO_NUMBER) | (~odr & GPIO_Pin);
 711              		.loc 1 446 3 is_stmt 1 view .LVU207
 712              		.loc 1 446 23 is_stmt 0 view .LVU208
 713 0002 01EA0302 		and	r2, r1, r3
 714              		.loc 1 446 59 view .LVU209
 715 0006 21EA0301 		bic	r1, r1, r3
 716              	.LVL69:
 717              		.loc 1 446 51 view .LVU210
 718 000a 41EA0241 		orr	r1, r1, r2, lsl #16
 719              		.loc 1 446 15 view .LVU211
 720 000e 8161     		str	r1, [r0, #24]
 447:Drivers/STM32L1xx_HAL_Driver/Src/stm32l1xx_hal_gpio.c **** }
 721              		.loc 1 447 1 view .LVU212
 722 0010 7047     		bx	lr
 723              		.cfi_endproc
 724              	.LFE76:
 726              		.section	.text.HAL_GPIO_LockPin,"ax",%progbits
 727              		.align	1
 728              		.global	HAL_GPIO_LockPin
 729              		.syntax unified
 730              		.thumb
 731              		.thumb_func
 733              	HAL_GPIO_LockPin:
 734              	.LVL70:
ARM GAS  /tmp/ccH7MirZ.s 			page 23


 735              	.LFB77:
 448:Drivers/STM32L1xx_HAL_Driver/Src/stm32l1xx_hal_gpio.c **** 
 449:Drivers/STM32L1xx_HAL_Driver/Src/stm32l1xx_hal_gpio.c **** /**
 450:Drivers/STM32L1xx_HAL_Driver/Src/stm32l1xx_hal_gpio.c **** * @brief  Locks GPIO Pins configuration registers.
 451:Drivers/STM32L1xx_HAL_Driver/Src/stm32l1xx_hal_gpio.c **** * @note   The locked registers are GPIOx_MODER, GPIOx_OTYPER, GPIOx_OSPEEDR,
 452:Drivers/STM32L1xx_HAL_Driver/Src/stm32l1xx_hal_gpio.c **** *         GPIOx_PUPDR, GPIOx_AFRL and GPIOx_AFRH.
 453:Drivers/STM32L1xx_HAL_Driver/Src/stm32l1xx_hal_gpio.c **** * @note   The configuration of the locked GPIO pins can no longer be modified
 454:Drivers/STM32L1xx_HAL_Driver/Src/stm32l1xx_hal_gpio.c **** *         until the next reset.
 455:Drivers/STM32L1xx_HAL_Driver/Src/stm32l1xx_hal_gpio.c **** * @note   Limitation concerning GPIOx_OTYPER: Locking of GPIOx_OTYPER[i] with i = 15..8
 456:Drivers/STM32L1xx_HAL_Driver/Src/stm32l1xx_hal_gpio.c **** *         depends from setting of GPIOx_LCKR[i-8] and not from GPIOx_LCKR[i].
 457:Drivers/STM32L1xx_HAL_Driver/Src/stm32l1xx_hal_gpio.c **** *         GPIOx_LCKR[i-8] is locking GPIOx_OTYPER[i] together with GPIOx_OTYPER[i-8].
 458:Drivers/STM32L1xx_HAL_Driver/Src/stm32l1xx_hal_gpio.c **** *         It is not possible to lock GPIOx_OTYPER[i] with i = 15..8, without locking also
 459:Drivers/STM32L1xx_HAL_Driver/Src/stm32l1xx_hal_gpio.c **** *         GPIOx_OTYPER[i-8].
 460:Drivers/STM32L1xx_HAL_Driver/Src/stm32l1xx_hal_gpio.c **** *         Workaround: When calling HAL_GPIO_LockPin with GPIO_Pin from GPIO_PIN_8 to GPIO_PIN_15,
 461:Drivers/STM32L1xx_HAL_Driver/Src/stm32l1xx_hal_gpio.c **** *         you must call also HAL_GPIO_LockPin with GPIO_Pin - 8.
 462:Drivers/STM32L1xx_HAL_Driver/Src/stm32l1xx_hal_gpio.c **** *         (When locking a pin from GPIO_PIN_8 to GPIO_PIN_15, you must lock also the corresponding
 463:Drivers/STM32L1xx_HAL_Driver/Src/stm32l1xx_hal_gpio.c **** *         GPIO_PIN_0 to GPIO_PIN_7).
 464:Drivers/STM32L1xx_HAL_Driver/Src/stm32l1xx_hal_gpio.c **** * @param  GPIOx where x can be (A..G depending on device used) to select the GPIO peripheral for ST
 465:Drivers/STM32L1xx_HAL_Driver/Src/stm32l1xx_hal_gpio.c **** * @param  GPIO_Pin Specifies the port bit to be locked.
 466:Drivers/STM32L1xx_HAL_Driver/Src/stm32l1xx_hal_gpio.c **** *         This parameter can be any combination of GPIO_Pin_x where x can be (0..15).
 467:Drivers/STM32L1xx_HAL_Driver/Src/stm32l1xx_hal_gpio.c **** * @retval None
 468:Drivers/STM32L1xx_HAL_Driver/Src/stm32l1xx_hal_gpio.c **** */
 469:Drivers/STM32L1xx_HAL_Driver/Src/stm32l1xx_hal_gpio.c **** HAL_StatusTypeDef HAL_GPIO_LockPin(GPIO_TypeDef *GPIOx, uint16_t GPIO_Pin)
 470:Drivers/STM32L1xx_HAL_Driver/Src/stm32l1xx_hal_gpio.c **** {
 736              		.loc 1 470 1 is_stmt 1 view -0
 737              		.cfi_startproc
 738              		@ args = 0, pretend = 0, frame = 8
 739              		@ frame_needed = 0, uses_anonymous_args = 0
 740              		@ link register save eliminated.
 741              		.loc 1 470 1 is_stmt 0 view .LVU214
 742 0000 82B0     		sub	sp, sp, #8
 743              	.LCFI5:
 744              		.cfi_def_cfa_offset 8
 471:Drivers/STM32L1xx_HAL_Driver/Src/stm32l1xx_hal_gpio.c ****   __IO uint32_t tmp = GPIO_LCKR_LCKK;
 745              		.loc 1 471 3 is_stmt 1 view .LVU215
 746              		.loc 1 471 17 is_stmt 0 view .LVU216
 747 0002 4FF48033 		mov	r3, #65536
 748 0006 0193     		str	r3, [sp, #4]
 472:Drivers/STM32L1xx_HAL_Driver/Src/stm32l1xx_hal_gpio.c **** 
 473:Drivers/STM32L1xx_HAL_Driver/Src/stm32l1xx_hal_gpio.c ****   /* Check the parameters */
 474:Drivers/STM32L1xx_HAL_Driver/Src/stm32l1xx_hal_gpio.c ****   assert_param(IS_GPIO_LOCK_INSTANCE(GPIOx));
 749              		.loc 1 474 3 is_stmt 1 view .LVU217
 475:Drivers/STM32L1xx_HAL_Driver/Src/stm32l1xx_hal_gpio.c ****   assert_param(IS_GPIO_PIN(GPIO_Pin));
 750              		.loc 1 475 3 view .LVU218
 476:Drivers/STM32L1xx_HAL_Driver/Src/stm32l1xx_hal_gpio.c **** 
 477:Drivers/STM32L1xx_HAL_Driver/Src/stm32l1xx_hal_gpio.c ****   /* Apply lock key write sequence */
 478:Drivers/STM32L1xx_HAL_Driver/Src/stm32l1xx_hal_gpio.c ****   SET_BIT(tmp, GPIO_Pin);
 751              		.loc 1 478 3 view .LVU219
 752 0008 019B     		ldr	r3, [sp, #4]
 753 000a 0B43     		orrs	r3, r3, r1
 754 000c 0193     		str	r3, [sp, #4]
 479:Drivers/STM32L1xx_HAL_Driver/Src/stm32l1xx_hal_gpio.c ****   /* Set LCKx bit(s): LCKK='1' + LCK[15-0] */
 480:Drivers/STM32L1xx_HAL_Driver/Src/stm32l1xx_hal_gpio.c ****   GPIOx->LCKR = tmp;
 755              		.loc 1 480 3 view .LVU220
 756              		.loc 1 480 15 is_stmt 0 view .LVU221
 757 000e 019B     		ldr	r3, [sp, #4]
 758 0010 C361     		str	r3, [r0, #28]
ARM GAS  /tmp/ccH7MirZ.s 			page 24


 481:Drivers/STM32L1xx_HAL_Driver/Src/stm32l1xx_hal_gpio.c ****   /* Reset LCKx bit(s): LCKK='0' + LCK[15-0] */
 482:Drivers/STM32L1xx_HAL_Driver/Src/stm32l1xx_hal_gpio.c ****   GPIOx->LCKR = GPIO_Pin;
 759              		.loc 1 482 3 is_stmt 1 view .LVU222
 760              		.loc 1 482 15 is_stmt 0 view .LVU223
 761 0012 C161     		str	r1, [r0, #28]
 483:Drivers/STM32L1xx_HAL_Driver/Src/stm32l1xx_hal_gpio.c ****   /* Set LCKx bit(s): LCKK='1' + LCK[15-0] */
 484:Drivers/STM32L1xx_HAL_Driver/Src/stm32l1xx_hal_gpio.c ****   GPIOx->LCKR = tmp;
 762              		.loc 1 484 3 is_stmt 1 view .LVU224
 763              		.loc 1 484 15 is_stmt 0 view .LVU225
 764 0014 019B     		ldr	r3, [sp, #4]
 765 0016 C361     		str	r3, [r0, #28]
 485:Drivers/STM32L1xx_HAL_Driver/Src/stm32l1xx_hal_gpio.c ****   /* Read LCKK register. This read is mandatory to complete key lock sequence */
 486:Drivers/STM32L1xx_HAL_Driver/Src/stm32l1xx_hal_gpio.c ****   tmp = GPIOx->LCKR;
 766              		.loc 1 486 3 is_stmt 1 view .LVU226
 767              		.loc 1 486 14 is_stmt 0 view .LVU227
 768 0018 C369     		ldr	r3, [r0, #28]
 769              		.loc 1 486 7 view .LVU228
 770 001a 0193     		str	r3, [sp, #4]
 487:Drivers/STM32L1xx_HAL_Driver/Src/stm32l1xx_hal_gpio.c **** 
 488:Drivers/STM32L1xx_HAL_Driver/Src/stm32l1xx_hal_gpio.c ****   /* Read again in order to confirm lock is active */
 489:Drivers/STM32L1xx_HAL_Driver/Src/stm32l1xx_hal_gpio.c ****   if ((GPIOx->LCKR & GPIO_LCKR_LCKK) != RESET)
 771              		.loc 1 489 3 is_stmt 1 view .LVU229
 772              		.loc 1 489 13 is_stmt 0 view .LVU230
 773 001c C369     		ldr	r3, [r0, #28]
 774              		.loc 1 489 6 view .LVU231
 775 001e 13F4803F 		tst	r3, #65536
 776 0022 02D0     		beq	.L54
 490:Drivers/STM32L1xx_HAL_Driver/Src/stm32l1xx_hal_gpio.c ****   {
 491:Drivers/STM32L1xx_HAL_Driver/Src/stm32l1xx_hal_gpio.c ****     return HAL_OK;
 777              		.loc 1 491 12 view .LVU232
 778 0024 0020     		movs	r0, #0
 779              	.LVL71:
 780              	.L53:
 492:Drivers/STM32L1xx_HAL_Driver/Src/stm32l1xx_hal_gpio.c ****   }
 493:Drivers/STM32L1xx_HAL_Driver/Src/stm32l1xx_hal_gpio.c ****   else
 494:Drivers/STM32L1xx_HAL_Driver/Src/stm32l1xx_hal_gpio.c ****   {
 495:Drivers/STM32L1xx_HAL_Driver/Src/stm32l1xx_hal_gpio.c ****     return HAL_ERROR;
 496:Drivers/STM32L1xx_HAL_Driver/Src/stm32l1xx_hal_gpio.c ****   }
 497:Drivers/STM32L1xx_HAL_Driver/Src/stm32l1xx_hal_gpio.c **** }
 781              		.loc 1 497 1 view .LVU233
 782 0026 02B0     		add	sp, sp, #8
 783              	.LCFI6:
 784              		.cfi_remember_state
 785              		.cfi_def_cfa_offset 0
 786              		@ sp needed
 787 0028 7047     		bx	lr
 788              	.LVL72:
 789              	.L54:
 790              	.LCFI7:
 791              		.cfi_restore_state
 495:Drivers/STM32L1xx_HAL_Driver/Src/stm32l1xx_hal_gpio.c ****   }
 792              		.loc 1 495 12 view .LVU234
 793 002a 0120     		movs	r0, #1
 794              	.LVL73:
 495:Drivers/STM32L1xx_HAL_Driver/Src/stm32l1xx_hal_gpio.c ****   }
 795              		.loc 1 495 12 view .LVU235
 796 002c FBE7     		b	.L53
ARM GAS  /tmp/ccH7MirZ.s 			page 25


 797              		.cfi_endproc
 798              	.LFE77:
 800              		.section	.text.HAL_GPIO_EXTI_Callback,"ax",%progbits
 801              		.align	1
 802              		.weak	HAL_GPIO_EXTI_Callback
 803              		.syntax unified
 804              		.thumb
 805              		.thumb_func
 807              	HAL_GPIO_EXTI_Callback:
 808              	.LVL74:
 809              	.LFB79:
 498:Drivers/STM32L1xx_HAL_Driver/Src/stm32l1xx_hal_gpio.c **** 
 499:Drivers/STM32L1xx_HAL_Driver/Src/stm32l1xx_hal_gpio.c **** /**
 500:Drivers/STM32L1xx_HAL_Driver/Src/stm32l1xx_hal_gpio.c ****   * @brief  This function handles EXTI interrupt request.
 501:Drivers/STM32L1xx_HAL_Driver/Src/stm32l1xx_hal_gpio.c ****   * @param  GPIO_Pin Specifies the port pin connected to corresponding EXTI line.
 502:Drivers/STM32L1xx_HAL_Driver/Src/stm32l1xx_hal_gpio.c ****   * @retval None
 503:Drivers/STM32L1xx_HAL_Driver/Src/stm32l1xx_hal_gpio.c ****   */
 504:Drivers/STM32L1xx_HAL_Driver/Src/stm32l1xx_hal_gpio.c **** void HAL_GPIO_EXTI_IRQHandler(uint16_t GPIO_Pin)
 505:Drivers/STM32L1xx_HAL_Driver/Src/stm32l1xx_hal_gpio.c **** {
 506:Drivers/STM32L1xx_HAL_Driver/Src/stm32l1xx_hal_gpio.c ****   /* EXTI line interrupt detected */
 507:Drivers/STM32L1xx_HAL_Driver/Src/stm32l1xx_hal_gpio.c ****   if (__HAL_GPIO_EXTI_GET_IT(GPIO_Pin) != RESET)
 508:Drivers/STM32L1xx_HAL_Driver/Src/stm32l1xx_hal_gpio.c ****   {
 509:Drivers/STM32L1xx_HAL_Driver/Src/stm32l1xx_hal_gpio.c ****     __HAL_GPIO_EXTI_CLEAR_IT(GPIO_Pin);
 510:Drivers/STM32L1xx_HAL_Driver/Src/stm32l1xx_hal_gpio.c ****     HAL_GPIO_EXTI_Callback(GPIO_Pin);
 511:Drivers/STM32L1xx_HAL_Driver/Src/stm32l1xx_hal_gpio.c ****   }
 512:Drivers/STM32L1xx_HAL_Driver/Src/stm32l1xx_hal_gpio.c **** }
 513:Drivers/STM32L1xx_HAL_Driver/Src/stm32l1xx_hal_gpio.c **** 
 514:Drivers/STM32L1xx_HAL_Driver/Src/stm32l1xx_hal_gpio.c **** /**
 515:Drivers/STM32L1xx_HAL_Driver/Src/stm32l1xx_hal_gpio.c ****   * @brief  EXTI line detection callbacks.
 516:Drivers/STM32L1xx_HAL_Driver/Src/stm32l1xx_hal_gpio.c ****   * @param  GPIO_Pin Specifies the port pin connected to corresponding EXTI line.
 517:Drivers/STM32L1xx_HAL_Driver/Src/stm32l1xx_hal_gpio.c ****   * @retval None
 518:Drivers/STM32L1xx_HAL_Driver/Src/stm32l1xx_hal_gpio.c ****   */
 519:Drivers/STM32L1xx_HAL_Driver/Src/stm32l1xx_hal_gpio.c **** __weak void HAL_GPIO_EXTI_Callback(uint16_t GPIO_Pin)
 520:Drivers/STM32L1xx_HAL_Driver/Src/stm32l1xx_hal_gpio.c **** {
 810              		.loc 1 520 1 is_stmt 1 view -0
 811              		.cfi_startproc
 812              		@ args = 0, pretend = 0, frame = 0
 813              		@ frame_needed = 0, uses_anonymous_args = 0
 814              		@ link register save eliminated.
 521:Drivers/STM32L1xx_HAL_Driver/Src/stm32l1xx_hal_gpio.c ****   /* Prevent unused argument(s) compilation warning */
 522:Drivers/STM32L1xx_HAL_Driver/Src/stm32l1xx_hal_gpio.c ****   UNUSED(GPIO_Pin);
 815              		.loc 1 522 3 view .LVU237
 523:Drivers/STM32L1xx_HAL_Driver/Src/stm32l1xx_hal_gpio.c **** 
 524:Drivers/STM32L1xx_HAL_Driver/Src/stm32l1xx_hal_gpio.c ****   /* NOTE : This function Should not be modified, when the callback is needed,
 525:Drivers/STM32L1xx_HAL_Driver/Src/stm32l1xx_hal_gpio.c ****             the HAL_GPIO_EXTI_Callback could be implemented in the user file
 526:Drivers/STM32L1xx_HAL_Driver/Src/stm32l1xx_hal_gpio.c ****    */
 527:Drivers/STM32L1xx_HAL_Driver/Src/stm32l1xx_hal_gpio.c **** }
 816              		.loc 1 527 1 is_stmt 0 view .LVU238
 817 0000 7047     		bx	lr
 818              		.cfi_endproc
 819              	.LFE79:
 821              		.section	.text.HAL_GPIO_EXTI_IRQHandler,"ax",%progbits
 822              		.align	1
 823              		.global	HAL_GPIO_EXTI_IRQHandler
 824              		.syntax unified
 825              		.thumb
 826              		.thumb_func
ARM GAS  /tmp/ccH7MirZ.s 			page 26


 828              	HAL_GPIO_EXTI_IRQHandler:
 829              	.LVL75:
 830              	.LFB78:
 505:Drivers/STM32L1xx_HAL_Driver/Src/stm32l1xx_hal_gpio.c ****   /* EXTI line interrupt detected */
 831              		.loc 1 505 1 is_stmt 1 view -0
 832              		.cfi_startproc
 833              		@ args = 0, pretend = 0, frame = 0
 834              		@ frame_needed = 0, uses_anonymous_args = 0
 505:Drivers/STM32L1xx_HAL_Driver/Src/stm32l1xx_hal_gpio.c ****   /* EXTI line interrupt detected */
 835              		.loc 1 505 1 is_stmt 0 view .LVU240
 836 0000 08B5     		push	{r3, lr}
 837              	.LCFI8:
 838              		.cfi_def_cfa_offset 8
 839              		.cfi_offset 3, -8
 840              		.cfi_offset 14, -4
 507:Drivers/STM32L1xx_HAL_Driver/Src/stm32l1xx_hal_gpio.c ****   {
 841              		.loc 1 507 3 is_stmt 1 view .LVU241
 507:Drivers/STM32L1xx_HAL_Driver/Src/stm32l1xx_hal_gpio.c ****   {
 842              		.loc 1 507 7 is_stmt 0 view .LVU242
 843 0002 054B     		ldr	r3, .L61
 844 0004 5B69     		ldr	r3, [r3, #20]
 507:Drivers/STM32L1xx_HAL_Driver/Src/stm32l1xx_hal_gpio.c ****   {
 845              		.loc 1 507 6 view .LVU243
 846 0006 0342     		tst	r3, r0
 847 0008 00D1     		bne	.L60
 848              	.LVL76:
 849              	.L57:
 512:Drivers/STM32L1xx_HAL_Driver/Src/stm32l1xx_hal_gpio.c **** 
 850              		.loc 1 512 1 view .LVU244
 851 000a 08BD     		pop	{r3, pc}
 852              	.LVL77:
 853              	.L60:
 509:Drivers/STM32L1xx_HAL_Driver/Src/stm32l1xx_hal_gpio.c ****     HAL_GPIO_EXTI_Callback(GPIO_Pin);
 854              		.loc 1 509 5 is_stmt 1 view .LVU245
 855 000c 024B     		ldr	r3, .L61
 856 000e 5861     		str	r0, [r3, #20]
 510:Drivers/STM32L1xx_HAL_Driver/Src/stm32l1xx_hal_gpio.c ****   }
 857              		.loc 1 510 5 view .LVU246
 858 0010 FFF7FEFF 		bl	HAL_GPIO_EXTI_Callback
 859              	.LVL78:
 512:Drivers/STM32L1xx_HAL_Driver/Src/stm32l1xx_hal_gpio.c **** 
 860              		.loc 1 512 1 is_stmt 0 view .LVU247
 861 0014 F9E7     		b	.L57
 862              	.L62:
 863 0016 00BF     		.align	2
 864              	.L61:
 865 0018 00040140 		.word	1073808384
 866              		.cfi_endproc
 867              	.LFE78:
 869              		.text
 870              	.Letext0:
 871              		.file 2 "/home/seradya/toolchains/gcc-arm-none-eabi-10.3-2021.10/arm-none-eabi/include/machine/_de
 872              		.file 3 "/home/seradya/toolchains/gcc-arm-none-eabi-10.3-2021.10/arm-none-eabi/include/sys/_stdint
 873              		.file 4 "Drivers/CMSIS/Device/ST/STM32L1xx/Include/stm32l152xc.h"
 874              		.file 5 "Drivers/CMSIS/Device/ST/STM32L1xx/Include/stm32l1xx.h"
 875              		.file 6 "Drivers/STM32L1xx_HAL_Driver/Inc/stm32l1xx_hal_def.h"
 876              		.file 7 "Drivers/STM32L1xx_HAL_Driver/Inc/stm32l1xx_hal_gpio.h"
ARM GAS  /tmp/ccH7MirZ.s 			page 27


ARM GAS  /tmp/ccH7MirZ.s 			page 28

