ARM GAS  /tmp/ccReQ6Ov.s 			page 1


   1              		.cpu cortex-m3
   2              		.arch armv7-m
   3              		.fpu softvfp
   4              		.eabi_attribute 20, 1
   5              		.eabi_attribute 21, 1
   6              		.eabi_attribute 23, 3
   7              		.eabi_attribute 24, 1
   8              		.eabi_attribute 25, 1
   9              		.eabi_attribute 26, 1
  10              		.eabi_attribute 30, 1
  11              		.eabi_attribute 34, 1
  12              		.eabi_attribute 18, 4
  13              		.file	"stm32l1xx_hal.c"
  14              		.text
  15              	.Ltext0:
  16              		.cfi_sections	.debug_frame
  17              		.section	.text.HAL_MspInit,"ax",%progbits
  18              		.align	1
  19              		.weak	HAL_MspInit
  20              		.syntax unified
  21              		.thumb
  22              		.thumb_func
  24              	HAL_MspInit:
  25              	.LFB74:
  26              		.file 1 "Drivers/STM32L1xx_HAL_Driver/Src/stm32l1xx_hal.c"
   1:Drivers/STM32L1xx_HAL_Driver/Src/stm32l1xx_hal.c **** /**
   2:Drivers/STM32L1xx_HAL_Driver/Src/stm32l1xx_hal.c ****   ******************************************************************************
   3:Drivers/STM32L1xx_HAL_Driver/Src/stm32l1xx_hal.c ****   * @file    stm32l1xx_hal.c
   4:Drivers/STM32L1xx_HAL_Driver/Src/stm32l1xx_hal.c ****   * @author  MCD Application Team
   5:Drivers/STM32L1xx_HAL_Driver/Src/stm32l1xx_hal.c ****   * @brief   HAL module driver.
   6:Drivers/STM32L1xx_HAL_Driver/Src/stm32l1xx_hal.c ****   *          This is the common part of the HAL initialization
   7:Drivers/STM32L1xx_HAL_Driver/Src/stm32l1xx_hal.c ****   *
   8:Drivers/STM32L1xx_HAL_Driver/Src/stm32l1xx_hal.c ****   ******************************************************************************
   9:Drivers/STM32L1xx_HAL_Driver/Src/stm32l1xx_hal.c ****   * @attention
  10:Drivers/STM32L1xx_HAL_Driver/Src/stm32l1xx_hal.c ****   *
  11:Drivers/STM32L1xx_HAL_Driver/Src/stm32l1xx_hal.c ****   * Copyright (c) 2017 STMicroelectronics.
  12:Drivers/STM32L1xx_HAL_Driver/Src/stm32l1xx_hal.c ****   * All rights reserved.
  13:Drivers/STM32L1xx_HAL_Driver/Src/stm32l1xx_hal.c ****   *
  14:Drivers/STM32L1xx_HAL_Driver/Src/stm32l1xx_hal.c ****   * This software is licensed under terms that can be found in the LICENSE file
  15:Drivers/STM32L1xx_HAL_Driver/Src/stm32l1xx_hal.c ****   * in the root directory of this software component.
  16:Drivers/STM32L1xx_HAL_Driver/Src/stm32l1xx_hal.c ****   * If no LICENSE file comes with this software, it is provided AS-IS.
  17:Drivers/STM32L1xx_HAL_Driver/Src/stm32l1xx_hal.c ****   *
  18:Drivers/STM32L1xx_HAL_Driver/Src/stm32l1xx_hal.c ****   ******************************************************************************
  19:Drivers/STM32L1xx_HAL_Driver/Src/stm32l1xx_hal.c ****   @verbatim
  20:Drivers/STM32L1xx_HAL_Driver/Src/stm32l1xx_hal.c ****   ==============================================================================
  21:Drivers/STM32L1xx_HAL_Driver/Src/stm32l1xx_hal.c ****                      ##### How to use this driver #####
  22:Drivers/STM32L1xx_HAL_Driver/Src/stm32l1xx_hal.c ****   ==============================================================================
  23:Drivers/STM32L1xx_HAL_Driver/Src/stm32l1xx_hal.c ****     [..]
  24:Drivers/STM32L1xx_HAL_Driver/Src/stm32l1xx_hal.c ****     The common HAL driver contains a set of generic and common APIs that can be
  25:Drivers/STM32L1xx_HAL_Driver/Src/stm32l1xx_hal.c ****     used by the PPP peripheral drivers and the user to start using the HAL.
  26:Drivers/STM32L1xx_HAL_Driver/Src/stm32l1xx_hal.c ****     [..]
  27:Drivers/STM32L1xx_HAL_Driver/Src/stm32l1xx_hal.c ****     The HAL contains two APIs categories:
  28:Drivers/STM32L1xx_HAL_Driver/Src/stm32l1xx_hal.c ****          (+) Common HAL APIs
  29:Drivers/STM32L1xx_HAL_Driver/Src/stm32l1xx_hal.c ****          (+) Services HAL APIs
  30:Drivers/STM32L1xx_HAL_Driver/Src/stm32l1xx_hal.c **** 
  31:Drivers/STM32L1xx_HAL_Driver/Src/stm32l1xx_hal.c ****   @endverbatim
  32:Drivers/STM32L1xx_HAL_Driver/Src/stm32l1xx_hal.c ****   ******************************************************************************
ARM GAS  /tmp/ccReQ6Ov.s 			page 2


  33:Drivers/STM32L1xx_HAL_Driver/Src/stm32l1xx_hal.c ****   */
  34:Drivers/STM32L1xx_HAL_Driver/Src/stm32l1xx_hal.c **** 
  35:Drivers/STM32L1xx_HAL_Driver/Src/stm32l1xx_hal.c **** /* Includes ------------------------------------------------------------------*/
  36:Drivers/STM32L1xx_HAL_Driver/Src/stm32l1xx_hal.c **** #include "stm32l1xx_hal.h"
  37:Drivers/STM32L1xx_HAL_Driver/Src/stm32l1xx_hal.c **** 
  38:Drivers/STM32L1xx_HAL_Driver/Src/stm32l1xx_hal.c **** /** @addtogroup STM32L1xx_HAL_Driver
  39:Drivers/STM32L1xx_HAL_Driver/Src/stm32l1xx_hal.c ****   * @{
  40:Drivers/STM32L1xx_HAL_Driver/Src/stm32l1xx_hal.c ****   */
  41:Drivers/STM32L1xx_HAL_Driver/Src/stm32l1xx_hal.c **** 
  42:Drivers/STM32L1xx_HAL_Driver/Src/stm32l1xx_hal.c **** /** @defgroup HAL HAL
  43:Drivers/STM32L1xx_HAL_Driver/Src/stm32l1xx_hal.c ****   * @brief HAL module driver.
  44:Drivers/STM32L1xx_HAL_Driver/Src/stm32l1xx_hal.c ****   * @{
  45:Drivers/STM32L1xx_HAL_Driver/Src/stm32l1xx_hal.c ****   */
  46:Drivers/STM32L1xx_HAL_Driver/Src/stm32l1xx_hal.c **** 
  47:Drivers/STM32L1xx_HAL_Driver/Src/stm32l1xx_hal.c **** #ifdef HAL_MODULE_ENABLED
  48:Drivers/STM32L1xx_HAL_Driver/Src/stm32l1xx_hal.c **** 
  49:Drivers/STM32L1xx_HAL_Driver/Src/stm32l1xx_hal.c **** /* Private typedef -----------------------------------------------------------*/
  50:Drivers/STM32L1xx_HAL_Driver/Src/stm32l1xx_hal.c **** /* Private define ------------------------------------------------------------*/
  51:Drivers/STM32L1xx_HAL_Driver/Src/stm32l1xx_hal.c **** 
  52:Drivers/STM32L1xx_HAL_Driver/Src/stm32l1xx_hal.c **** /** @defgroup HAL_Private_Defines HAL Private Defines
  53:Drivers/STM32L1xx_HAL_Driver/Src/stm32l1xx_hal.c ****   * @{
  54:Drivers/STM32L1xx_HAL_Driver/Src/stm32l1xx_hal.c ****   */
  55:Drivers/STM32L1xx_HAL_Driver/Src/stm32l1xx_hal.c **** 
  56:Drivers/STM32L1xx_HAL_Driver/Src/stm32l1xx_hal.c **** /**
  57:Drivers/STM32L1xx_HAL_Driver/Src/stm32l1xx_hal.c ****  * @brief STM32L1xx HAL Driver version number
  58:Drivers/STM32L1xx_HAL_Driver/Src/stm32l1xx_hal.c ****    */
  59:Drivers/STM32L1xx_HAL_Driver/Src/stm32l1xx_hal.c **** #define __STM32L1xx_HAL_VERSION_MAIN   (0x01) /*!< [31:24] main version */
  60:Drivers/STM32L1xx_HAL_Driver/Src/stm32l1xx_hal.c **** #define __STM32L1xx_HAL_VERSION_SUB1   (0x04) /*!< [23:16] sub1 version */
  61:Drivers/STM32L1xx_HAL_Driver/Src/stm32l1xx_hal.c **** #define __STM32L1xx_HAL_VERSION_SUB2   (0x05) /*!< [15:8]  sub2 version */
  62:Drivers/STM32L1xx_HAL_Driver/Src/stm32l1xx_hal.c **** #define __STM32L1xx_HAL_VERSION_RC     (0x00) /*!< [7:0]  release candidate */
  63:Drivers/STM32L1xx_HAL_Driver/Src/stm32l1xx_hal.c **** #define __STM32L1xx_HAL_VERSION         ((__STM32L1xx_HAL_VERSION_MAIN << 24)\
  64:Drivers/STM32L1xx_HAL_Driver/Src/stm32l1xx_hal.c ****                                         |(__STM32L1xx_HAL_VERSION_SUB1 << 16)\
  65:Drivers/STM32L1xx_HAL_Driver/Src/stm32l1xx_hal.c ****                                         |(__STM32L1xx_HAL_VERSION_SUB2 << 8 )\
  66:Drivers/STM32L1xx_HAL_Driver/Src/stm32l1xx_hal.c ****                                         |(__STM32L1xx_HAL_VERSION_RC))
  67:Drivers/STM32L1xx_HAL_Driver/Src/stm32l1xx_hal.c **** 
  68:Drivers/STM32L1xx_HAL_Driver/Src/stm32l1xx_hal.c **** #define IDCODE_DEVID_MASK    (0x00000FFFU)
  69:Drivers/STM32L1xx_HAL_Driver/Src/stm32l1xx_hal.c **** 
  70:Drivers/STM32L1xx_HAL_Driver/Src/stm32l1xx_hal.c **** /**
  71:Drivers/STM32L1xx_HAL_Driver/Src/stm32l1xx_hal.c ****   * @}
  72:Drivers/STM32L1xx_HAL_Driver/Src/stm32l1xx_hal.c ****   */
  73:Drivers/STM32L1xx_HAL_Driver/Src/stm32l1xx_hal.c **** 
  74:Drivers/STM32L1xx_HAL_Driver/Src/stm32l1xx_hal.c **** /* Private macro -------------------------------------------------------------*/
  75:Drivers/STM32L1xx_HAL_Driver/Src/stm32l1xx_hal.c **** /* Private variables ---------------------------------------------------------*/
  76:Drivers/STM32L1xx_HAL_Driver/Src/stm32l1xx_hal.c **** /* Private function prototypes -----------------------------------------------*/
  77:Drivers/STM32L1xx_HAL_Driver/Src/stm32l1xx_hal.c **** /* Private functions ---------------------------------------------------------*/
  78:Drivers/STM32L1xx_HAL_Driver/Src/stm32l1xx_hal.c **** 
  79:Drivers/STM32L1xx_HAL_Driver/Src/stm32l1xx_hal.c **** /* Exported variables --------------------------------------------------------*/
  80:Drivers/STM32L1xx_HAL_Driver/Src/stm32l1xx_hal.c **** /** @addtogroup HAL_Exported_Variables
  81:Drivers/STM32L1xx_HAL_Driver/Src/stm32l1xx_hal.c ****   * @{
  82:Drivers/STM32L1xx_HAL_Driver/Src/stm32l1xx_hal.c ****   */
  83:Drivers/STM32L1xx_HAL_Driver/Src/stm32l1xx_hal.c **** __IO uint32_t uwTick;
  84:Drivers/STM32L1xx_HAL_Driver/Src/stm32l1xx_hal.c **** uint32_t uwTickPrio = (1UL << __NVIC_PRIO_BITS); /* Invalid priority */
  85:Drivers/STM32L1xx_HAL_Driver/Src/stm32l1xx_hal.c **** uint32_t uwTickFreq = HAL_TICK_FREQ_DEFAULT;  /* 1KHz */
  86:Drivers/STM32L1xx_HAL_Driver/Src/stm32l1xx_hal.c **** /**
  87:Drivers/STM32L1xx_HAL_Driver/Src/stm32l1xx_hal.c ****   * @}
  88:Drivers/STM32L1xx_HAL_Driver/Src/stm32l1xx_hal.c ****   */
  89:Drivers/STM32L1xx_HAL_Driver/Src/stm32l1xx_hal.c **** 
ARM GAS  /tmp/ccReQ6Ov.s 			page 3


  90:Drivers/STM32L1xx_HAL_Driver/Src/stm32l1xx_hal.c **** /* Exported functions --------------------------------------------------------*/
  91:Drivers/STM32L1xx_HAL_Driver/Src/stm32l1xx_hal.c **** /** @defgroup HAL_Exported_Functions HAL Exported Functions
  92:Drivers/STM32L1xx_HAL_Driver/Src/stm32l1xx_hal.c ****   * @{
  93:Drivers/STM32L1xx_HAL_Driver/Src/stm32l1xx_hal.c ****   */
  94:Drivers/STM32L1xx_HAL_Driver/Src/stm32l1xx_hal.c **** 
  95:Drivers/STM32L1xx_HAL_Driver/Src/stm32l1xx_hal.c **** /** @defgroup HAL_Exported_Functions_Group1 Initialization and de-initialization Functions
  96:Drivers/STM32L1xx_HAL_Driver/Src/stm32l1xx_hal.c ****  *  @brief    Initialization and de-initialization functions
  97:Drivers/STM32L1xx_HAL_Driver/Src/stm32l1xx_hal.c ****  *
  98:Drivers/STM32L1xx_HAL_Driver/Src/stm32l1xx_hal.c **** @verbatim
  99:Drivers/STM32L1xx_HAL_Driver/Src/stm32l1xx_hal.c ****  ===============================================================================
 100:Drivers/STM32L1xx_HAL_Driver/Src/stm32l1xx_hal.c ****               ##### Initialization and de-initialization functions #####
 101:Drivers/STM32L1xx_HAL_Driver/Src/stm32l1xx_hal.c ****  ===============================================================================
 102:Drivers/STM32L1xx_HAL_Driver/Src/stm32l1xx_hal.c ****    [..]  This section provides functions allowing to:
 103:Drivers/STM32L1xx_HAL_Driver/Src/stm32l1xx_hal.c ****       (+) Initialize the Flash interface, the NVIC allocation and initial clock
 104:Drivers/STM32L1xx_HAL_Driver/Src/stm32l1xx_hal.c ****           configuration. It initializes the source of time base also when timeout
 105:Drivers/STM32L1xx_HAL_Driver/Src/stm32l1xx_hal.c ****           is needed and the backup domain when enabled.
 106:Drivers/STM32L1xx_HAL_Driver/Src/stm32l1xx_hal.c ****       (+) De-initialize common part of the HAL.
 107:Drivers/STM32L1xx_HAL_Driver/Src/stm32l1xx_hal.c ****       (+) Configure the time base source to have 1ms time base with a dedicated
 108:Drivers/STM32L1xx_HAL_Driver/Src/stm32l1xx_hal.c ****           Tick interrupt priority.
 109:Drivers/STM32L1xx_HAL_Driver/Src/stm32l1xx_hal.c ****         (++) SysTick timer is used by default as source of time base, but user
 110:Drivers/STM32L1xx_HAL_Driver/Src/stm32l1xx_hal.c ****              can eventually implement his proper time base source (a general purpose
 111:Drivers/STM32L1xx_HAL_Driver/Src/stm32l1xx_hal.c ****              timer for example or other time source), keeping in mind that Time base
 112:Drivers/STM32L1xx_HAL_Driver/Src/stm32l1xx_hal.c ****              duration should be kept 1ms since PPP_TIMEOUT_VALUEs are defined and
 113:Drivers/STM32L1xx_HAL_Driver/Src/stm32l1xx_hal.c ****              handled in milliseconds basis.
 114:Drivers/STM32L1xx_HAL_Driver/Src/stm32l1xx_hal.c ****         (++) Time base configuration function (HAL_InitTick ()) is called automatically
 115:Drivers/STM32L1xx_HAL_Driver/Src/stm32l1xx_hal.c ****              at the beginning of the program after reset by HAL_Init() or at any time
 116:Drivers/STM32L1xx_HAL_Driver/Src/stm32l1xx_hal.c ****              when clock is configured, by HAL_RCC_ClockConfig().
 117:Drivers/STM32L1xx_HAL_Driver/Src/stm32l1xx_hal.c ****         (++) Source of time base is configured  to generate interrupts at regular
 118:Drivers/STM32L1xx_HAL_Driver/Src/stm32l1xx_hal.c ****              time intervals. Care must be taken if HAL_Delay() is called from a
 119:Drivers/STM32L1xx_HAL_Driver/Src/stm32l1xx_hal.c ****              peripheral ISR process, the Tick interrupt line must have higher priority
 120:Drivers/STM32L1xx_HAL_Driver/Src/stm32l1xx_hal.c ****             (numerically lower) than the peripheral interrupt. Otherwise the caller
 121:Drivers/STM32L1xx_HAL_Driver/Src/stm32l1xx_hal.c ****             ISR process will be blocked.
 122:Drivers/STM32L1xx_HAL_Driver/Src/stm32l1xx_hal.c ****        (++) functions affecting time base configurations are declared as __weak
 123:Drivers/STM32L1xx_HAL_Driver/Src/stm32l1xx_hal.c ****              to make  override possible  in case of other  implementations in user file.
 124:Drivers/STM32L1xx_HAL_Driver/Src/stm32l1xx_hal.c **** 
 125:Drivers/STM32L1xx_HAL_Driver/Src/stm32l1xx_hal.c **** @endverbatim
 126:Drivers/STM32L1xx_HAL_Driver/Src/stm32l1xx_hal.c ****   * @{
 127:Drivers/STM32L1xx_HAL_Driver/Src/stm32l1xx_hal.c ****   */
 128:Drivers/STM32L1xx_HAL_Driver/Src/stm32l1xx_hal.c **** 
 129:Drivers/STM32L1xx_HAL_Driver/Src/stm32l1xx_hal.c **** /**
 130:Drivers/STM32L1xx_HAL_Driver/Src/stm32l1xx_hal.c ****   * @brief This function configures the Flash prefetch,
 131:Drivers/STM32L1xx_HAL_Driver/Src/stm32l1xx_hal.c ****   *        configures time base source, NVIC and Low level hardware
 132:Drivers/STM32L1xx_HAL_Driver/Src/stm32l1xx_hal.c ****   * @note This function is called at the beginning of program after reset and before
 133:Drivers/STM32L1xx_HAL_Driver/Src/stm32l1xx_hal.c ****   *       the clock configuration
 134:Drivers/STM32L1xx_HAL_Driver/Src/stm32l1xx_hal.c ****   * @note The time base configuration is based on MSI clock when exiting from Reset.
 135:Drivers/STM32L1xx_HAL_Driver/Src/stm32l1xx_hal.c ****   *       Once done, time base tick start incrementing.
 136:Drivers/STM32L1xx_HAL_Driver/Src/stm32l1xx_hal.c ****   *        In the default implementation,Systick is used as source of time base.
 137:Drivers/STM32L1xx_HAL_Driver/Src/stm32l1xx_hal.c ****   *        the tick variable is incremented each 1ms in its ISR.
 138:Drivers/STM32L1xx_HAL_Driver/Src/stm32l1xx_hal.c ****   * @retval HAL status
 139:Drivers/STM32L1xx_HAL_Driver/Src/stm32l1xx_hal.c ****   */
 140:Drivers/STM32L1xx_HAL_Driver/Src/stm32l1xx_hal.c **** HAL_StatusTypeDef HAL_Init(void)
 141:Drivers/STM32L1xx_HAL_Driver/Src/stm32l1xx_hal.c **** {
 142:Drivers/STM32L1xx_HAL_Driver/Src/stm32l1xx_hal.c ****   HAL_StatusTypeDef  status = HAL_OK;
 143:Drivers/STM32L1xx_HAL_Driver/Src/stm32l1xx_hal.c **** 
 144:Drivers/STM32L1xx_HAL_Driver/Src/stm32l1xx_hal.c ****   /* Configure Flash prefetch */
 145:Drivers/STM32L1xx_HAL_Driver/Src/stm32l1xx_hal.c **** #if (PREFETCH_ENABLE != 0)
 146:Drivers/STM32L1xx_HAL_Driver/Src/stm32l1xx_hal.c ****   __HAL_FLASH_PREFETCH_BUFFER_ENABLE();
ARM GAS  /tmp/ccReQ6Ov.s 			page 4


 147:Drivers/STM32L1xx_HAL_Driver/Src/stm32l1xx_hal.c **** #endif /* PREFETCH_ENABLE */
 148:Drivers/STM32L1xx_HAL_Driver/Src/stm32l1xx_hal.c **** 
 149:Drivers/STM32L1xx_HAL_Driver/Src/stm32l1xx_hal.c ****   /* Set Interrupt Group Priority */
 150:Drivers/STM32L1xx_HAL_Driver/Src/stm32l1xx_hal.c ****   HAL_NVIC_SetPriorityGrouping(NVIC_PRIORITYGROUP_4);
 151:Drivers/STM32L1xx_HAL_Driver/Src/stm32l1xx_hal.c **** 
 152:Drivers/STM32L1xx_HAL_Driver/Src/stm32l1xx_hal.c ****   /* Use systick as time base source and configure 1ms tick (default clock after Reset is MSI) */
 153:Drivers/STM32L1xx_HAL_Driver/Src/stm32l1xx_hal.c ****   if (HAL_InitTick(TICK_INT_PRIORITY) != HAL_OK)
 154:Drivers/STM32L1xx_HAL_Driver/Src/stm32l1xx_hal.c ****   {
 155:Drivers/STM32L1xx_HAL_Driver/Src/stm32l1xx_hal.c ****     status = HAL_ERROR;
 156:Drivers/STM32L1xx_HAL_Driver/Src/stm32l1xx_hal.c ****   }
 157:Drivers/STM32L1xx_HAL_Driver/Src/stm32l1xx_hal.c ****   else
 158:Drivers/STM32L1xx_HAL_Driver/Src/stm32l1xx_hal.c ****   {
 159:Drivers/STM32L1xx_HAL_Driver/Src/stm32l1xx_hal.c ****     /* Init the low level hardware */
 160:Drivers/STM32L1xx_HAL_Driver/Src/stm32l1xx_hal.c ****     HAL_MspInit();
 161:Drivers/STM32L1xx_HAL_Driver/Src/stm32l1xx_hal.c ****   }
 162:Drivers/STM32L1xx_HAL_Driver/Src/stm32l1xx_hal.c **** 
 163:Drivers/STM32L1xx_HAL_Driver/Src/stm32l1xx_hal.c ****   /* Return function status */
 164:Drivers/STM32L1xx_HAL_Driver/Src/stm32l1xx_hal.c ****   return status;
 165:Drivers/STM32L1xx_HAL_Driver/Src/stm32l1xx_hal.c **** }
 166:Drivers/STM32L1xx_HAL_Driver/Src/stm32l1xx_hal.c **** 
 167:Drivers/STM32L1xx_HAL_Driver/Src/stm32l1xx_hal.c **** /**
 168:Drivers/STM32L1xx_HAL_Driver/Src/stm32l1xx_hal.c ****   * @brief This function de-initializes common part of the HAL and stops the source
 169:Drivers/STM32L1xx_HAL_Driver/Src/stm32l1xx_hal.c ****   *        of time base.
 170:Drivers/STM32L1xx_HAL_Driver/Src/stm32l1xx_hal.c ****   * @note This function is optional.
 171:Drivers/STM32L1xx_HAL_Driver/Src/stm32l1xx_hal.c ****   * @retval HAL status
 172:Drivers/STM32L1xx_HAL_Driver/Src/stm32l1xx_hal.c ****   */
 173:Drivers/STM32L1xx_HAL_Driver/Src/stm32l1xx_hal.c **** HAL_StatusTypeDef HAL_DeInit(void)
 174:Drivers/STM32L1xx_HAL_Driver/Src/stm32l1xx_hal.c **** {
 175:Drivers/STM32L1xx_HAL_Driver/Src/stm32l1xx_hal.c ****   /* Reset of all peripherals */
 176:Drivers/STM32L1xx_HAL_Driver/Src/stm32l1xx_hal.c ****   __HAL_RCC_APB1_FORCE_RESET();
 177:Drivers/STM32L1xx_HAL_Driver/Src/stm32l1xx_hal.c ****   __HAL_RCC_APB1_RELEASE_RESET();
 178:Drivers/STM32L1xx_HAL_Driver/Src/stm32l1xx_hal.c **** 
 179:Drivers/STM32L1xx_HAL_Driver/Src/stm32l1xx_hal.c ****   __HAL_RCC_APB2_FORCE_RESET();
 180:Drivers/STM32L1xx_HAL_Driver/Src/stm32l1xx_hal.c ****   __HAL_RCC_APB2_RELEASE_RESET();
 181:Drivers/STM32L1xx_HAL_Driver/Src/stm32l1xx_hal.c **** 
 182:Drivers/STM32L1xx_HAL_Driver/Src/stm32l1xx_hal.c ****   __HAL_RCC_AHB_FORCE_RESET();
 183:Drivers/STM32L1xx_HAL_Driver/Src/stm32l1xx_hal.c ****   __HAL_RCC_AHB_RELEASE_RESET();
 184:Drivers/STM32L1xx_HAL_Driver/Src/stm32l1xx_hal.c **** 
 185:Drivers/STM32L1xx_HAL_Driver/Src/stm32l1xx_hal.c ****   /* De-Init the low level hardware */
 186:Drivers/STM32L1xx_HAL_Driver/Src/stm32l1xx_hal.c ****   HAL_MspDeInit();
 187:Drivers/STM32L1xx_HAL_Driver/Src/stm32l1xx_hal.c **** 
 188:Drivers/STM32L1xx_HAL_Driver/Src/stm32l1xx_hal.c ****   /* Return function status */
 189:Drivers/STM32L1xx_HAL_Driver/Src/stm32l1xx_hal.c ****   return HAL_OK;
 190:Drivers/STM32L1xx_HAL_Driver/Src/stm32l1xx_hal.c **** }
 191:Drivers/STM32L1xx_HAL_Driver/Src/stm32l1xx_hal.c **** 
 192:Drivers/STM32L1xx_HAL_Driver/Src/stm32l1xx_hal.c **** /**
 193:Drivers/STM32L1xx_HAL_Driver/Src/stm32l1xx_hal.c ****   * @brief  Initialize the MSP.
 194:Drivers/STM32L1xx_HAL_Driver/Src/stm32l1xx_hal.c ****   * @retval None
 195:Drivers/STM32L1xx_HAL_Driver/Src/stm32l1xx_hal.c ****   */
 196:Drivers/STM32L1xx_HAL_Driver/Src/stm32l1xx_hal.c **** __weak void HAL_MspInit(void)
 197:Drivers/STM32L1xx_HAL_Driver/Src/stm32l1xx_hal.c **** {
  27              		.loc 1 197 1 view -0
  28              		.cfi_startproc
  29              		@ args = 0, pretend = 0, frame = 0
  30              		@ frame_needed = 0, uses_anonymous_args = 0
  31              		@ link register save eliminated.
 198:Drivers/STM32L1xx_HAL_Driver/Src/stm32l1xx_hal.c ****   /* NOTE : This function should not be modified, when the callback is needed,
ARM GAS  /tmp/ccReQ6Ov.s 			page 5


 199:Drivers/STM32L1xx_HAL_Driver/Src/stm32l1xx_hal.c ****             the HAL_MspInit could be implemented in the user file
 200:Drivers/STM32L1xx_HAL_Driver/Src/stm32l1xx_hal.c ****    */
 201:Drivers/STM32L1xx_HAL_Driver/Src/stm32l1xx_hal.c **** }
  32              		.loc 1 201 1 view .LVU1
  33 0000 7047     		bx	lr
  34              		.cfi_endproc
  35              	.LFE74:
  37              		.section	.text.HAL_MspDeInit,"ax",%progbits
  38              		.align	1
  39              		.weak	HAL_MspDeInit
  40              		.syntax unified
  41              		.thumb
  42              		.thumb_func
  44              	HAL_MspDeInit:
  45              	.LFB75:
 202:Drivers/STM32L1xx_HAL_Driver/Src/stm32l1xx_hal.c **** 
 203:Drivers/STM32L1xx_HAL_Driver/Src/stm32l1xx_hal.c **** /**
 204:Drivers/STM32L1xx_HAL_Driver/Src/stm32l1xx_hal.c ****   * @brief  DeInitialize the MSP.
 205:Drivers/STM32L1xx_HAL_Driver/Src/stm32l1xx_hal.c ****   * @retval None
 206:Drivers/STM32L1xx_HAL_Driver/Src/stm32l1xx_hal.c ****   */
 207:Drivers/STM32L1xx_HAL_Driver/Src/stm32l1xx_hal.c **** __weak void HAL_MspDeInit(void)
 208:Drivers/STM32L1xx_HAL_Driver/Src/stm32l1xx_hal.c **** {
  46              		.loc 1 208 1 view -0
  47              		.cfi_startproc
  48              		@ args = 0, pretend = 0, frame = 0
  49              		@ frame_needed = 0, uses_anonymous_args = 0
  50              		@ link register save eliminated.
 209:Drivers/STM32L1xx_HAL_Driver/Src/stm32l1xx_hal.c ****   /* NOTE : This function should not be modified, when the callback is needed,
 210:Drivers/STM32L1xx_HAL_Driver/Src/stm32l1xx_hal.c ****             the HAL_MspDeInit could be implemented in the user file
 211:Drivers/STM32L1xx_HAL_Driver/Src/stm32l1xx_hal.c ****    */
 212:Drivers/STM32L1xx_HAL_Driver/Src/stm32l1xx_hal.c **** }
  51              		.loc 1 212 1 view .LVU3
  52 0000 7047     		bx	lr
  53              		.cfi_endproc
  54              	.LFE75:
  56              		.section	.text.HAL_DeInit,"ax",%progbits
  57              		.align	1
  58              		.global	HAL_DeInit
  59              		.syntax unified
  60              		.thumb
  61              		.thumb_func
  63              	HAL_DeInit:
  64              	.LFB73:
 174:Drivers/STM32L1xx_HAL_Driver/Src/stm32l1xx_hal.c ****   /* Reset of all peripherals */
  65              		.loc 1 174 1 view -0
  66              		.cfi_startproc
  67              		@ args = 0, pretend = 0, frame = 0
  68              		@ frame_needed = 0, uses_anonymous_args = 0
  69 0000 10B5     		push	{r4, lr}
  70              	.LCFI0:
  71              		.cfi_def_cfa_offset 8
  72              		.cfi_offset 4, -8
  73              		.cfi_offset 14, -4
 176:Drivers/STM32L1xx_HAL_Driver/Src/stm32l1xx_hal.c ****   __HAL_RCC_APB1_RELEASE_RESET();
  74              		.loc 1 176 3 view .LVU5
  75 0002 074B     		ldr	r3, .L5
  76 0004 4FF0FF32 		mov	r2, #-1
ARM GAS  /tmp/ccReQ6Ov.s 			page 6


  77 0008 9A61     		str	r2, [r3, #24]
 177:Drivers/STM32L1xx_HAL_Driver/Src/stm32l1xx_hal.c **** 
  78              		.loc 1 177 3 view .LVU6
  79 000a 0024     		movs	r4, #0
  80 000c 9C61     		str	r4, [r3, #24]
 179:Drivers/STM32L1xx_HAL_Driver/Src/stm32l1xx_hal.c ****   __HAL_RCC_APB2_RELEASE_RESET();
  81              		.loc 1 179 3 view .LVU7
  82 000e 5A61     		str	r2, [r3, #20]
 180:Drivers/STM32L1xx_HAL_Driver/Src/stm32l1xx_hal.c **** 
  83              		.loc 1 180 3 view .LVU8
  84 0010 5C61     		str	r4, [r3, #20]
 182:Drivers/STM32L1xx_HAL_Driver/Src/stm32l1xx_hal.c ****   __HAL_RCC_AHB_RELEASE_RESET();
  85              		.loc 1 182 3 view .LVU9
  86 0012 1A61     		str	r2, [r3, #16]
 183:Drivers/STM32L1xx_HAL_Driver/Src/stm32l1xx_hal.c **** 
  87              		.loc 1 183 3 view .LVU10
  88 0014 1C61     		str	r4, [r3, #16]
 186:Drivers/STM32L1xx_HAL_Driver/Src/stm32l1xx_hal.c **** 
  89              		.loc 1 186 3 view .LVU11
  90 0016 FFF7FEFF 		bl	HAL_MspDeInit
  91              	.LVL0:
 189:Drivers/STM32L1xx_HAL_Driver/Src/stm32l1xx_hal.c **** }
  92              		.loc 1 189 3 view .LVU12
 190:Drivers/STM32L1xx_HAL_Driver/Src/stm32l1xx_hal.c **** 
  93              		.loc 1 190 1 is_stmt 0 view .LVU13
  94 001a 2046     		mov	r0, r4
  95 001c 10BD     		pop	{r4, pc}
  96              	.L6:
  97 001e 00BF     		.align	2
  98              	.L5:
  99 0020 00380240 		.word	1073887232
 100              		.cfi_endproc
 101              	.LFE73:
 103              		.section	.text.HAL_InitTick,"ax",%progbits
 104              		.align	1
 105              		.weak	HAL_InitTick
 106              		.syntax unified
 107              		.thumb
 108              		.thumb_func
 110              	HAL_InitTick:
 111              	.LVL1:
 112              	.LFB76:
 213:Drivers/STM32L1xx_HAL_Driver/Src/stm32l1xx_hal.c **** 
 214:Drivers/STM32L1xx_HAL_Driver/Src/stm32l1xx_hal.c **** /**
 215:Drivers/STM32L1xx_HAL_Driver/Src/stm32l1xx_hal.c ****   * @brief This function configures the source of the time base:
 216:Drivers/STM32L1xx_HAL_Driver/Src/stm32l1xx_hal.c ****   *        The time source is configured to have 1ms time base with a dedicated
 217:Drivers/STM32L1xx_HAL_Driver/Src/stm32l1xx_hal.c ****   *        Tick interrupt priority.
 218:Drivers/STM32L1xx_HAL_Driver/Src/stm32l1xx_hal.c ****   * @note This function is called  automatically at the beginning of program after
 219:Drivers/STM32L1xx_HAL_Driver/Src/stm32l1xx_hal.c ****   *       reset by HAL_Init() or at any time when clock is reconfigured  by HAL_RCC_ClockConfig().
 220:Drivers/STM32L1xx_HAL_Driver/Src/stm32l1xx_hal.c ****   * @note In the default implementation, SysTick timer is the source of time base.
 221:Drivers/STM32L1xx_HAL_Driver/Src/stm32l1xx_hal.c ****   *       It is used to generate interrupts at regular time intervals.
 222:Drivers/STM32L1xx_HAL_Driver/Src/stm32l1xx_hal.c ****   *       Care must be taken if HAL_Delay() is called from a peripheral ISR process,
 223:Drivers/STM32L1xx_HAL_Driver/Src/stm32l1xx_hal.c ****   *       The SysTick interrupt must have higher priority (numerically lower)
 224:Drivers/STM32L1xx_HAL_Driver/Src/stm32l1xx_hal.c ****   *       than the peripheral interrupt. Otherwise the caller ISR process will be blocked.
 225:Drivers/STM32L1xx_HAL_Driver/Src/stm32l1xx_hal.c ****   *       The function is declared as __weak  to be overwritten  in case of other
 226:Drivers/STM32L1xx_HAL_Driver/Src/stm32l1xx_hal.c ****   *       implementation  in user file.
 227:Drivers/STM32L1xx_HAL_Driver/Src/stm32l1xx_hal.c ****   * @param TickPriority Tick interrupt priority.
ARM GAS  /tmp/ccReQ6Ov.s 			page 7


 228:Drivers/STM32L1xx_HAL_Driver/Src/stm32l1xx_hal.c ****   * @retval HAL status
 229:Drivers/STM32L1xx_HAL_Driver/Src/stm32l1xx_hal.c ****   */
 230:Drivers/STM32L1xx_HAL_Driver/Src/stm32l1xx_hal.c **** __weak HAL_StatusTypeDef HAL_InitTick(uint32_t TickPriority)
 231:Drivers/STM32L1xx_HAL_Driver/Src/stm32l1xx_hal.c **** {
 113              		.loc 1 231 1 is_stmt 1 view -0
 114              		.cfi_startproc
 115              		@ args = 0, pretend = 0, frame = 0
 116              		@ frame_needed = 0, uses_anonymous_args = 0
 232:Drivers/STM32L1xx_HAL_Driver/Src/stm32l1xx_hal.c ****   HAL_StatusTypeDef  status = HAL_OK;
 117              		.loc 1 232 3 view .LVU15
 233:Drivers/STM32L1xx_HAL_Driver/Src/stm32l1xx_hal.c **** 
 234:Drivers/STM32L1xx_HAL_Driver/Src/stm32l1xx_hal.c ****   if (uwTickFreq != 0U)
 118              		.loc 1 234 3 view .LVU16
 119              		.loc 1 234 18 is_stmt 0 view .LVU17
 120 0000 104B     		ldr	r3, .L18
 121 0002 1B68     		ldr	r3, [r3]
 122              		.loc 1 234 6 view .LVU18
 123 0004 0BB9     		cbnz	r3, .L16
 235:Drivers/STM32L1xx_HAL_Driver/Src/stm32l1xx_hal.c ****   {
 236:Drivers/STM32L1xx_HAL_Driver/Src/stm32l1xx_hal.c ****     /*Configure the SysTick to have interrupt in 1ms time basis*/
 237:Drivers/STM32L1xx_HAL_Driver/Src/stm32l1xx_hal.c ****     if (HAL_SYSTICK_Config(SystemCoreClock / (1000U / uwTickFreq)) == 0U)
 238:Drivers/STM32L1xx_HAL_Driver/Src/stm32l1xx_hal.c ****     {
 239:Drivers/STM32L1xx_HAL_Driver/Src/stm32l1xx_hal.c ****       /* Configure the SysTick IRQ priority */
 240:Drivers/STM32L1xx_HAL_Driver/Src/stm32l1xx_hal.c ****       if (TickPriority < (1UL << __NVIC_PRIO_BITS))
 241:Drivers/STM32L1xx_HAL_Driver/Src/stm32l1xx_hal.c ****       {
 242:Drivers/STM32L1xx_HAL_Driver/Src/stm32l1xx_hal.c ****         HAL_NVIC_SetPriority(SysTick_IRQn, TickPriority, 0U);
 243:Drivers/STM32L1xx_HAL_Driver/Src/stm32l1xx_hal.c ****         uwTickPrio = TickPriority;
 244:Drivers/STM32L1xx_HAL_Driver/Src/stm32l1xx_hal.c ****       }
 245:Drivers/STM32L1xx_HAL_Driver/Src/stm32l1xx_hal.c ****       else
 246:Drivers/STM32L1xx_HAL_Driver/Src/stm32l1xx_hal.c ****       {
 247:Drivers/STM32L1xx_HAL_Driver/Src/stm32l1xx_hal.c ****         status = HAL_ERROR;
 248:Drivers/STM32L1xx_HAL_Driver/Src/stm32l1xx_hal.c ****       }
 249:Drivers/STM32L1xx_HAL_Driver/Src/stm32l1xx_hal.c ****     }
 250:Drivers/STM32L1xx_HAL_Driver/Src/stm32l1xx_hal.c ****     else
 251:Drivers/STM32L1xx_HAL_Driver/Src/stm32l1xx_hal.c ****     {
 252:Drivers/STM32L1xx_HAL_Driver/Src/stm32l1xx_hal.c ****       status = HAL_ERROR;
 253:Drivers/STM32L1xx_HAL_Driver/Src/stm32l1xx_hal.c ****     }
 254:Drivers/STM32L1xx_HAL_Driver/Src/stm32l1xx_hal.c ****   }
 255:Drivers/STM32L1xx_HAL_Driver/Src/stm32l1xx_hal.c ****   else
 256:Drivers/STM32L1xx_HAL_Driver/Src/stm32l1xx_hal.c ****   {
 257:Drivers/STM32L1xx_HAL_Driver/Src/stm32l1xx_hal.c ****     status = HAL_ERROR;
 124              		.loc 1 257 12 view .LVU19
 125 0006 0120     		movs	r0, #1
 126              	.LVL2:
 258:Drivers/STM32L1xx_HAL_Driver/Src/stm32l1xx_hal.c ****   }
 259:Drivers/STM32L1xx_HAL_Driver/Src/stm32l1xx_hal.c **** 
 260:Drivers/STM32L1xx_HAL_Driver/Src/stm32l1xx_hal.c ****   /* Return function status */
 261:Drivers/STM32L1xx_HAL_Driver/Src/stm32l1xx_hal.c ****   return status;
 127              		.loc 1 261 3 is_stmt 1 view .LVU20
 262:Drivers/STM32L1xx_HAL_Driver/Src/stm32l1xx_hal.c **** }
 128              		.loc 1 262 1 is_stmt 0 view .LVU21
 129 0008 7047     		bx	lr
 130              	.LVL3:
 131              	.L16:
 231:Drivers/STM32L1xx_HAL_Driver/Src/stm32l1xx_hal.c ****   HAL_StatusTypeDef  status = HAL_OK;
 132              		.loc 1 231 1 view .LVU22
 133 000a 10B5     		push	{r4, lr}
ARM GAS  /tmp/ccReQ6Ov.s 			page 8


 134              	.LCFI1:
 135              		.cfi_def_cfa_offset 8
 136              		.cfi_offset 4, -8
 137              		.cfi_offset 14, -4
 138 000c 0446     		mov	r4, r0
 237:Drivers/STM32L1xx_HAL_Driver/Src/stm32l1xx_hal.c ****     {
 139              		.loc 1 237 5 is_stmt 1 view .LVU23
 237:Drivers/STM32L1xx_HAL_Driver/Src/stm32l1xx_hal.c ****     {
 140              		.loc 1 237 53 is_stmt 0 view .LVU24
 141 000e 4FF47A70 		mov	r0, #1000
 142              	.LVL4:
 237:Drivers/STM32L1xx_HAL_Driver/Src/stm32l1xx_hal.c ****     {
 143              		.loc 1 237 53 view .LVU25
 144 0012 B0FBF3F3 		udiv	r3, r0, r3
 237:Drivers/STM32L1xx_HAL_Driver/Src/stm32l1xx_hal.c ****     {
 145              		.loc 1 237 9 view .LVU26
 146 0016 0C4A     		ldr	r2, .L18+4
 147 0018 1068     		ldr	r0, [r2]
 148 001a B0FBF3F0 		udiv	r0, r0, r3
 149 001e FFF7FEFF 		bl	HAL_SYSTICK_Config
 150              	.LVL5:
 237:Drivers/STM32L1xx_HAL_Driver/Src/stm32l1xx_hal.c ****     {
 151              		.loc 1 237 8 view .LVU27
 152 0022 68B9     		cbnz	r0, .L10
 240:Drivers/STM32L1xx_HAL_Driver/Src/stm32l1xx_hal.c ****       {
 153              		.loc 1 240 7 is_stmt 1 view .LVU28
 240:Drivers/STM32L1xx_HAL_Driver/Src/stm32l1xx_hal.c ****       {
 154              		.loc 1 240 10 is_stmt 0 view .LVU29
 155 0024 0F2C     		cmp	r4, #15
 156 0026 01D9     		bls	.L17
 247:Drivers/STM32L1xx_HAL_Driver/Src/stm32l1xx_hal.c ****       }
 157              		.loc 1 247 16 view .LVU30
 158 0028 0120     		movs	r0, #1
 159 002a 0AE0     		b	.L8
 160              	.L17:
 242:Drivers/STM32L1xx_HAL_Driver/Src/stm32l1xx_hal.c ****         uwTickPrio = TickPriority;
 161              		.loc 1 242 9 is_stmt 1 view .LVU31
 162 002c 0022     		movs	r2, #0
 163 002e 2146     		mov	r1, r4
 164 0030 4FF0FF30 		mov	r0, #-1
 165 0034 FFF7FEFF 		bl	HAL_NVIC_SetPriority
 166              	.LVL6:
 243:Drivers/STM32L1xx_HAL_Driver/Src/stm32l1xx_hal.c ****       }
 167              		.loc 1 243 9 view .LVU32
 243:Drivers/STM32L1xx_HAL_Driver/Src/stm32l1xx_hal.c ****       }
 168              		.loc 1 243 20 is_stmt 0 view .LVU33
 169 0038 044B     		ldr	r3, .L18+8
 170 003a 1C60     		str	r4, [r3]
 232:Drivers/STM32L1xx_HAL_Driver/Src/stm32l1xx_hal.c **** 
 171              		.loc 1 232 22 view .LVU34
 172 003c 0020     		movs	r0, #0
 173 003e 00E0     		b	.L8
 174              	.L10:
 252:Drivers/STM32L1xx_HAL_Driver/Src/stm32l1xx_hal.c ****     }
 175              		.loc 1 252 14 view .LVU35
 176 0040 0120     		movs	r0, #1
 177              	.L8:
ARM GAS  /tmp/ccReQ6Ov.s 			page 9


 178              	.LVL7:
 261:Drivers/STM32L1xx_HAL_Driver/Src/stm32l1xx_hal.c **** }
 179              		.loc 1 261 3 is_stmt 1 view .LVU36
 180              		.loc 1 262 1 is_stmt 0 view .LVU37
 181 0042 10BD     		pop	{r4, pc}
 182              	.LVL8:
 183              	.L19:
 184              		.loc 1 262 1 view .LVU38
 185              		.align	2
 186              	.L18:
 187 0044 00000000 		.word	.LANCHOR0
 188 0048 00000000 		.word	SystemCoreClock
 189 004c 00000000 		.word	.LANCHOR1
 190              		.cfi_endproc
 191              	.LFE76:
 193              		.section	.text.HAL_Init,"ax",%progbits
 194              		.align	1
 195              		.global	HAL_Init
 196              		.syntax unified
 197              		.thumb
 198              		.thumb_func
 200              	HAL_Init:
 201              	.LFB72:
 141:Drivers/STM32L1xx_HAL_Driver/Src/stm32l1xx_hal.c ****   HAL_StatusTypeDef  status = HAL_OK;
 202              		.loc 1 141 1 is_stmt 1 view -0
 203              		.cfi_startproc
 204              		@ args = 0, pretend = 0, frame = 0
 205              		@ frame_needed = 0, uses_anonymous_args = 0
 206 0000 10B5     		push	{r4, lr}
 207              	.LCFI2:
 208              		.cfi_def_cfa_offset 8
 209              		.cfi_offset 4, -8
 210              		.cfi_offset 14, -4
 142:Drivers/STM32L1xx_HAL_Driver/Src/stm32l1xx_hal.c **** 
 211              		.loc 1 142 3 view .LVU40
 212              	.LVL9:
 150:Drivers/STM32L1xx_HAL_Driver/Src/stm32l1xx_hal.c **** 
 213              		.loc 1 150 3 view .LVU41
 214 0002 0320     		movs	r0, #3
 215 0004 FFF7FEFF 		bl	HAL_NVIC_SetPriorityGrouping
 216              	.LVL10:
 153:Drivers/STM32L1xx_HAL_Driver/Src/stm32l1xx_hal.c ****   {
 217              		.loc 1 153 3 view .LVU42
 153:Drivers/STM32L1xx_HAL_Driver/Src/stm32l1xx_hal.c ****   {
 218              		.loc 1 153 7 is_stmt 0 view .LVU43
 219 0008 0F20     		movs	r0, #15
 220 000a FFF7FEFF 		bl	HAL_InitTick
 221              	.LVL11:
 153:Drivers/STM32L1xx_HAL_Driver/Src/stm32l1xx_hal.c ****   {
 222              		.loc 1 153 6 view .LVU44
 223 000e 10B1     		cbz	r0, .L24
 155:Drivers/STM32L1xx_HAL_Driver/Src/stm32l1xx_hal.c ****   }
 224              		.loc 1 155 12 view .LVU45
 225 0010 0124     		movs	r4, #1
 226              	.L21:
 227              	.LVL12:
 164:Drivers/STM32L1xx_HAL_Driver/Src/stm32l1xx_hal.c **** }
ARM GAS  /tmp/ccReQ6Ov.s 			page 10


 228              		.loc 1 164 3 is_stmt 1 view .LVU46
 165:Drivers/STM32L1xx_HAL_Driver/Src/stm32l1xx_hal.c **** 
 229              		.loc 1 165 1 is_stmt 0 view .LVU47
 230 0012 2046     		mov	r0, r4
 231 0014 10BD     		pop	{r4, pc}
 232              	.LVL13:
 233              	.L24:
 165:Drivers/STM32L1xx_HAL_Driver/Src/stm32l1xx_hal.c **** 
 234              		.loc 1 165 1 view .LVU48
 235 0016 0446     		mov	r4, r0
 160:Drivers/STM32L1xx_HAL_Driver/Src/stm32l1xx_hal.c ****   }
 236              		.loc 1 160 5 is_stmt 1 view .LVU49
 237 0018 FFF7FEFF 		bl	HAL_MspInit
 238              	.LVL14:
 239 001c F9E7     		b	.L21
 240              		.cfi_endproc
 241              	.LFE72:
 243              		.section	.text.HAL_IncTick,"ax",%progbits
 244              		.align	1
 245              		.weak	HAL_IncTick
 246              		.syntax unified
 247              		.thumb
 248              		.thumb_func
 250              	HAL_IncTick:
 251              	.LFB77:
 263:Drivers/STM32L1xx_HAL_Driver/Src/stm32l1xx_hal.c **** 
 264:Drivers/STM32L1xx_HAL_Driver/Src/stm32l1xx_hal.c **** /**
 265:Drivers/STM32L1xx_HAL_Driver/Src/stm32l1xx_hal.c ****   * @}
 266:Drivers/STM32L1xx_HAL_Driver/Src/stm32l1xx_hal.c ****   */
 267:Drivers/STM32L1xx_HAL_Driver/Src/stm32l1xx_hal.c **** 
 268:Drivers/STM32L1xx_HAL_Driver/Src/stm32l1xx_hal.c **** /** @defgroup HAL_Exported_Functions_Group2 HAL Control functions
 269:Drivers/STM32L1xx_HAL_Driver/Src/stm32l1xx_hal.c ****  *  @brief    HAL Control functions
 270:Drivers/STM32L1xx_HAL_Driver/Src/stm32l1xx_hal.c ****  *
 271:Drivers/STM32L1xx_HAL_Driver/Src/stm32l1xx_hal.c **** @verbatim
 272:Drivers/STM32L1xx_HAL_Driver/Src/stm32l1xx_hal.c ****  ===============================================================================
 273:Drivers/STM32L1xx_HAL_Driver/Src/stm32l1xx_hal.c ****                       ##### HAL Control functions #####
 274:Drivers/STM32L1xx_HAL_Driver/Src/stm32l1xx_hal.c ****  ===============================================================================
 275:Drivers/STM32L1xx_HAL_Driver/Src/stm32l1xx_hal.c ****     [..]  This section provides functions allowing to:
 276:Drivers/STM32L1xx_HAL_Driver/Src/stm32l1xx_hal.c ****       (+) Provide a tick value in millisecond
 277:Drivers/STM32L1xx_HAL_Driver/Src/stm32l1xx_hal.c ****       (+) Provide a blocking delay in millisecond
 278:Drivers/STM32L1xx_HAL_Driver/Src/stm32l1xx_hal.c ****       (+) Suspend the time base source interrupt
 279:Drivers/STM32L1xx_HAL_Driver/Src/stm32l1xx_hal.c ****       (+) Resume the time base source interrupt
 280:Drivers/STM32L1xx_HAL_Driver/Src/stm32l1xx_hal.c ****       (+) Get the HAL API driver version
 281:Drivers/STM32L1xx_HAL_Driver/Src/stm32l1xx_hal.c ****       (+) Get the device identifier
 282:Drivers/STM32L1xx_HAL_Driver/Src/stm32l1xx_hal.c ****       (+) Get the device revision identifier
 283:Drivers/STM32L1xx_HAL_Driver/Src/stm32l1xx_hal.c ****       (+) Get the unique device identifier
 284:Drivers/STM32L1xx_HAL_Driver/Src/stm32l1xx_hal.c **** 
 285:Drivers/STM32L1xx_HAL_Driver/Src/stm32l1xx_hal.c **** @endverbatim
 286:Drivers/STM32L1xx_HAL_Driver/Src/stm32l1xx_hal.c ****   * @{
 287:Drivers/STM32L1xx_HAL_Driver/Src/stm32l1xx_hal.c ****   */
 288:Drivers/STM32L1xx_HAL_Driver/Src/stm32l1xx_hal.c **** 
 289:Drivers/STM32L1xx_HAL_Driver/Src/stm32l1xx_hal.c **** /**
 290:Drivers/STM32L1xx_HAL_Driver/Src/stm32l1xx_hal.c ****   * @brief This function is called to increment a global variable "uwTick"
 291:Drivers/STM32L1xx_HAL_Driver/Src/stm32l1xx_hal.c ****   *        used as application time base.
 292:Drivers/STM32L1xx_HAL_Driver/Src/stm32l1xx_hal.c ****   * @note In the default implementation, this variable is incremented each 1ms
 293:Drivers/STM32L1xx_HAL_Driver/Src/stm32l1xx_hal.c ****   *       in SysTick ISR.
 294:Drivers/STM32L1xx_HAL_Driver/Src/stm32l1xx_hal.c ****  * @note This function is declared as __weak to be overwritten in case of other
ARM GAS  /tmp/ccReQ6Ov.s 			page 11


 295:Drivers/STM32L1xx_HAL_Driver/Src/stm32l1xx_hal.c ****   *      implementations in user file.
 296:Drivers/STM32L1xx_HAL_Driver/Src/stm32l1xx_hal.c ****   * @retval None
 297:Drivers/STM32L1xx_HAL_Driver/Src/stm32l1xx_hal.c ****   */
 298:Drivers/STM32L1xx_HAL_Driver/Src/stm32l1xx_hal.c **** __weak void HAL_IncTick(void)
 299:Drivers/STM32L1xx_HAL_Driver/Src/stm32l1xx_hal.c **** {
 252              		.loc 1 299 1 view -0
 253              		.cfi_startproc
 254              		@ args = 0, pretend = 0, frame = 0
 255              		@ frame_needed = 0, uses_anonymous_args = 0
 256              		@ link register save eliminated.
 300:Drivers/STM32L1xx_HAL_Driver/Src/stm32l1xx_hal.c ****   uwTick += uwTickFreq;
 257              		.loc 1 300 3 view .LVU51
 258              		.loc 1 300 10 is_stmt 0 view .LVU52
 259 0000 034A     		ldr	r2, .L26
 260 0002 1368     		ldr	r3, [r2]
 261 0004 0349     		ldr	r1, .L26+4
 262 0006 0968     		ldr	r1, [r1]
 263 0008 0B44     		add	r3, r3, r1
 264 000a 1360     		str	r3, [r2]
 301:Drivers/STM32L1xx_HAL_Driver/Src/stm32l1xx_hal.c **** }
 265              		.loc 1 301 1 view .LVU53
 266 000c 7047     		bx	lr
 267              	.L27:
 268 000e 00BF     		.align	2
 269              	.L26:
 270 0010 00000000 		.word	.LANCHOR2
 271 0014 00000000 		.word	.LANCHOR0
 272              		.cfi_endproc
 273              	.LFE77:
 275              		.section	.text.HAL_GetTick,"ax",%progbits
 276              		.align	1
 277              		.weak	HAL_GetTick
 278              		.syntax unified
 279              		.thumb
 280              		.thumb_func
 282              	HAL_GetTick:
 283              	.LFB78:
 302:Drivers/STM32L1xx_HAL_Driver/Src/stm32l1xx_hal.c **** 
 303:Drivers/STM32L1xx_HAL_Driver/Src/stm32l1xx_hal.c **** /**
 304:Drivers/STM32L1xx_HAL_Driver/Src/stm32l1xx_hal.c ****   * @brief Provide a tick value in millisecond.
 305:Drivers/STM32L1xx_HAL_Driver/Src/stm32l1xx_hal.c ****   * @note This function is declared as __weak to be overwritten in case of other
 306:Drivers/STM32L1xx_HAL_Driver/Src/stm32l1xx_hal.c ****   *       implementations in user file.
 307:Drivers/STM32L1xx_HAL_Driver/Src/stm32l1xx_hal.c ****   * @retval tick value
 308:Drivers/STM32L1xx_HAL_Driver/Src/stm32l1xx_hal.c ****   */
 309:Drivers/STM32L1xx_HAL_Driver/Src/stm32l1xx_hal.c **** __weak uint32_t HAL_GetTick(void)
 310:Drivers/STM32L1xx_HAL_Driver/Src/stm32l1xx_hal.c **** {
 284              		.loc 1 310 1 is_stmt 1 view -0
 285              		.cfi_startproc
 286              		@ args = 0, pretend = 0, frame = 0
 287              		@ frame_needed = 0, uses_anonymous_args = 0
 288              		@ link register save eliminated.
 311:Drivers/STM32L1xx_HAL_Driver/Src/stm32l1xx_hal.c ****   return uwTick;
 289              		.loc 1 311 3 view .LVU55
 290              		.loc 1 311 10 is_stmt 0 view .LVU56
 291 0000 014B     		ldr	r3, .L29
 292 0002 1868     		ldr	r0, [r3]
 312:Drivers/STM32L1xx_HAL_Driver/Src/stm32l1xx_hal.c **** }
ARM GAS  /tmp/ccReQ6Ov.s 			page 12


 293              		.loc 1 312 1 view .LVU57
 294 0004 7047     		bx	lr
 295              	.L30:
 296 0006 00BF     		.align	2
 297              	.L29:
 298 0008 00000000 		.word	.LANCHOR2
 299              		.cfi_endproc
 300              	.LFE78:
 302              		.section	.text.HAL_GetTickPrio,"ax",%progbits
 303              		.align	1
 304              		.global	HAL_GetTickPrio
 305              		.syntax unified
 306              		.thumb
 307              		.thumb_func
 309              	HAL_GetTickPrio:
 310              	.LFB79:
 313:Drivers/STM32L1xx_HAL_Driver/Src/stm32l1xx_hal.c **** 
 314:Drivers/STM32L1xx_HAL_Driver/Src/stm32l1xx_hal.c **** /**
 315:Drivers/STM32L1xx_HAL_Driver/Src/stm32l1xx_hal.c ****   * @brief This function returns a tick priority.
 316:Drivers/STM32L1xx_HAL_Driver/Src/stm32l1xx_hal.c ****   * @retval tick priority
 317:Drivers/STM32L1xx_HAL_Driver/Src/stm32l1xx_hal.c ****   */
 318:Drivers/STM32L1xx_HAL_Driver/Src/stm32l1xx_hal.c **** uint32_t HAL_GetTickPrio(void)
 319:Drivers/STM32L1xx_HAL_Driver/Src/stm32l1xx_hal.c **** {
 311              		.loc 1 319 1 is_stmt 1 view -0
 312              		.cfi_startproc
 313              		@ args = 0, pretend = 0, frame = 0
 314              		@ frame_needed = 0, uses_anonymous_args = 0
 315              		@ link register save eliminated.
 320:Drivers/STM32L1xx_HAL_Driver/Src/stm32l1xx_hal.c ****   return uwTickPrio;
 316              		.loc 1 320 3 view .LVU59
 321:Drivers/STM32L1xx_HAL_Driver/Src/stm32l1xx_hal.c **** }
 317              		.loc 1 321 1 is_stmt 0 view .LVU60
 318 0000 014B     		ldr	r3, .L32
 319 0002 1868     		ldr	r0, [r3]
 320 0004 7047     		bx	lr
 321              	.L33:
 322 0006 00BF     		.align	2
 323              	.L32:
 324 0008 00000000 		.word	.LANCHOR1
 325              		.cfi_endproc
 326              	.LFE79:
 328              		.section	.text.HAL_SetTickFreq,"ax",%progbits
 329              		.align	1
 330              		.global	HAL_SetTickFreq
 331              		.syntax unified
 332              		.thumb
 333              		.thumb_func
 335              	HAL_SetTickFreq:
 336              	.LVL15:
 337              	.LFB80:
 322:Drivers/STM32L1xx_HAL_Driver/Src/stm32l1xx_hal.c **** 
 323:Drivers/STM32L1xx_HAL_Driver/Src/stm32l1xx_hal.c **** /**
 324:Drivers/STM32L1xx_HAL_Driver/Src/stm32l1xx_hal.c ****   * @brief Set new tick Freq.
 325:Drivers/STM32L1xx_HAL_Driver/Src/stm32l1xx_hal.c ****   * @param Freq tick frequency
 326:Drivers/STM32L1xx_HAL_Driver/Src/stm32l1xx_hal.c ****   * @retval HAL status
 327:Drivers/STM32L1xx_HAL_Driver/Src/stm32l1xx_hal.c ****   */
 328:Drivers/STM32L1xx_HAL_Driver/Src/stm32l1xx_hal.c **** HAL_StatusTypeDef HAL_SetTickFreq(uint32_t Freq)
ARM GAS  /tmp/ccReQ6Ov.s 			page 13


 329:Drivers/STM32L1xx_HAL_Driver/Src/stm32l1xx_hal.c **** {
 338              		.loc 1 329 1 is_stmt 1 view -0
 339              		.cfi_startproc
 340              		@ args = 0, pretend = 0, frame = 0
 341              		@ frame_needed = 0, uses_anonymous_args = 0
 342              		.loc 1 329 1 is_stmt 0 view .LVU62
 343 0000 10B5     		push	{r4, lr}
 344              	.LCFI3:
 345              		.cfi_def_cfa_offset 8
 346              		.cfi_offset 4, -8
 347              		.cfi_offset 14, -4
 330:Drivers/STM32L1xx_HAL_Driver/Src/stm32l1xx_hal.c ****   HAL_StatusTypeDef status  = HAL_OK;
 348              		.loc 1 330 3 is_stmt 1 view .LVU63
 349              	.LVL16:
 331:Drivers/STM32L1xx_HAL_Driver/Src/stm32l1xx_hal.c ****   uint32_t prevTickFreq;
 350              		.loc 1 331 3 view .LVU64
 332:Drivers/STM32L1xx_HAL_Driver/Src/stm32l1xx_hal.c **** 
 333:Drivers/STM32L1xx_HAL_Driver/Src/stm32l1xx_hal.c ****   assert_param(IS_TICKFREQ(Freq));
 351              		.loc 1 333 3 view .LVU65
 334:Drivers/STM32L1xx_HAL_Driver/Src/stm32l1xx_hal.c **** 
 335:Drivers/STM32L1xx_HAL_Driver/Src/stm32l1xx_hal.c ****   if (uwTickFreq != Freq)
 352              		.loc 1 335 3 view .LVU66
 353              		.loc 1 335 18 is_stmt 0 view .LVU67
 354 0002 084B     		ldr	r3, .L39
 355 0004 1C68     		ldr	r4, [r3]
 356              		.loc 1 335 6 view .LVU68
 357 0006 8442     		cmp	r4, r0
 358 0008 01D1     		bne	.L38
 330:Drivers/STM32L1xx_HAL_Driver/Src/stm32l1xx_hal.c ****   uint32_t prevTickFreq;
 359              		.loc 1 330 21 view .LVU69
 360 000a 0020     		movs	r0, #0
 361              	.LVL17:
 362              	.L35:
 336:Drivers/STM32L1xx_HAL_Driver/Src/stm32l1xx_hal.c ****   {
 337:Drivers/STM32L1xx_HAL_Driver/Src/stm32l1xx_hal.c ****     /* Back up uwTickFreq frequency */
 338:Drivers/STM32L1xx_HAL_Driver/Src/stm32l1xx_hal.c ****     prevTickFreq = uwTickFreq;
 339:Drivers/STM32L1xx_HAL_Driver/Src/stm32l1xx_hal.c **** 
 340:Drivers/STM32L1xx_HAL_Driver/Src/stm32l1xx_hal.c ****     /* Update uwTickFreq global variable used by HAL_InitTick() */
 341:Drivers/STM32L1xx_HAL_Driver/Src/stm32l1xx_hal.c ****     uwTickFreq = Freq;
 342:Drivers/STM32L1xx_HAL_Driver/Src/stm32l1xx_hal.c **** 
 343:Drivers/STM32L1xx_HAL_Driver/Src/stm32l1xx_hal.c ****    /* Apply the new tick Freq  */
 344:Drivers/STM32L1xx_HAL_Driver/Src/stm32l1xx_hal.c ****     status = HAL_InitTick(uwTickPrio);
 345:Drivers/STM32L1xx_HAL_Driver/Src/stm32l1xx_hal.c **** 
 346:Drivers/STM32L1xx_HAL_Driver/Src/stm32l1xx_hal.c ****     if (status != HAL_OK)
 347:Drivers/STM32L1xx_HAL_Driver/Src/stm32l1xx_hal.c ****     {
 348:Drivers/STM32L1xx_HAL_Driver/Src/stm32l1xx_hal.c ****       /* Restore previous tick frequency */
 349:Drivers/STM32L1xx_HAL_Driver/Src/stm32l1xx_hal.c ****       uwTickFreq = prevTickFreq;
 350:Drivers/STM32L1xx_HAL_Driver/Src/stm32l1xx_hal.c ****     }
 351:Drivers/STM32L1xx_HAL_Driver/Src/stm32l1xx_hal.c ****   }
 352:Drivers/STM32L1xx_HAL_Driver/Src/stm32l1xx_hal.c **** 
 353:Drivers/STM32L1xx_HAL_Driver/Src/stm32l1xx_hal.c ****   return status;
 363              		.loc 1 353 3 is_stmt 1 view .LVU70
 354:Drivers/STM32L1xx_HAL_Driver/Src/stm32l1xx_hal.c **** }
 364              		.loc 1 354 1 is_stmt 0 view .LVU71
 365 000c 10BD     		pop	{r4, pc}
 366              	.LVL18:
 367              	.L38:
ARM GAS  /tmp/ccReQ6Ov.s 			page 14


 338:Drivers/STM32L1xx_HAL_Driver/Src/stm32l1xx_hal.c **** 
 368              		.loc 1 338 5 is_stmt 1 view .LVU72
 341:Drivers/STM32L1xx_HAL_Driver/Src/stm32l1xx_hal.c **** 
 369              		.loc 1 341 5 view .LVU73
 341:Drivers/STM32L1xx_HAL_Driver/Src/stm32l1xx_hal.c **** 
 370              		.loc 1 341 16 is_stmt 0 view .LVU74
 371 000e 1860     		str	r0, [r3]
 344:Drivers/STM32L1xx_HAL_Driver/Src/stm32l1xx_hal.c **** 
 372              		.loc 1 344 5 is_stmt 1 view .LVU75
 344:Drivers/STM32L1xx_HAL_Driver/Src/stm32l1xx_hal.c **** 
 373              		.loc 1 344 14 is_stmt 0 view .LVU76
 374 0010 054B     		ldr	r3, .L39+4
 375 0012 1868     		ldr	r0, [r3]
 376              	.LVL19:
 344:Drivers/STM32L1xx_HAL_Driver/Src/stm32l1xx_hal.c **** 
 377              		.loc 1 344 14 view .LVU77
 378 0014 FFF7FEFF 		bl	HAL_InitTick
 379              	.LVL20:
 346:Drivers/STM32L1xx_HAL_Driver/Src/stm32l1xx_hal.c ****     {
 380              		.loc 1 346 5 is_stmt 1 view .LVU78
 346:Drivers/STM32L1xx_HAL_Driver/Src/stm32l1xx_hal.c ****     {
 381              		.loc 1 346 8 is_stmt 0 view .LVU79
 382 0018 0028     		cmp	r0, #0
 383 001a F7D0     		beq	.L35
 349:Drivers/STM32L1xx_HAL_Driver/Src/stm32l1xx_hal.c ****     }
 384              		.loc 1 349 7 is_stmt 1 view .LVU80
 349:Drivers/STM32L1xx_HAL_Driver/Src/stm32l1xx_hal.c ****     }
 385              		.loc 1 349 18 is_stmt 0 view .LVU81
 386 001c 014B     		ldr	r3, .L39
 387 001e 1C60     		str	r4, [r3]
 388 0020 F4E7     		b	.L35
 389              	.L40:
 390 0022 00BF     		.align	2
 391              	.L39:
 392 0024 00000000 		.word	.LANCHOR0
 393 0028 00000000 		.word	.LANCHOR1
 394              		.cfi_endproc
 395              	.LFE80:
 397              		.section	.text.HAL_GetTickFreq,"ax",%progbits
 398              		.align	1
 399              		.global	HAL_GetTickFreq
 400              		.syntax unified
 401              		.thumb
 402              		.thumb_func
 404              	HAL_GetTickFreq:
 405              	.LFB81:
 355:Drivers/STM32L1xx_HAL_Driver/Src/stm32l1xx_hal.c **** 
 356:Drivers/STM32L1xx_HAL_Driver/Src/stm32l1xx_hal.c **** /**
 357:Drivers/STM32L1xx_HAL_Driver/Src/stm32l1xx_hal.c ****   * @brief Return tick frequency.
 358:Drivers/STM32L1xx_HAL_Driver/Src/stm32l1xx_hal.c ****   * @retval Tick frequency.
 359:Drivers/STM32L1xx_HAL_Driver/Src/stm32l1xx_hal.c ****   *         Value of @ref HAL_TickFreqTypeDef.
 360:Drivers/STM32L1xx_HAL_Driver/Src/stm32l1xx_hal.c ****   */
 361:Drivers/STM32L1xx_HAL_Driver/Src/stm32l1xx_hal.c **** uint32_t HAL_GetTickFreq(void)
 362:Drivers/STM32L1xx_HAL_Driver/Src/stm32l1xx_hal.c **** {
 406              		.loc 1 362 1 is_stmt 1 view -0
 407              		.cfi_startproc
 408              		@ args = 0, pretend = 0, frame = 0
ARM GAS  /tmp/ccReQ6Ov.s 			page 15


 409              		@ frame_needed = 0, uses_anonymous_args = 0
 410              		@ link register save eliminated.
 363:Drivers/STM32L1xx_HAL_Driver/Src/stm32l1xx_hal.c ****   return uwTickFreq;
 411              		.loc 1 363 3 view .LVU83
 364:Drivers/STM32L1xx_HAL_Driver/Src/stm32l1xx_hal.c **** }
 412              		.loc 1 364 1 is_stmt 0 view .LVU84
 413 0000 014B     		ldr	r3, .L42
 414 0002 1868     		ldr	r0, [r3]
 415 0004 7047     		bx	lr
 416              	.L43:
 417 0006 00BF     		.align	2
 418              	.L42:
 419 0008 00000000 		.word	.LANCHOR0
 420              		.cfi_endproc
 421              	.LFE81:
 423              		.section	.text.HAL_Delay,"ax",%progbits
 424              		.align	1
 425              		.weak	HAL_Delay
 426              		.syntax unified
 427              		.thumb
 428              		.thumb_func
 430              	HAL_Delay:
 431              	.LVL21:
 432              	.LFB82:
 365:Drivers/STM32L1xx_HAL_Driver/Src/stm32l1xx_hal.c **** 
 366:Drivers/STM32L1xx_HAL_Driver/Src/stm32l1xx_hal.c **** /**
 367:Drivers/STM32L1xx_HAL_Driver/Src/stm32l1xx_hal.c ****   * @brief This function provides minimum delay (in milliseconds) based
 368:Drivers/STM32L1xx_HAL_Driver/Src/stm32l1xx_hal.c ****   *        on variable incremented.
 369:Drivers/STM32L1xx_HAL_Driver/Src/stm32l1xx_hal.c ****   * @note In the default implementation , SysTick timer is the source of time base.
 370:Drivers/STM32L1xx_HAL_Driver/Src/stm32l1xx_hal.c ****   *       It is used to generate interrupts at regular time intervals where uwTick
 371:Drivers/STM32L1xx_HAL_Driver/Src/stm32l1xx_hal.c ****   *       is incremented.
 372:Drivers/STM32L1xx_HAL_Driver/Src/stm32l1xx_hal.c ****   * @note This function is declared as __weak to be overwritten in case of other
 373:Drivers/STM32L1xx_HAL_Driver/Src/stm32l1xx_hal.c ****   *       implementations in user file.
 374:Drivers/STM32L1xx_HAL_Driver/Src/stm32l1xx_hal.c ****   * @param Delay specifies the delay time length, in milliseconds.
 375:Drivers/STM32L1xx_HAL_Driver/Src/stm32l1xx_hal.c ****   * @retval None
 376:Drivers/STM32L1xx_HAL_Driver/Src/stm32l1xx_hal.c ****   */
 377:Drivers/STM32L1xx_HAL_Driver/Src/stm32l1xx_hal.c **** __weak void HAL_Delay(uint32_t Delay)
 378:Drivers/STM32L1xx_HAL_Driver/Src/stm32l1xx_hal.c **** {
 433              		.loc 1 378 1 is_stmt 1 view -0
 434              		.cfi_startproc
 435              		@ args = 0, pretend = 0, frame = 0
 436              		@ frame_needed = 0, uses_anonymous_args = 0
 437              		.loc 1 378 1 is_stmt 0 view .LVU86
 438 0000 38B5     		push	{r3, r4, r5, lr}
 439              	.LCFI4:
 440              		.cfi_def_cfa_offset 16
 441              		.cfi_offset 3, -16
 442              		.cfi_offset 4, -12
 443              		.cfi_offset 5, -8
 444              		.cfi_offset 14, -4
 445 0002 0446     		mov	r4, r0
 379:Drivers/STM32L1xx_HAL_Driver/Src/stm32l1xx_hal.c ****   uint32_t tickstart = HAL_GetTick();
 446              		.loc 1 379 3 is_stmt 1 view .LVU87
 447              		.loc 1 379 24 is_stmt 0 view .LVU88
 448 0004 FFF7FEFF 		bl	HAL_GetTick
 449              	.LVL22:
 450              		.loc 1 379 24 view .LVU89
ARM GAS  /tmp/ccReQ6Ov.s 			page 16


 451 0008 0546     		mov	r5, r0
 452              	.LVL23:
 380:Drivers/STM32L1xx_HAL_Driver/Src/stm32l1xx_hal.c ****   uint32_t wait = Delay;
 453              		.loc 1 380 3 is_stmt 1 view .LVU90
 381:Drivers/STM32L1xx_HAL_Driver/Src/stm32l1xx_hal.c **** 
 382:Drivers/STM32L1xx_HAL_Driver/Src/stm32l1xx_hal.c ****   /* Add a period to guaranty minimum wait */
 383:Drivers/STM32L1xx_HAL_Driver/Src/stm32l1xx_hal.c ****   if (wait < HAL_MAX_DELAY)
 454              		.loc 1 383 3 view .LVU91
 455              		.loc 1 383 6 is_stmt 0 view .LVU92
 456 000a B4F1FF3F 		cmp	r4, #-1
 457 000e 02D0     		beq	.L46
 384:Drivers/STM32L1xx_HAL_Driver/Src/stm32l1xx_hal.c ****   {
 385:Drivers/STM32L1xx_HAL_Driver/Src/stm32l1xx_hal.c ****     wait += (uint32_t)(uwTickFreq);
 458              		.loc 1 385 5 is_stmt 1 view .LVU93
 459              		.loc 1 385 13 is_stmt 0 view .LVU94
 460 0010 044B     		ldr	r3, .L48
 461 0012 1B68     		ldr	r3, [r3]
 462              		.loc 1 385 10 view .LVU95
 463 0014 1C44     		add	r4, r4, r3
 464              	.LVL24:
 465              	.L46:
 386:Drivers/STM32L1xx_HAL_Driver/Src/stm32l1xx_hal.c ****   }
 387:Drivers/STM32L1xx_HAL_Driver/Src/stm32l1xx_hal.c **** 
 388:Drivers/STM32L1xx_HAL_Driver/Src/stm32l1xx_hal.c ****   while((HAL_GetTick() - tickstart) < wait)
 389:Drivers/STM32L1xx_HAL_Driver/Src/stm32l1xx_hal.c ****   {
 390:Drivers/STM32L1xx_HAL_Driver/Src/stm32l1xx_hal.c ****   }
 466              		.loc 1 390 3 is_stmt 1 discriminator 1 view .LVU96
 388:Drivers/STM32L1xx_HAL_Driver/Src/stm32l1xx_hal.c ****   {
 467              		.loc 1 388 8 discriminator 1 view .LVU97
 388:Drivers/STM32L1xx_HAL_Driver/Src/stm32l1xx_hal.c ****   {
 468              		.loc 1 388 10 is_stmt 0 discriminator 1 view .LVU98
 469 0016 FFF7FEFF 		bl	HAL_GetTick
 470              	.LVL25:
 388:Drivers/STM32L1xx_HAL_Driver/Src/stm32l1xx_hal.c ****   {
 471              		.loc 1 388 24 discriminator 1 view .LVU99
 472 001a 401B     		subs	r0, r0, r5
 388:Drivers/STM32L1xx_HAL_Driver/Src/stm32l1xx_hal.c ****   {
 473              		.loc 1 388 8 discriminator 1 view .LVU100
 474 001c A042     		cmp	r0, r4
 475 001e FAD3     		bcc	.L46
 391:Drivers/STM32L1xx_HAL_Driver/Src/stm32l1xx_hal.c **** }
 476              		.loc 1 391 1 view .LVU101
 477 0020 38BD     		pop	{r3, r4, r5, pc}
 478              	.LVL26:
 479              	.L49:
 480              		.loc 1 391 1 view .LVU102
 481 0022 00BF     		.align	2
 482              	.L48:
 483 0024 00000000 		.word	.LANCHOR0
 484              		.cfi_endproc
 485              	.LFE82:
 487              		.section	.text.HAL_SuspendTick,"ax",%progbits
 488              		.align	1
 489              		.weak	HAL_SuspendTick
 490              		.syntax unified
 491              		.thumb
 492              		.thumb_func
ARM GAS  /tmp/ccReQ6Ov.s 			page 17


 494              	HAL_SuspendTick:
 495              	.LFB83:
 392:Drivers/STM32L1xx_HAL_Driver/Src/stm32l1xx_hal.c **** 
 393:Drivers/STM32L1xx_HAL_Driver/Src/stm32l1xx_hal.c **** /**
 394:Drivers/STM32L1xx_HAL_Driver/Src/stm32l1xx_hal.c ****   * @brief Suspend the Tick increment.
 395:Drivers/STM32L1xx_HAL_Driver/Src/stm32l1xx_hal.c ****   * @note In the default implementation , SysTick timer is the source of time base. It is
 396:Drivers/STM32L1xx_HAL_Driver/Src/stm32l1xx_hal.c ****   *       used to generate interrupts at regular time intervals. Once HAL_SuspendTick()
 397:Drivers/STM32L1xx_HAL_Driver/Src/stm32l1xx_hal.c ****   *       is called, the SysTick interrupt will be disabled and so Tick increment
 398:Drivers/STM32L1xx_HAL_Driver/Src/stm32l1xx_hal.c ****   *       is suspended.
 399:Drivers/STM32L1xx_HAL_Driver/Src/stm32l1xx_hal.c ****   * @note This function is declared as __weak to be overwritten in case of other
 400:Drivers/STM32L1xx_HAL_Driver/Src/stm32l1xx_hal.c ****   *       implementations in user file.
 401:Drivers/STM32L1xx_HAL_Driver/Src/stm32l1xx_hal.c ****   * @retval None
 402:Drivers/STM32L1xx_HAL_Driver/Src/stm32l1xx_hal.c ****   */
 403:Drivers/STM32L1xx_HAL_Driver/Src/stm32l1xx_hal.c **** __weak void HAL_SuspendTick(void)
 404:Drivers/STM32L1xx_HAL_Driver/Src/stm32l1xx_hal.c **** {
 496              		.loc 1 404 1 is_stmt 1 view -0
 497              		.cfi_startproc
 498              		@ args = 0, pretend = 0, frame = 0
 499              		@ frame_needed = 0, uses_anonymous_args = 0
 500              		@ link register save eliminated.
 405:Drivers/STM32L1xx_HAL_Driver/Src/stm32l1xx_hal.c ****   /* Disable SysTick Interrupt */
 406:Drivers/STM32L1xx_HAL_Driver/Src/stm32l1xx_hal.c ****   CLEAR_BIT(SysTick->CTRL,SysTick_CTRL_TICKINT_Msk);
 501              		.loc 1 406 3 view .LVU104
 502 0000 4FF0E022 		mov	r2, #-536813568
 503 0004 1369     		ldr	r3, [r2, #16]
 504 0006 23F00203 		bic	r3, r3, #2
 505 000a 1361     		str	r3, [r2, #16]
 407:Drivers/STM32L1xx_HAL_Driver/Src/stm32l1xx_hal.c **** }
 506              		.loc 1 407 1 is_stmt 0 view .LVU105
 507 000c 7047     		bx	lr
 508              		.cfi_endproc
 509              	.LFE83:
 511              		.section	.text.HAL_ResumeTick,"ax",%progbits
 512              		.align	1
 513              		.weak	HAL_ResumeTick
 514              		.syntax unified
 515              		.thumb
 516              		.thumb_func
 518              	HAL_ResumeTick:
 519              	.LFB84:
 408:Drivers/STM32L1xx_HAL_Driver/Src/stm32l1xx_hal.c **** 
 409:Drivers/STM32L1xx_HAL_Driver/Src/stm32l1xx_hal.c **** /**
 410:Drivers/STM32L1xx_HAL_Driver/Src/stm32l1xx_hal.c ****   * @brief Resume the Tick increment.
 411:Drivers/STM32L1xx_HAL_Driver/Src/stm32l1xx_hal.c ****   * @note In the default implementation , SysTick timer is the source of time base. It is
 412:Drivers/STM32L1xx_HAL_Driver/Src/stm32l1xx_hal.c ****   *       used to generate interrupts at regular time intervals. Once HAL_ResumeTick()
 413:Drivers/STM32L1xx_HAL_Driver/Src/stm32l1xx_hal.c ****   *       is called, the SysTick interrupt will be enabled and so Tick increment
 414:Drivers/STM32L1xx_HAL_Driver/Src/stm32l1xx_hal.c ****   *       is resumed.
 415:Drivers/STM32L1xx_HAL_Driver/Src/stm32l1xx_hal.c ****   * @note This function is declared as __weak to be overwritten in case of other
 416:Drivers/STM32L1xx_HAL_Driver/Src/stm32l1xx_hal.c ****   *       implementations in user file.
 417:Drivers/STM32L1xx_HAL_Driver/Src/stm32l1xx_hal.c ****   * @retval None
 418:Drivers/STM32L1xx_HAL_Driver/Src/stm32l1xx_hal.c ****   */
 419:Drivers/STM32L1xx_HAL_Driver/Src/stm32l1xx_hal.c **** __weak void HAL_ResumeTick(void)
 420:Drivers/STM32L1xx_HAL_Driver/Src/stm32l1xx_hal.c **** {
 520              		.loc 1 420 1 is_stmt 1 view -0
 521              		.cfi_startproc
 522              		@ args = 0, pretend = 0, frame = 0
 523              		@ frame_needed = 0, uses_anonymous_args = 0
ARM GAS  /tmp/ccReQ6Ov.s 			page 18


 524              		@ link register save eliminated.
 421:Drivers/STM32L1xx_HAL_Driver/Src/stm32l1xx_hal.c ****   /* Enable SysTick Interrupt */
 422:Drivers/STM32L1xx_HAL_Driver/Src/stm32l1xx_hal.c ****   SET_BIT(SysTick->CTRL,SysTick_CTRL_TICKINT_Msk);
 525              		.loc 1 422 3 view .LVU107
 526 0000 4FF0E022 		mov	r2, #-536813568
 527 0004 1369     		ldr	r3, [r2, #16]
 528 0006 43F00203 		orr	r3, r3, #2
 529 000a 1361     		str	r3, [r2, #16]
 423:Drivers/STM32L1xx_HAL_Driver/Src/stm32l1xx_hal.c **** }
 530              		.loc 1 423 1 is_stmt 0 view .LVU108
 531 000c 7047     		bx	lr
 532              		.cfi_endproc
 533              	.LFE84:
 535              		.section	.text.HAL_GetHalVersion,"ax",%progbits
 536              		.align	1
 537              		.global	HAL_GetHalVersion
 538              		.syntax unified
 539              		.thumb
 540              		.thumb_func
 542              	HAL_GetHalVersion:
 543              	.LFB85:
 424:Drivers/STM32L1xx_HAL_Driver/Src/stm32l1xx_hal.c **** 
 425:Drivers/STM32L1xx_HAL_Driver/Src/stm32l1xx_hal.c **** /**
 426:Drivers/STM32L1xx_HAL_Driver/Src/stm32l1xx_hal.c ****   * @brief Return the HAL revision
 427:Drivers/STM32L1xx_HAL_Driver/Src/stm32l1xx_hal.c ****   * @retval version: 0xXYZR (8bits for each decimal, R for RC)
 428:Drivers/STM32L1xx_HAL_Driver/Src/stm32l1xx_hal.c ****   */
 429:Drivers/STM32L1xx_HAL_Driver/Src/stm32l1xx_hal.c **** uint32_t HAL_GetHalVersion(void)
 430:Drivers/STM32L1xx_HAL_Driver/Src/stm32l1xx_hal.c **** {
 544              		.loc 1 430 1 is_stmt 1 view -0
 545              		.cfi_startproc
 546              		@ args = 0, pretend = 0, frame = 0
 547              		@ frame_needed = 0, uses_anonymous_args = 0
 548              		@ link register save eliminated.
 431:Drivers/STM32L1xx_HAL_Driver/Src/stm32l1xx_hal.c ****   return __STM32L1xx_HAL_VERSION;
 549              		.loc 1 431 3 view .LVU110
 432:Drivers/STM32L1xx_HAL_Driver/Src/stm32l1xx_hal.c **** }
 550              		.loc 1 432 1 is_stmt 0 view .LVU111
 551 0000 0048     		ldr	r0, .L53
 552 0002 7047     		bx	lr
 553              	.L54:
 554              		.align	2
 555              	.L53:
 556 0004 00050401 		.word	17040640
 557              		.cfi_endproc
 558              	.LFE85:
 560              		.section	.text.HAL_GetREVID,"ax",%progbits
 561              		.align	1
 562              		.global	HAL_GetREVID
 563              		.syntax unified
 564              		.thumb
 565              		.thumb_func
 567              	HAL_GetREVID:
 568              	.LFB86:
 433:Drivers/STM32L1xx_HAL_Driver/Src/stm32l1xx_hal.c **** 
 434:Drivers/STM32L1xx_HAL_Driver/Src/stm32l1xx_hal.c **** /**
 435:Drivers/STM32L1xx_HAL_Driver/Src/stm32l1xx_hal.c ****   * @brief Return the device revision identifier.
 436:Drivers/STM32L1xx_HAL_Driver/Src/stm32l1xx_hal.c ****   * @retval Device revision identifier
ARM GAS  /tmp/ccReQ6Ov.s 			page 19


 437:Drivers/STM32L1xx_HAL_Driver/Src/stm32l1xx_hal.c ****   */
 438:Drivers/STM32L1xx_HAL_Driver/Src/stm32l1xx_hal.c **** uint32_t HAL_GetREVID(void)
 439:Drivers/STM32L1xx_HAL_Driver/Src/stm32l1xx_hal.c **** {
 569              		.loc 1 439 1 is_stmt 1 view -0
 570              		.cfi_startproc
 571              		@ args = 0, pretend = 0, frame = 0
 572              		@ frame_needed = 0, uses_anonymous_args = 0
 573              		@ link register save eliminated.
 440:Drivers/STM32L1xx_HAL_Driver/Src/stm32l1xx_hal.c ****   return((DBGMCU->IDCODE) >> 16U);
 574              		.loc 1 440 3 view .LVU113
 575              		.loc 1 440 17 is_stmt 0 view .LVU114
 576 0000 014B     		ldr	r3, .L56
 577 0002 1868     		ldr	r0, [r3]
 441:Drivers/STM32L1xx_HAL_Driver/Src/stm32l1xx_hal.c **** }
 578              		.loc 1 441 1 view .LVU115
 579 0004 000C     		lsrs	r0, r0, #16
 580 0006 7047     		bx	lr
 581              	.L57:
 582              		.align	2
 583              	.L56:
 584 0008 002004E0 		.word	-536600576
 585              		.cfi_endproc
 586              	.LFE86:
 588              		.section	.text.HAL_GetDEVID,"ax",%progbits
 589              		.align	1
 590              		.global	HAL_GetDEVID
 591              		.syntax unified
 592              		.thumb
 593              		.thumb_func
 595              	HAL_GetDEVID:
 596              	.LFB87:
 442:Drivers/STM32L1xx_HAL_Driver/Src/stm32l1xx_hal.c **** 
 443:Drivers/STM32L1xx_HAL_Driver/Src/stm32l1xx_hal.c **** /**
 444:Drivers/STM32L1xx_HAL_Driver/Src/stm32l1xx_hal.c ****   * @brief  Return the device identifier.
 445:Drivers/STM32L1xx_HAL_Driver/Src/stm32l1xx_hal.c ****   * @retval Device identifier
 446:Drivers/STM32L1xx_HAL_Driver/Src/stm32l1xx_hal.c ****   */
 447:Drivers/STM32L1xx_HAL_Driver/Src/stm32l1xx_hal.c **** uint32_t HAL_GetDEVID(void)
 448:Drivers/STM32L1xx_HAL_Driver/Src/stm32l1xx_hal.c **** {
 597              		.loc 1 448 1 is_stmt 1 view -0
 598              		.cfi_startproc
 599              		@ args = 0, pretend = 0, frame = 0
 600              		@ frame_needed = 0, uses_anonymous_args = 0
 601              		@ link register save eliminated.
 449:Drivers/STM32L1xx_HAL_Driver/Src/stm32l1xx_hal.c ****    return((DBGMCU->IDCODE) & IDCODE_DEVID_MASK);
 602              		.loc 1 449 4 view .LVU117
 603              		.loc 1 449 18 is_stmt 0 view .LVU118
 604 0000 024B     		ldr	r3, .L59
 605 0002 1868     		ldr	r0, [r3]
 450:Drivers/STM32L1xx_HAL_Driver/Src/stm32l1xx_hal.c **** }
 606              		.loc 1 450 1 view .LVU119
 607 0004 C0F30B00 		ubfx	r0, r0, #0, #12
 608 0008 7047     		bx	lr
 609              	.L60:
 610 000a 00BF     		.align	2
 611              	.L59:
 612 000c 002004E0 		.word	-536600576
 613              		.cfi_endproc
ARM GAS  /tmp/ccReQ6Ov.s 			page 20


 614              	.LFE87:
 616              		.section	.text.HAL_GetUIDw0,"ax",%progbits
 617              		.align	1
 618              		.global	HAL_GetUIDw0
 619              		.syntax unified
 620              		.thumb
 621              		.thumb_func
 623              	HAL_GetUIDw0:
 624              	.LFB88:
 451:Drivers/STM32L1xx_HAL_Driver/Src/stm32l1xx_hal.c **** 
 452:Drivers/STM32L1xx_HAL_Driver/Src/stm32l1xx_hal.c **** /**
 453:Drivers/STM32L1xx_HAL_Driver/Src/stm32l1xx_hal.c ****   * @brief  Return the first word of the unique device identifier (UID based on 96 bits)
 454:Drivers/STM32L1xx_HAL_Driver/Src/stm32l1xx_hal.c ****   * @retval Device identifier 31:0 bits
 455:Drivers/STM32L1xx_HAL_Driver/Src/stm32l1xx_hal.c ****   */
 456:Drivers/STM32L1xx_HAL_Driver/Src/stm32l1xx_hal.c **** uint32_t HAL_GetUIDw0(void)
 457:Drivers/STM32L1xx_HAL_Driver/Src/stm32l1xx_hal.c **** {
 625              		.loc 1 457 1 is_stmt 1 view -0
 626              		.cfi_startproc
 627              		@ args = 0, pretend = 0, frame = 0
 628              		@ frame_needed = 0, uses_anonymous_args = 0
 629              		@ link register save eliminated.
 458:Drivers/STM32L1xx_HAL_Driver/Src/stm32l1xx_hal.c ****   return(READ_REG(*((uint32_t *)UID_BASE)));
 630              		.loc 1 458 3 view .LVU121
 459:Drivers/STM32L1xx_HAL_Driver/Src/stm32l1xx_hal.c **** }
 631              		.loc 1 459 1 is_stmt 0 view .LVU122
 632 0000 014B     		ldr	r3, .L62
 633 0002 D3F8D000 		ldr	r0, [r3, #208]
 634 0006 7047     		bx	lr
 635              	.L63:
 636              		.align	2
 637              	.L62:
 638 0008 0000F81F 		.word	536346624
 639              		.cfi_endproc
 640              	.LFE88:
 642              		.section	.text.HAL_GetUIDw1,"ax",%progbits
 643              		.align	1
 644              		.global	HAL_GetUIDw1
 645              		.syntax unified
 646              		.thumb
 647              		.thumb_func
 649              	HAL_GetUIDw1:
 650              	.LFB89:
 460:Drivers/STM32L1xx_HAL_Driver/Src/stm32l1xx_hal.c **** 
 461:Drivers/STM32L1xx_HAL_Driver/Src/stm32l1xx_hal.c **** /**
 462:Drivers/STM32L1xx_HAL_Driver/Src/stm32l1xx_hal.c ****   * @brief  Return the second word of the unique device identifier (UID based on 96 bits)
 463:Drivers/STM32L1xx_HAL_Driver/Src/stm32l1xx_hal.c ****   * @retval Device identifier 63:32 bits
 464:Drivers/STM32L1xx_HAL_Driver/Src/stm32l1xx_hal.c ****   */
 465:Drivers/STM32L1xx_HAL_Driver/Src/stm32l1xx_hal.c **** uint32_t HAL_GetUIDw1(void)
 466:Drivers/STM32L1xx_HAL_Driver/Src/stm32l1xx_hal.c **** {
 651              		.loc 1 466 1 is_stmt 1 view -0
 652              		.cfi_startproc
 653              		@ args = 0, pretend = 0, frame = 0
 654              		@ frame_needed = 0, uses_anonymous_args = 0
 655              		@ link register save eliminated.
 467:Drivers/STM32L1xx_HAL_Driver/Src/stm32l1xx_hal.c ****   return(READ_REG(*((uint32_t *)(UID_BASE + 0x4U))));
 656              		.loc 1 467 3 view .LVU124
 468:Drivers/STM32L1xx_HAL_Driver/Src/stm32l1xx_hal.c **** }
ARM GAS  /tmp/ccReQ6Ov.s 			page 21


 657              		.loc 1 468 1 is_stmt 0 view .LVU125
 658 0000 014B     		ldr	r3, .L65
 659 0002 D3F8D400 		ldr	r0, [r3, #212]
 660 0006 7047     		bx	lr
 661              	.L66:
 662              		.align	2
 663              	.L65:
 664 0008 0000F81F 		.word	536346624
 665              		.cfi_endproc
 666              	.LFE89:
 668              		.section	.text.HAL_GetUIDw2,"ax",%progbits
 669              		.align	1
 670              		.global	HAL_GetUIDw2
 671              		.syntax unified
 672              		.thumb
 673              		.thumb_func
 675              	HAL_GetUIDw2:
 676              	.LFB90:
 469:Drivers/STM32L1xx_HAL_Driver/Src/stm32l1xx_hal.c **** 
 470:Drivers/STM32L1xx_HAL_Driver/Src/stm32l1xx_hal.c **** /**
 471:Drivers/STM32L1xx_HAL_Driver/Src/stm32l1xx_hal.c ****   * @brief  Return the third word of the unique device identifier (UID based on 96 bits)
 472:Drivers/STM32L1xx_HAL_Driver/Src/stm32l1xx_hal.c ****   * @retval Device identifier 95:64 bits
 473:Drivers/STM32L1xx_HAL_Driver/Src/stm32l1xx_hal.c ****   */
 474:Drivers/STM32L1xx_HAL_Driver/Src/stm32l1xx_hal.c **** uint32_t HAL_GetUIDw2(void)
 475:Drivers/STM32L1xx_HAL_Driver/Src/stm32l1xx_hal.c **** {
 677              		.loc 1 475 1 is_stmt 1 view -0
 678              		.cfi_startproc
 679              		@ args = 0, pretend = 0, frame = 0
 680              		@ frame_needed = 0, uses_anonymous_args = 0
 681              		@ link register save eliminated.
 476:Drivers/STM32L1xx_HAL_Driver/Src/stm32l1xx_hal.c ****   return(READ_REG(*((uint32_t *)(UID_BASE + 0x14U))));
 682              		.loc 1 476 3 view .LVU127
 477:Drivers/STM32L1xx_HAL_Driver/Src/stm32l1xx_hal.c **** }
 683              		.loc 1 477 1 is_stmt 0 view .LVU128
 684 0000 014B     		ldr	r3, .L68
 685 0002 D3F8E400 		ldr	r0, [r3, #228]
 686 0006 7047     		bx	lr
 687              	.L69:
 688              		.align	2
 689              	.L68:
 690 0008 0000F81F 		.word	536346624
 691              		.cfi_endproc
 692              	.LFE90:
 694              		.section	.text.HAL_DBGMCU_EnableDBGSleepMode,"ax",%progbits
 695              		.align	1
 696              		.global	HAL_DBGMCU_EnableDBGSleepMode
 697              		.syntax unified
 698              		.thumb
 699              		.thumb_func
 701              	HAL_DBGMCU_EnableDBGSleepMode:
 702              	.LFB91:
 478:Drivers/STM32L1xx_HAL_Driver/Src/stm32l1xx_hal.c **** 
 479:Drivers/STM32L1xx_HAL_Driver/Src/stm32l1xx_hal.c **** /**
 480:Drivers/STM32L1xx_HAL_Driver/Src/stm32l1xx_hal.c ****   * @}
 481:Drivers/STM32L1xx_HAL_Driver/Src/stm32l1xx_hal.c ****   */
 482:Drivers/STM32L1xx_HAL_Driver/Src/stm32l1xx_hal.c **** 
 483:Drivers/STM32L1xx_HAL_Driver/Src/stm32l1xx_hal.c **** /** @defgroup HAL_Exported_Functions_Group3 DBGMCU Peripheral Control functions
ARM GAS  /tmp/ccReQ6Ov.s 			page 22


 484:Drivers/STM32L1xx_HAL_Driver/Src/stm32l1xx_hal.c ****  *  @brief    DBGMCU Peripheral Control functions
 485:Drivers/STM32L1xx_HAL_Driver/Src/stm32l1xx_hal.c ****  *
 486:Drivers/STM32L1xx_HAL_Driver/Src/stm32l1xx_hal.c **** @verbatim
 487:Drivers/STM32L1xx_HAL_Driver/Src/stm32l1xx_hal.c ****  ===============================================================================
 488:Drivers/STM32L1xx_HAL_Driver/Src/stm32l1xx_hal.c ****                       ##### DBGMCU Peripheral Control functions #####
 489:Drivers/STM32L1xx_HAL_Driver/Src/stm32l1xx_hal.c ****  ===============================================================================
 490:Drivers/STM32L1xx_HAL_Driver/Src/stm32l1xx_hal.c ****     [..]  This section provides functions allowing to:
 491:Drivers/STM32L1xx_HAL_Driver/Src/stm32l1xx_hal.c ****       (+) Enable/Disable Debug module during SLEEP mode
 492:Drivers/STM32L1xx_HAL_Driver/Src/stm32l1xx_hal.c ****       (+) Enable/Disable Debug module during STOP mode
 493:Drivers/STM32L1xx_HAL_Driver/Src/stm32l1xx_hal.c ****       (+) Enable/Disable Debug module during STANDBY mode
 494:Drivers/STM32L1xx_HAL_Driver/Src/stm32l1xx_hal.c **** 
 495:Drivers/STM32L1xx_HAL_Driver/Src/stm32l1xx_hal.c **** @endverbatim
 496:Drivers/STM32L1xx_HAL_Driver/Src/stm32l1xx_hal.c ****   * @{
 497:Drivers/STM32L1xx_HAL_Driver/Src/stm32l1xx_hal.c ****   */
 498:Drivers/STM32L1xx_HAL_Driver/Src/stm32l1xx_hal.c **** 
 499:Drivers/STM32L1xx_HAL_Driver/Src/stm32l1xx_hal.c **** /**
 500:Drivers/STM32L1xx_HAL_Driver/Src/stm32l1xx_hal.c ****   * @brief  Enable the Debug Module during SLEEP mode
 501:Drivers/STM32L1xx_HAL_Driver/Src/stm32l1xx_hal.c ****   * @retval None
 502:Drivers/STM32L1xx_HAL_Driver/Src/stm32l1xx_hal.c ****   */
 503:Drivers/STM32L1xx_HAL_Driver/Src/stm32l1xx_hal.c **** void HAL_DBGMCU_EnableDBGSleepMode(void)
 504:Drivers/STM32L1xx_HAL_Driver/Src/stm32l1xx_hal.c **** {
 703              		.loc 1 504 1 is_stmt 1 view -0
 704              		.cfi_startproc
 705              		@ args = 0, pretend = 0, frame = 0
 706              		@ frame_needed = 0, uses_anonymous_args = 0
 707              		@ link register save eliminated.
 505:Drivers/STM32L1xx_HAL_Driver/Src/stm32l1xx_hal.c ****   SET_BIT(DBGMCU->CR, DBGMCU_CR_DBG_SLEEP);
 708              		.loc 1 505 3 view .LVU130
 709 0000 024A     		ldr	r2, .L71
 710 0002 5368     		ldr	r3, [r2, #4]
 711 0004 43F00103 		orr	r3, r3, #1
 712 0008 5360     		str	r3, [r2, #4]
 506:Drivers/STM32L1xx_HAL_Driver/Src/stm32l1xx_hal.c **** }
 713              		.loc 1 506 1 is_stmt 0 view .LVU131
 714 000a 7047     		bx	lr
 715              	.L72:
 716              		.align	2
 717              	.L71:
 718 000c 002004E0 		.word	-536600576
 719              		.cfi_endproc
 720              	.LFE91:
 722              		.section	.text.HAL_DBGMCU_DisableDBGSleepMode,"ax",%progbits
 723              		.align	1
 724              		.global	HAL_DBGMCU_DisableDBGSleepMode
 725              		.syntax unified
 726              		.thumb
 727              		.thumb_func
 729              	HAL_DBGMCU_DisableDBGSleepMode:
 730              	.LFB92:
 507:Drivers/STM32L1xx_HAL_Driver/Src/stm32l1xx_hal.c **** 
 508:Drivers/STM32L1xx_HAL_Driver/Src/stm32l1xx_hal.c **** /**
 509:Drivers/STM32L1xx_HAL_Driver/Src/stm32l1xx_hal.c ****   * @brief  Disable the Debug Module during SLEEP mode
 510:Drivers/STM32L1xx_HAL_Driver/Src/stm32l1xx_hal.c ****   * @retval None
 511:Drivers/STM32L1xx_HAL_Driver/Src/stm32l1xx_hal.c ****   */
 512:Drivers/STM32L1xx_HAL_Driver/Src/stm32l1xx_hal.c **** void HAL_DBGMCU_DisableDBGSleepMode(void)
 513:Drivers/STM32L1xx_HAL_Driver/Src/stm32l1xx_hal.c **** {
 731              		.loc 1 513 1 is_stmt 1 view -0
ARM GAS  /tmp/ccReQ6Ov.s 			page 23


 732              		.cfi_startproc
 733              		@ args = 0, pretend = 0, frame = 0
 734              		@ frame_needed = 0, uses_anonymous_args = 0
 735              		@ link register save eliminated.
 514:Drivers/STM32L1xx_HAL_Driver/Src/stm32l1xx_hal.c ****   CLEAR_BIT(DBGMCU->CR, DBGMCU_CR_DBG_SLEEP);
 736              		.loc 1 514 3 view .LVU133
 737 0000 024A     		ldr	r2, .L74
 738 0002 5368     		ldr	r3, [r2, #4]
 739 0004 23F00103 		bic	r3, r3, #1
 740 0008 5360     		str	r3, [r2, #4]
 515:Drivers/STM32L1xx_HAL_Driver/Src/stm32l1xx_hal.c **** }
 741              		.loc 1 515 1 is_stmt 0 view .LVU134
 742 000a 7047     		bx	lr
 743              	.L75:
 744              		.align	2
 745              	.L74:
 746 000c 002004E0 		.word	-536600576
 747              		.cfi_endproc
 748              	.LFE92:
 750              		.section	.text.HAL_DBGMCU_EnableDBGStopMode,"ax",%progbits
 751              		.align	1
 752              		.global	HAL_DBGMCU_EnableDBGStopMode
 753              		.syntax unified
 754              		.thumb
 755              		.thumb_func
 757              	HAL_DBGMCU_EnableDBGStopMode:
 758              	.LFB93:
 516:Drivers/STM32L1xx_HAL_Driver/Src/stm32l1xx_hal.c **** 
 517:Drivers/STM32L1xx_HAL_Driver/Src/stm32l1xx_hal.c **** /**
 518:Drivers/STM32L1xx_HAL_Driver/Src/stm32l1xx_hal.c ****   * @brief  Enable the Debug Module during STOP mode
 519:Drivers/STM32L1xx_HAL_Driver/Src/stm32l1xx_hal.c ****   * @retval None
 520:Drivers/STM32L1xx_HAL_Driver/Src/stm32l1xx_hal.c ****   */
 521:Drivers/STM32L1xx_HAL_Driver/Src/stm32l1xx_hal.c **** void HAL_DBGMCU_EnableDBGStopMode(void)
 522:Drivers/STM32L1xx_HAL_Driver/Src/stm32l1xx_hal.c **** {
 759              		.loc 1 522 1 is_stmt 1 view -0
 760              		.cfi_startproc
 761              		@ args = 0, pretend = 0, frame = 0
 762              		@ frame_needed = 0, uses_anonymous_args = 0
 763              		@ link register save eliminated.
 523:Drivers/STM32L1xx_HAL_Driver/Src/stm32l1xx_hal.c ****   SET_BIT(DBGMCU->CR, DBGMCU_CR_DBG_STOP);
 764              		.loc 1 523 3 view .LVU136
 765 0000 024A     		ldr	r2, .L77
 766 0002 5368     		ldr	r3, [r2, #4]
 767 0004 43F00203 		orr	r3, r3, #2
 768 0008 5360     		str	r3, [r2, #4]
 524:Drivers/STM32L1xx_HAL_Driver/Src/stm32l1xx_hal.c **** }
 769              		.loc 1 524 1 is_stmt 0 view .LVU137
 770 000a 7047     		bx	lr
 771              	.L78:
 772              		.align	2
 773              	.L77:
 774 000c 002004E0 		.word	-536600576
 775              		.cfi_endproc
 776              	.LFE93:
 778              		.section	.text.HAL_DBGMCU_DisableDBGStopMode,"ax",%progbits
 779              		.align	1
 780              		.global	HAL_DBGMCU_DisableDBGStopMode
ARM GAS  /tmp/ccReQ6Ov.s 			page 24


 781              		.syntax unified
 782              		.thumb
 783              		.thumb_func
 785              	HAL_DBGMCU_DisableDBGStopMode:
 786              	.LFB94:
 525:Drivers/STM32L1xx_HAL_Driver/Src/stm32l1xx_hal.c **** 
 526:Drivers/STM32L1xx_HAL_Driver/Src/stm32l1xx_hal.c **** /**
 527:Drivers/STM32L1xx_HAL_Driver/Src/stm32l1xx_hal.c ****   * @brief  Disable the Debug Module during STOP mode
 528:Drivers/STM32L1xx_HAL_Driver/Src/stm32l1xx_hal.c ****   * @retval None
 529:Drivers/STM32L1xx_HAL_Driver/Src/stm32l1xx_hal.c ****   */
 530:Drivers/STM32L1xx_HAL_Driver/Src/stm32l1xx_hal.c **** void HAL_DBGMCU_DisableDBGStopMode(void)
 531:Drivers/STM32L1xx_HAL_Driver/Src/stm32l1xx_hal.c **** {
 787              		.loc 1 531 1 is_stmt 1 view -0
 788              		.cfi_startproc
 789              		@ args = 0, pretend = 0, frame = 0
 790              		@ frame_needed = 0, uses_anonymous_args = 0
 791              		@ link register save eliminated.
 532:Drivers/STM32L1xx_HAL_Driver/Src/stm32l1xx_hal.c ****   CLEAR_BIT(DBGMCU->CR, DBGMCU_CR_DBG_STOP);
 792              		.loc 1 532 3 view .LVU139
 793 0000 024A     		ldr	r2, .L80
 794 0002 5368     		ldr	r3, [r2, #4]
 795 0004 23F00203 		bic	r3, r3, #2
 796 0008 5360     		str	r3, [r2, #4]
 533:Drivers/STM32L1xx_HAL_Driver/Src/stm32l1xx_hal.c **** }
 797              		.loc 1 533 1 is_stmt 0 view .LVU140
 798 000a 7047     		bx	lr
 799              	.L81:
 800              		.align	2
 801              	.L80:
 802 000c 002004E0 		.word	-536600576
 803              		.cfi_endproc
 804              	.LFE94:
 806              		.section	.text.HAL_DBGMCU_EnableDBGStandbyMode,"ax",%progbits
 807              		.align	1
 808              		.global	HAL_DBGMCU_EnableDBGStandbyMode
 809              		.syntax unified
 810              		.thumb
 811              		.thumb_func
 813              	HAL_DBGMCU_EnableDBGStandbyMode:
 814              	.LFB95:
 534:Drivers/STM32L1xx_HAL_Driver/Src/stm32l1xx_hal.c **** 
 535:Drivers/STM32L1xx_HAL_Driver/Src/stm32l1xx_hal.c **** /**
 536:Drivers/STM32L1xx_HAL_Driver/Src/stm32l1xx_hal.c ****   * @brief  Enable the Debug Module during STANDBY mode
 537:Drivers/STM32L1xx_HAL_Driver/Src/stm32l1xx_hal.c ****   * @retval None
 538:Drivers/STM32L1xx_HAL_Driver/Src/stm32l1xx_hal.c ****   */
 539:Drivers/STM32L1xx_HAL_Driver/Src/stm32l1xx_hal.c **** void HAL_DBGMCU_EnableDBGStandbyMode(void)
 540:Drivers/STM32L1xx_HAL_Driver/Src/stm32l1xx_hal.c **** {
 815              		.loc 1 540 1 is_stmt 1 view -0
 816              		.cfi_startproc
 817              		@ args = 0, pretend = 0, frame = 0
 818              		@ frame_needed = 0, uses_anonymous_args = 0
 819              		@ link register save eliminated.
 541:Drivers/STM32L1xx_HAL_Driver/Src/stm32l1xx_hal.c ****   SET_BIT(DBGMCU->CR, DBGMCU_CR_DBG_STANDBY);
 820              		.loc 1 541 3 view .LVU142
 821 0000 024A     		ldr	r2, .L83
 822 0002 5368     		ldr	r3, [r2, #4]
 823 0004 43F00403 		orr	r3, r3, #4
ARM GAS  /tmp/ccReQ6Ov.s 			page 25


 824 0008 5360     		str	r3, [r2, #4]
 542:Drivers/STM32L1xx_HAL_Driver/Src/stm32l1xx_hal.c **** }
 825              		.loc 1 542 1 is_stmt 0 view .LVU143
 826 000a 7047     		bx	lr
 827              	.L84:
 828              		.align	2
 829              	.L83:
 830 000c 002004E0 		.word	-536600576
 831              		.cfi_endproc
 832              	.LFE95:
 834              		.section	.text.HAL_DBGMCU_DisableDBGStandbyMode,"ax",%progbits
 835              		.align	1
 836              		.global	HAL_DBGMCU_DisableDBGStandbyMode
 837              		.syntax unified
 838              		.thumb
 839              		.thumb_func
 841              	HAL_DBGMCU_DisableDBGStandbyMode:
 842              	.LFB96:
 543:Drivers/STM32L1xx_HAL_Driver/Src/stm32l1xx_hal.c **** 
 544:Drivers/STM32L1xx_HAL_Driver/Src/stm32l1xx_hal.c **** /**
 545:Drivers/STM32L1xx_HAL_Driver/Src/stm32l1xx_hal.c ****   * @brief  Disable the Debug Module during STANDBY mode
 546:Drivers/STM32L1xx_HAL_Driver/Src/stm32l1xx_hal.c ****   * @retval None
 547:Drivers/STM32L1xx_HAL_Driver/Src/stm32l1xx_hal.c ****   */
 548:Drivers/STM32L1xx_HAL_Driver/Src/stm32l1xx_hal.c **** void HAL_DBGMCU_DisableDBGStandbyMode(void)
 549:Drivers/STM32L1xx_HAL_Driver/Src/stm32l1xx_hal.c **** {
 843              		.loc 1 549 1 is_stmt 1 view -0
 844              		.cfi_startproc
 845              		@ args = 0, pretend = 0, frame = 0
 846              		@ frame_needed = 0, uses_anonymous_args = 0
 847              		@ link register save eliminated.
 550:Drivers/STM32L1xx_HAL_Driver/Src/stm32l1xx_hal.c ****   CLEAR_BIT(DBGMCU->CR, DBGMCU_CR_DBG_STANDBY);
 848              		.loc 1 550 3 view .LVU145
 849 0000 024A     		ldr	r2, .L86
 850 0002 5368     		ldr	r3, [r2, #4]
 851 0004 23F00403 		bic	r3, r3, #4
 852 0008 5360     		str	r3, [r2, #4]
 551:Drivers/STM32L1xx_HAL_Driver/Src/stm32l1xx_hal.c **** }
 853              		.loc 1 551 1 is_stmt 0 view .LVU146
 854 000a 7047     		bx	lr
 855              	.L87:
 856              		.align	2
 857              	.L86:
 858 000c 002004E0 		.word	-536600576
 859              		.cfi_endproc
 860              	.LFE96:
 862              		.global	uwTickFreq
 863              		.global	uwTickPrio
 864              		.global	uwTick
 865              		.section	.bss.uwTick,"aw",%nobits
 866              		.align	2
 867              		.set	.LANCHOR2,. + 0
 870              	uwTick:
 871 0000 00000000 		.space	4
 872              		.section	.data.uwTickFreq,"aw"
 873              		.align	2
 874              		.set	.LANCHOR0,. + 0
 877              	uwTickFreq:
ARM GAS  /tmp/ccReQ6Ov.s 			page 26


 878 0000 01000000 		.word	1
 879              		.section	.data.uwTickPrio,"aw"
 880              		.align	2
 881              		.set	.LANCHOR1,. + 0
 884              	uwTickPrio:
 885 0000 10000000 		.word	16
 886              		.text
 887              	.Letext0:
 888              		.file 2 "/home/seradya/toolchains/gcc-arm-none-eabi-10.3-2021.10/arm-none-eabi/include/machine/_de
 889              		.file 3 "/home/seradya/toolchains/gcc-arm-none-eabi-10.3-2021.10/arm-none-eabi/include/sys/_stdint
 890              		.file 4 "Drivers/CMSIS/Include/core_cm3.h"
 891              		.file 5 "Drivers/CMSIS/Device/ST/STM32L1xx/Include/stm32l152xc.h"
 892              		.file 6 "Drivers/STM32L1xx_HAL_Driver/Inc/stm32l1xx_hal_def.h"
 893              		.file 7 "Drivers/CMSIS/Device/ST/STM32L1xx/Include/system_stm32l1xx.h"
 894              		.file 8 "Drivers/STM32L1xx_HAL_Driver/Inc/stm32l1xx_hal.h"
 895              		.file 9 "Drivers/STM32L1xx_HAL_Driver/Inc/stm32l1xx_hal_cortex.h"
ARM GAS  /tmp/ccReQ6Ov.s 			page 27

