ARM GAS  /tmp/ccR6NC9v.s 			page 1


   1              		.cpu cortex-m3
   2              		.arch armv7-m
   3              		.fpu softvfp
   4              		.eabi_attribute 20, 1
   5              		.eabi_attribute 21, 1
   6              		.eabi_attribute 23, 3
   7              		.eabi_attribute 24, 1
   8              		.eabi_attribute 25, 1
   9              		.eabi_attribute 26, 1
  10              		.eabi_attribute 30, 1
  11              		.eabi_attribute 34, 1
  12              		.eabi_attribute 18, 4
  13              		.file	"stm32l1xx_it.c"
  14              		.text
  15              	.Ltext0:
  16              		.cfi_sections	.debug_frame
  17              		.section	.text.NMI_Handler,"ax",%progbits
  18              		.align	1
  19              		.global	NMI_Handler
  20              		.syntax unified
  21              		.thumb
  22              		.thumb_func
  24              	NMI_Handler:
  25              	.LFB72:
  26              		.file 1 "Core/Src/stm32l1xx_it.c"
   1:Core/Src/stm32l1xx_it.c **** 
   2:Core/Src/stm32l1xx_it.c **** #include "main.h"
   3:Core/Src/stm32l1xx_it.c **** #include "stm32l1xx_it.h"
   4:Core/Src/stm32l1xx_it.c **** 
   5:Core/Src/stm32l1xx_it.c **** /******************************************************************************/
   6:Core/Src/stm32l1xx_it.c **** /*           Cortex-M3 Processor Interruption and Exception Handlers          */
   7:Core/Src/stm32l1xx_it.c **** /******************************************************************************/
   8:Core/Src/stm32l1xx_it.c **** /**
   9:Core/Src/stm32l1xx_it.c ****   * @brief This function handles Non maskable interrupt.
  10:Core/Src/stm32l1xx_it.c ****   */
  11:Core/Src/stm32l1xx_it.c **** void NMI_Handler(void)
  12:Core/Src/stm32l1xx_it.c **** {
  27              		.loc 1 12 1 view -0
  28              		.cfi_startproc
  29              		@ Volatile: function does not return.
  30              		@ args = 0, pretend = 0, frame = 0
  31              		@ frame_needed = 0, uses_anonymous_args = 0
  32              		@ link register save eliminated.
  33              	.L2:
  13:Core/Src/stm32l1xx_it.c **** 
  14:Core/Src/stm32l1xx_it.c ****   while (1)
  34              		.loc 1 14 3 discriminator 1 view .LVU1
  15:Core/Src/stm32l1xx_it.c ****   {
  16:Core/Src/stm32l1xx_it.c ****   }
  35              		.loc 1 16 3 discriminator 1 view .LVU2
  14:Core/Src/stm32l1xx_it.c ****   {
  36              		.loc 1 14 9 discriminator 1 view .LVU3
  37 0000 FEE7     		b	.L2
  38              		.cfi_endproc
  39              	.LFE72:
  41              		.section	.text.HardFault_Handler,"ax",%progbits
  42              		.align	1
ARM GAS  /tmp/ccR6NC9v.s 			page 2


  43              		.global	HardFault_Handler
  44              		.syntax unified
  45              		.thumb
  46              		.thumb_func
  48              	HardFault_Handler:
  49              	.LFB73:
  17:Core/Src/stm32l1xx_it.c **** 
  18:Core/Src/stm32l1xx_it.c **** }
  19:Core/Src/stm32l1xx_it.c **** 
  20:Core/Src/stm32l1xx_it.c **** /**
  21:Core/Src/stm32l1xx_it.c ****   * @brief This function handles Hard fault interrupt.
  22:Core/Src/stm32l1xx_it.c ****   */
  23:Core/Src/stm32l1xx_it.c **** void HardFault_Handler(void)
  24:Core/Src/stm32l1xx_it.c **** {
  50              		.loc 1 24 1 view -0
  51              		.cfi_startproc
  52              		@ Volatile: function does not return.
  53              		@ args = 0, pretend = 0, frame = 0
  54              		@ frame_needed = 0, uses_anonymous_args = 0
  55              		@ link register save eliminated.
  56              	.L4:
  25:Core/Src/stm32l1xx_it.c **** 
  26:Core/Src/stm32l1xx_it.c ****   while (1)
  57              		.loc 1 26 3 discriminator 1 view .LVU5
  27:Core/Src/stm32l1xx_it.c ****   {
  28:Core/Src/stm32l1xx_it.c **** 
  29:Core/Src/stm32l1xx_it.c ****   }
  58              		.loc 1 29 3 discriminator 1 view .LVU6
  26:Core/Src/stm32l1xx_it.c ****   {
  59              		.loc 1 26 9 discriminator 1 view .LVU7
  60 0000 FEE7     		b	.L4
  61              		.cfi_endproc
  62              	.LFE73:
  64              		.section	.text.MemManage_Handler,"ax",%progbits
  65              		.align	1
  66              		.global	MemManage_Handler
  67              		.syntax unified
  68              		.thumb
  69              		.thumb_func
  71              	MemManage_Handler:
  72              	.LFB74:
  30:Core/Src/stm32l1xx_it.c **** }
  31:Core/Src/stm32l1xx_it.c **** 
  32:Core/Src/stm32l1xx_it.c **** /**
  33:Core/Src/stm32l1xx_it.c ****   * @brief This function handles Memory management fault.
  34:Core/Src/stm32l1xx_it.c ****   */
  35:Core/Src/stm32l1xx_it.c **** void MemManage_Handler(void)
  36:Core/Src/stm32l1xx_it.c **** {
  73              		.loc 1 36 1 view -0
  74              		.cfi_startproc
  75              		@ Volatile: function does not return.
  76              		@ args = 0, pretend = 0, frame = 0
  77              		@ frame_needed = 0, uses_anonymous_args = 0
  78              		@ link register save eliminated.
  79              	.L6:
  37:Core/Src/stm32l1xx_it.c **** 
  38:Core/Src/stm32l1xx_it.c ****   while (1)
ARM GAS  /tmp/ccR6NC9v.s 			page 3


  80              		.loc 1 38 3 discriminator 1 view .LVU9
  39:Core/Src/stm32l1xx_it.c ****   {
  40:Core/Src/stm32l1xx_it.c **** 
  41:Core/Src/stm32l1xx_it.c ****   }
  81              		.loc 1 41 3 discriminator 1 view .LVU10
  38:Core/Src/stm32l1xx_it.c ****   {
  82              		.loc 1 38 9 discriminator 1 view .LVU11
  83 0000 FEE7     		b	.L6
  84              		.cfi_endproc
  85              	.LFE74:
  87              		.section	.text.BusFault_Handler,"ax",%progbits
  88              		.align	1
  89              		.global	BusFault_Handler
  90              		.syntax unified
  91              		.thumb
  92              		.thumb_func
  94              	BusFault_Handler:
  95              	.LFB75:
  42:Core/Src/stm32l1xx_it.c **** }
  43:Core/Src/stm32l1xx_it.c **** 
  44:Core/Src/stm32l1xx_it.c **** /**
  45:Core/Src/stm32l1xx_it.c ****   * @brief This function handles Pre-fetch fault, memory access fault.
  46:Core/Src/stm32l1xx_it.c ****   */
  47:Core/Src/stm32l1xx_it.c **** void BusFault_Handler(void)
  48:Core/Src/stm32l1xx_it.c **** {
  96              		.loc 1 48 1 view -0
  97              		.cfi_startproc
  98              		@ Volatile: function does not return.
  99              		@ args = 0, pretend = 0, frame = 0
 100              		@ frame_needed = 0, uses_anonymous_args = 0
 101              		@ link register save eliminated.
 102              	.L8:
  49:Core/Src/stm32l1xx_it.c **** 
  50:Core/Src/stm32l1xx_it.c ****   while (1)
 103              		.loc 1 50 3 discriminator 1 view .LVU13
  51:Core/Src/stm32l1xx_it.c ****   {
  52:Core/Src/stm32l1xx_it.c ****   }
 104              		.loc 1 52 3 discriminator 1 view .LVU14
  50:Core/Src/stm32l1xx_it.c ****   {
 105              		.loc 1 50 9 discriminator 1 view .LVU15
 106 0000 FEE7     		b	.L8
 107              		.cfi_endproc
 108              	.LFE75:
 110              		.section	.text.UsageFault_Handler,"ax",%progbits
 111              		.align	1
 112              		.global	UsageFault_Handler
 113              		.syntax unified
 114              		.thumb
 115              		.thumb_func
 117              	UsageFault_Handler:
 118              	.LFB76:
  53:Core/Src/stm32l1xx_it.c **** }
  54:Core/Src/stm32l1xx_it.c **** 
  55:Core/Src/stm32l1xx_it.c **** /**
  56:Core/Src/stm32l1xx_it.c ****   * @brief This function handles Undefined instruction or illegal state.
  57:Core/Src/stm32l1xx_it.c ****   */
  58:Core/Src/stm32l1xx_it.c **** void UsageFault_Handler(void)
ARM GAS  /tmp/ccR6NC9v.s 			page 4


  59:Core/Src/stm32l1xx_it.c **** {
 119              		.loc 1 59 1 view -0
 120              		.cfi_startproc
 121              		@ Volatile: function does not return.
 122              		@ args = 0, pretend = 0, frame = 0
 123              		@ frame_needed = 0, uses_anonymous_args = 0
 124              		@ link register save eliminated.
 125              	.L10:
  60:Core/Src/stm32l1xx_it.c **** 
  61:Core/Src/stm32l1xx_it.c ****   while (1)
 126              		.loc 1 61 3 discriminator 1 view .LVU17
  62:Core/Src/stm32l1xx_it.c ****   {
  63:Core/Src/stm32l1xx_it.c **** 
  64:Core/Src/stm32l1xx_it.c ****   }
 127              		.loc 1 64 3 discriminator 1 view .LVU18
  61:Core/Src/stm32l1xx_it.c ****   {
 128              		.loc 1 61 9 discriminator 1 view .LVU19
 129 0000 FEE7     		b	.L10
 130              		.cfi_endproc
 131              	.LFE76:
 133              		.section	.text.SVC_Handler,"ax",%progbits
 134              		.align	1
 135              		.global	SVC_Handler
 136              		.syntax unified
 137              		.thumb
 138              		.thumb_func
 140              	SVC_Handler:
 141              	.LFB77:
  65:Core/Src/stm32l1xx_it.c **** }
  66:Core/Src/stm32l1xx_it.c **** 
  67:Core/Src/stm32l1xx_it.c **** /**
  68:Core/Src/stm32l1xx_it.c ****   * @brief This function handles System service call via SWI instruction.
  69:Core/Src/stm32l1xx_it.c ****   */
  70:Core/Src/stm32l1xx_it.c **** void SVC_Handler(void)
  71:Core/Src/stm32l1xx_it.c **** {
 142              		.loc 1 71 1 view -0
 143              		.cfi_startproc
 144              		@ args = 0, pretend = 0, frame = 0
 145              		@ frame_needed = 0, uses_anonymous_args = 0
 146              		@ link register save eliminated.
  72:Core/Src/stm32l1xx_it.c **** 
  73:Core/Src/stm32l1xx_it.c **** }
 147              		.loc 1 73 1 view .LVU21
 148 0000 7047     		bx	lr
 149              		.cfi_endproc
 150              	.LFE77:
 152              		.section	.text.DebugMon_Handler,"ax",%progbits
 153              		.align	1
 154              		.global	DebugMon_Handler
 155              		.syntax unified
 156              		.thumb
 157              		.thumb_func
 159              	DebugMon_Handler:
 160              	.LFB78:
  74:Core/Src/stm32l1xx_it.c **** 
  75:Core/Src/stm32l1xx_it.c **** /**
  76:Core/Src/stm32l1xx_it.c ****   * @brief This function handles Debug monitor.
ARM GAS  /tmp/ccR6NC9v.s 			page 5


  77:Core/Src/stm32l1xx_it.c ****   */
  78:Core/Src/stm32l1xx_it.c **** void DebugMon_Handler(void)
  79:Core/Src/stm32l1xx_it.c **** {
 161              		.loc 1 79 1 view -0
 162              		.cfi_startproc
 163              		@ args = 0, pretend = 0, frame = 0
 164              		@ frame_needed = 0, uses_anonymous_args = 0
 165              		@ link register save eliminated.
  80:Core/Src/stm32l1xx_it.c **** 
  81:Core/Src/stm32l1xx_it.c **** }
 166              		.loc 1 81 1 view .LVU23
 167 0000 7047     		bx	lr
 168              		.cfi_endproc
 169              	.LFE78:
 171              		.section	.text.PendSV_Handler,"ax",%progbits
 172              		.align	1
 173              		.global	PendSV_Handler
 174              		.syntax unified
 175              		.thumb
 176              		.thumb_func
 178              	PendSV_Handler:
 179              	.LFB79:
  82:Core/Src/stm32l1xx_it.c **** 
  83:Core/Src/stm32l1xx_it.c **** /**
  84:Core/Src/stm32l1xx_it.c ****   * @brief This function handles Pendable request for system service.
  85:Core/Src/stm32l1xx_it.c ****   */
  86:Core/Src/stm32l1xx_it.c **** void PendSV_Handler(void)
  87:Core/Src/stm32l1xx_it.c **** {
 180              		.loc 1 87 1 view -0
 181              		.cfi_startproc
 182              		@ args = 0, pretend = 0, frame = 0
 183              		@ frame_needed = 0, uses_anonymous_args = 0
 184              		@ link register save eliminated.
  88:Core/Src/stm32l1xx_it.c **** 
  89:Core/Src/stm32l1xx_it.c **** }
 185              		.loc 1 89 1 view .LVU25
 186 0000 7047     		bx	lr
 187              		.cfi_endproc
 188              	.LFE79:
 190              		.section	.text.SysTick_Handler,"ax",%progbits
 191              		.align	1
 192              		.global	SysTick_Handler
 193              		.syntax unified
 194              		.thumb
 195              		.thumb_func
 197              	SysTick_Handler:
 198              	.LFB80:
  90:Core/Src/stm32l1xx_it.c **** 
  91:Core/Src/stm32l1xx_it.c **** /**
  92:Core/Src/stm32l1xx_it.c ****   * @brief This function handles System tick timer.
  93:Core/Src/stm32l1xx_it.c ****   */
  94:Core/Src/stm32l1xx_it.c **** void SysTick_Handler(void)
  95:Core/Src/stm32l1xx_it.c **** {
 199              		.loc 1 95 1 view -0
 200              		.cfi_startproc
 201              		@ args = 0, pretend = 0, frame = 0
 202              		@ frame_needed = 0, uses_anonymous_args = 0
ARM GAS  /tmp/ccR6NC9v.s 			page 6


 203              		@ link register save eliminated.
  96:Core/Src/stm32l1xx_it.c **** 
  97:Core/Src/stm32l1xx_it.c **** }
 204              		.loc 1 97 1 view .LVU27
 205 0000 7047     		bx	lr
 206              		.cfi_endproc
 207              	.LFE80:
 209              		.text
 210              	.Letext0:
ARM GAS  /tmp/ccR6NC9v.s 			page 7

